ARM GAS  /tmp/ccfL2ZiY.s 			page 1


   1              		.cpu cortex-m3
   2              		.arch armv7-m
   3              		.fpu softvfp
   4              		.eabi_attribute 20, 1
   5              		.eabi_attribute 21, 1
   6              		.eabi_attribute 23, 3
   7              		.eabi_attribute 24, 1
   8              		.eabi_attribute 25, 1
   9              		.eabi_attribute 26, 1
  10              		.eabi_attribute 30, 6
  11              		.eabi_attribute 34, 1
  12              		.eabi_attribute 18, 4
  13              		.file	"stm32f1xx_hal_dma.c"
  14              		.text
  15              	.Ltext0:
  16              		.cfi_sections	.debug_frame
  17              		.section	.text.HAL_DMA_Init,"ax",%progbits
  18              		.align	1
  19              		.global	HAL_DMA_Init
  20              		.syntax unified
  21              		.thumb
  22              		.thumb_func
  24              	HAL_DMA_Init:
  25              	.LFB65:
  26              		.file 1 "Drivers/STM32F1xx_HAL_Driver/Src/stm32f1xx_hal_dma.c"
   1:Drivers/STM32F1xx_HAL_Driver/Src/stm32f1xx_hal_dma.c **** /**
   2:Drivers/STM32F1xx_HAL_Driver/Src/stm32f1xx_hal_dma.c ****   ******************************************************************************
   3:Drivers/STM32F1xx_HAL_Driver/Src/stm32f1xx_hal_dma.c ****   * @file    stm32f1xx_hal_dma.c
   4:Drivers/STM32F1xx_HAL_Driver/Src/stm32f1xx_hal_dma.c ****   * @author  MCD Application Team
   5:Drivers/STM32F1xx_HAL_Driver/Src/stm32f1xx_hal_dma.c ****   * @brief   DMA HAL module driver.
   6:Drivers/STM32F1xx_HAL_Driver/Src/stm32f1xx_hal_dma.c ****   *         This file provides firmware functions to manage the following
   7:Drivers/STM32F1xx_HAL_Driver/Src/stm32f1xx_hal_dma.c ****   *         functionalities of the Direct Memory Access (DMA) peripheral:
   8:Drivers/STM32F1xx_HAL_Driver/Src/stm32f1xx_hal_dma.c ****   *           + Initialization and de-initialization functions
   9:Drivers/STM32F1xx_HAL_Driver/Src/stm32f1xx_hal_dma.c ****   *           + IO operation functions
  10:Drivers/STM32F1xx_HAL_Driver/Src/stm32f1xx_hal_dma.c ****   *           + Peripheral State and errors functions
  11:Drivers/STM32F1xx_HAL_Driver/Src/stm32f1xx_hal_dma.c ****   @verbatim
  12:Drivers/STM32F1xx_HAL_Driver/Src/stm32f1xx_hal_dma.c ****   ==============================================================================
  13:Drivers/STM32F1xx_HAL_Driver/Src/stm32f1xx_hal_dma.c ****                         ##### How to use this driver #####
  14:Drivers/STM32F1xx_HAL_Driver/Src/stm32f1xx_hal_dma.c ****   ==============================================================================
  15:Drivers/STM32F1xx_HAL_Driver/Src/stm32f1xx_hal_dma.c ****   [..]
  16:Drivers/STM32F1xx_HAL_Driver/Src/stm32f1xx_hal_dma.c ****    (#) Enable and configure the peripheral to be connected to the DMA Channel
  17:Drivers/STM32F1xx_HAL_Driver/Src/stm32f1xx_hal_dma.c ****        (except for internal SRAM / FLASH memories: no initialization is 
  18:Drivers/STM32F1xx_HAL_Driver/Src/stm32f1xx_hal_dma.c ****        necessary). Please refer to the Reference manual for connection between peripherals
  19:Drivers/STM32F1xx_HAL_Driver/Src/stm32f1xx_hal_dma.c ****        and DMA requests.
  20:Drivers/STM32F1xx_HAL_Driver/Src/stm32f1xx_hal_dma.c **** 
  21:Drivers/STM32F1xx_HAL_Driver/Src/stm32f1xx_hal_dma.c ****    (#) For a given Channel, program the required configuration through the following parameters:
  22:Drivers/STM32F1xx_HAL_Driver/Src/stm32f1xx_hal_dma.c ****        Channel request, Transfer Direction, Source and Destination data formats,
  23:Drivers/STM32F1xx_HAL_Driver/Src/stm32f1xx_hal_dma.c ****        Circular or Normal mode, Channel Priority level, Source and Destination Increment mode
  24:Drivers/STM32F1xx_HAL_Driver/Src/stm32f1xx_hal_dma.c ****        using HAL_DMA_Init() function.
  25:Drivers/STM32F1xx_HAL_Driver/Src/stm32f1xx_hal_dma.c **** 
  26:Drivers/STM32F1xx_HAL_Driver/Src/stm32f1xx_hal_dma.c ****    (#) Use HAL_DMA_GetState() function to return the DMA state and HAL_DMA_GetError() in case of er
  27:Drivers/STM32F1xx_HAL_Driver/Src/stm32f1xx_hal_dma.c ****        detection.
  28:Drivers/STM32F1xx_HAL_Driver/Src/stm32f1xx_hal_dma.c ****                     
  29:Drivers/STM32F1xx_HAL_Driver/Src/stm32f1xx_hal_dma.c ****    (#) Use HAL_DMA_Abort() function to abort the current transfer
  30:Drivers/STM32F1xx_HAL_Driver/Src/stm32f1xx_hal_dma.c ****                    
  31:Drivers/STM32F1xx_HAL_Driver/Src/stm32f1xx_hal_dma.c ****      -@-   In Memory-to-Memory transfer mode, Circular mode is not allowed.
  32:Drivers/STM32F1xx_HAL_Driver/Src/stm32f1xx_hal_dma.c ****      *** Polling mode IO operation ***
ARM GAS  /tmp/ccfL2ZiY.s 			page 2


  33:Drivers/STM32F1xx_HAL_Driver/Src/stm32f1xx_hal_dma.c ****      =================================
  34:Drivers/STM32F1xx_HAL_Driver/Src/stm32f1xx_hal_dma.c ****     [..]
  35:Drivers/STM32F1xx_HAL_Driver/Src/stm32f1xx_hal_dma.c ****           (+) Use HAL_DMA_Start() to start DMA transfer after the configuration of Source
  36:Drivers/STM32F1xx_HAL_Driver/Src/stm32f1xx_hal_dma.c ****               address and destination address and the Length of data to be transferred
  37:Drivers/STM32F1xx_HAL_Driver/Src/stm32f1xx_hal_dma.c ****           (+) Use HAL_DMA_PollForTransfer() to poll for the end of current transfer, in this
  38:Drivers/STM32F1xx_HAL_Driver/Src/stm32f1xx_hal_dma.c ****               case a fixed Timeout can be configured by User depending from his application.
  39:Drivers/STM32F1xx_HAL_Driver/Src/stm32f1xx_hal_dma.c **** 
  40:Drivers/STM32F1xx_HAL_Driver/Src/stm32f1xx_hal_dma.c ****      *** Interrupt mode IO operation ***
  41:Drivers/STM32F1xx_HAL_Driver/Src/stm32f1xx_hal_dma.c ****      ===================================
  42:Drivers/STM32F1xx_HAL_Driver/Src/stm32f1xx_hal_dma.c ****     [..]
  43:Drivers/STM32F1xx_HAL_Driver/Src/stm32f1xx_hal_dma.c ****           (+) Configure the DMA interrupt priority using HAL_NVIC_SetPriority()
  44:Drivers/STM32F1xx_HAL_Driver/Src/stm32f1xx_hal_dma.c ****           (+) Enable the DMA IRQ handler using HAL_NVIC_EnableIRQ()
  45:Drivers/STM32F1xx_HAL_Driver/Src/stm32f1xx_hal_dma.c ****           (+) Use HAL_DMA_Start_IT() to start DMA transfer after the configuration of
  46:Drivers/STM32F1xx_HAL_Driver/Src/stm32f1xx_hal_dma.c ****               Source address and destination address and the Length of data to be transferred.
  47:Drivers/STM32F1xx_HAL_Driver/Src/stm32f1xx_hal_dma.c ****               In this case the DMA interrupt is configured
  48:Drivers/STM32F1xx_HAL_Driver/Src/stm32f1xx_hal_dma.c ****           (+) Use HAL_DMA_IRQHandler() called under DMA_IRQHandler() Interrupt subroutine
  49:Drivers/STM32F1xx_HAL_Driver/Src/stm32f1xx_hal_dma.c ****           (+) At the end of data transfer HAL_DMA_IRQHandler() function is executed and user can
  50:Drivers/STM32F1xx_HAL_Driver/Src/stm32f1xx_hal_dma.c ****               add his own function by customization of function pointer XferCpltCallback and
  51:Drivers/STM32F1xx_HAL_Driver/Src/stm32f1xx_hal_dma.c ****               XferErrorCallback (i.e. a member of DMA handle structure).
  52:Drivers/STM32F1xx_HAL_Driver/Src/stm32f1xx_hal_dma.c **** 
  53:Drivers/STM32F1xx_HAL_Driver/Src/stm32f1xx_hal_dma.c ****      *** DMA HAL driver macros list ***
  54:Drivers/STM32F1xx_HAL_Driver/Src/stm32f1xx_hal_dma.c ****      ============================================= 
  55:Drivers/STM32F1xx_HAL_Driver/Src/stm32f1xx_hal_dma.c ****       [..]
  56:Drivers/STM32F1xx_HAL_Driver/Src/stm32f1xx_hal_dma.c ****        Below the list of most used macros in DMA HAL driver.
  57:Drivers/STM32F1xx_HAL_Driver/Src/stm32f1xx_hal_dma.c **** 
  58:Drivers/STM32F1xx_HAL_Driver/Src/stm32f1xx_hal_dma.c ****        (+) __HAL_DMA_ENABLE: Enable the specified DMA Channel.
  59:Drivers/STM32F1xx_HAL_Driver/Src/stm32f1xx_hal_dma.c ****        (+) __HAL_DMA_DISABLE: Disable the specified DMA Channel.
  60:Drivers/STM32F1xx_HAL_Driver/Src/stm32f1xx_hal_dma.c ****        (+) __HAL_DMA_GET_FLAG: Get the DMA Channel pending flags.
  61:Drivers/STM32F1xx_HAL_Driver/Src/stm32f1xx_hal_dma.c ****        (+) __HAL_DMA_CLEAR_FLAG: Clear the DMA Channel pending flags.
  62:Drivers/STM32F1xx_HAL_Driver/Src/stm32f1xx_hal_dma.c ****        (+) __HAL_DMA_ENABLE_IT: Enable the specified DMA Channel interrupts.
  63:Drivers/STM32F1xx_HAL_Driver/Src/stm32f1xx_hal_dma.c ****        (+) __HAL_DMA_DISABLE_IT: Disable the specified DMA Channel interrupts.
  64:Drivers/STM32F1xx_HAL_Driver/Src/stm32f1xx_hal_dma.c ****        (+) __HAL_DMA_GET_IT_SOURCE: Check whether the specified DMA Channel interrupt has occurred 
  65:Drivers/STM32F1xx_HAL_Driver/Src/stm32f1xx_hal_dma.c **** 
  66:Drivers/STM32F1xx_HAL_Driver/Src/stm32f1xx_hal_dma.c ****      [..] 
  67:Drivers/STM32F1xx_HAL_Driver/Src/stm32f1xx_hal_dma.c ****       (@) You can refer to the DMA HAL driver header file for more useful macros  
  68:Drivers/STM32F1xx_HAL_Driver/Src/stm32f1xx_hal_dma.c **** 
  69:Drivers/STM32F1xx_HAL_Driver/Src/stm32f1xx_hal_dma.c ****   @endverbatim
  70:Drivers/STM32F1xx_HAL_Driver/Src/stm32f1xx_hal_dma.c ****   ******************************************************************************
  71:Drivers/STM32F1xx_HAL_Driver/Src/stm32f1xx_hal_dma.c ****   * @attention
  72:Drivers/STM32F1xx_HAL_Driver/Src/stm32f1xx_hal_dma.c ****   *
  73:Drivers/STM32F1xx_HAL_Driver/Src/stm32f1xx_hal_dma.c ****   * Copyright (c) 2016 STMicroelectronics.
  74:Drivers/STM32F1xx_HAL_Driver/Src/stm32f1xx_hal_dma.c ****   * All rights reserved.
  75:Drivers/STM32F1xx_HAL_Driver/Src/stm32f1xx_hal_dma.c ****   *
  76:Drivers/STM32F1xx_HAL_Driver/Src/stm32f1xx_hal_dma.c ****   * This software is licensed under terms that can be found in the LICENSE file in
  77:Drivers/STM32F1xx_HAL_Driver/Src/stm32f1xx_hal_dma.c ****   * the root directory of this software component.
  78:Drivers/STM32F1xx_HAL_Driver/Src/stm32f1xx_hal_dma.c ****   * If no LICENSE file comes with this software, it is provided AS-IS.
  79:Drivers/STM32F1xx_HAL_Driver/Src/stm32f1xx_hal_dma.c ****   *
  80:Drivers/STM32F1xx_HAL_Driver/Src/stm32f1xx_hal_dma.c ****   ******************************************************************************
  81:Drivers/STM32F1xx_HAL_Driver/Src/stm32f1xx_hal_dma.c ****   */
  82:Drivers/STM32F1xx_HAL_Driver/Src/stm32f1xx_hal_dma.c **** 
  83:Drivers/STM32F1xx_HAL_Driver/Src/stm32f1xx_hal_dma.c **** /* Includes ------------------------------------------------------------------*/
  84:Drivers/STM32F1xx_HAL_Driver/Src/stm32f1xx_hal_dma.c **** #include "stm32f1xx_hal.h"
  85:Drivers/STM32F1xx_HAL_Driver/Src/stm32f1xx_hal_dma.c **** 
  86:Drivers/STM32F1xx_HAL_Driver/Src/stm32f1xx_hal_dma.c **** /** @addtogroup STM32F1xx_HAL_Driver
  87:Drivers/STM32F1xx_HAL_Driver/Src/stm32f1xx_hal_dma.c ****   * @{
  88:Drivers/STM32F1xx_HAL_Driver/Src/stm32f1xx_hal_dma.c ****   */
  89:Drivers/STM32F1xx_HAL_Driver/Src/stm32f1xx_hal_dma.c **** 
ARM GAS  /tmp/ccfL2ZiY.s 			page 3


  90:Drivers/STM32F1xx_HAL_Driver/Src/stm32f1xx_hal_dma.c **** /** @defgroup DMA DMA
  91:Drivers/STM32F1xx_HAL_Driver/Src/stm32f1xx_hal_dma.c ****   * @brief DMA HAL module driver
  92:Drivers/STM32F1xx_HAL_Driver/Src/stm32f1xx_hal_dma.c ****   * @{
  93:Drivers/STM32F1xx_HAL_Driver/Src/stm32f1xx_hal_dma.c ****   */
  94:Drivers/STM32F1xx_HAL_Driver/Src/stm32f1xx_hal_dma.c **** 
  95:Drivers/STM32F1xx_HAL_Driver/Src/stm32f1xx_hal_dma.c **** #ifdef HAL_DMA_MODULE_ENABLED
  96:Drivers/STM32F1xx_HAL_Driver/Src/stm32f1xx_hal_dma.c **** 
  97:Drivers/STM32F1xx_HAL_Driver/Src/stm32f1xx_hal_dma.c **** /* Private typedef -----------------------------------------------------------*/
  98:Drivers/STM32F1xx_HAL_Driver/Src/stm32f1xx_hal_dma.c **** /* Private define ------------------------------------------------------------*/
  99:Drivers/STM32F1xx_HAL_Driver/Src/stm32f1xx_hal_dma.c **** /* Private macro -------------------------------------------------------------*/
 100:Drivers/STM32F1xx_HAL_Driver/Src/stm32f1xx_hal_dma.c **** /* Private variables ---------------------------------------------------------*/
 101:Drivers/STM32F1xx_HAL_Driver/Src/stm32f1xx_hal_dma.c **** /* Private function prototypes -----------------------------------------------*/
 102:Drivers/STM32F1xx_HAL_Driver/Src/stm32f1xx_hal_dma.c **** /** @defgroup DMA_Private_Functions DMA Private Functions
 103:Drivers/STM32F1xx_HAL_Driver/Src/stm32f1xx_hal_dma.c ****   * @{
 104:Drivers/STM32F1xx_HAL_Driver/Src/stm32f1xx_hal_dma.c ****   */
 105:Drivers/STM32F1xx_HAL_Driver/Src/stm32f1xx_hal_dma.c **** static void DMA_SetConfig(DMA_HandleTypeDef *hdma, uint32_t SrcAddress, uint32_t DstAddress, uint32
 106:Drivers/STM32F1xx_HAL_Driver/Src/stm32f1xx_hal_dma.c **** /**
 107:Drivers/STM32F1xx_HAL_Driver/Src/stm32f1xx_hal_dma.c ****   * @}
 108:Drivers/STM32F1xx_HAL_Driver/Src/stm32f1xx_hal_dma.c ****   */
 109:Drivers/STM32F1xx_HAL_Driver/Src/stm32f1xx_hal_dma.c **** 
 110:Drivers/STM32F1xx_HAL_Driver/Src/stm32f1xx_hal_dma.c **** /* Exported functions ---------------------------------------------------------*/
 111:Drivers/STM32F1xx_HAL_Driver/Src/stm32f1xx_hal_dma.c **** 
 112:Drivers/STM32F1xx_HAL_Driver/Src/stm32f1xx_hal_dma.c **** /** @defgroup DMA_Exported_Functions DMA Exported Functions
 113:Drivers/STM32F1xx_HAL_Driver/Src/stm32f1xx_hal_dma.c ****   * @{
 114:Drivers/STM32F1xx_HAL_Driver/Src/stm32f1xx_hal_dma.c ****   */
 115:Drivers/STM32F1xx_HAL_Driver/Src/stm32f1xx_hal_dma.c **** 
 116:Drivers/STM32F1xx_HAL_Driver/Src/stm32f1xx_hal_dma.c **** /** @defgroup DMA_Exported_Functions_Group1 Initialization and de-initialization functions
 117:Drivers/STM32F1xx_HAL_Driver/Src/stm32f1xx_hal_dma.c ****   *  @brief   Initialization and de-initialization functions 
 118:Drivers/STM32F1xx_HAL_Driver/Src/stm32f1xx_hal_dma.c ****   *
 119:Drivers/STM32F1xx_HAL_Driver/Src/stm32f1xx_hal_dma.c **** @verbatim
 120:Drivers/STM32F1xx_HAL_Driver/Src/stm32f1xx_hal_dma.c ****  ===============================================================================
 121:Drivers/STM32F1xx_HAL_Driver/Src/stm32f1xx_hal_dma.c ****              ##### Initialization and de-initialization functions  #####
 122:Drivers/STM32F1xx_HAL_Driver/Src/stm32f1xx_hal_dma.c ****  ===============================================================================
 123:Drivers/STM32F1xx_HAL_Driver/Src/stm32f1xx_hal_dma.c ****     [..]
 124:Drivers/STM32F1xx_HAL_Driver/Src/stm32f1xx_hal_dma.c ****     This section provides functions allowing to initialize the DMA Channel source
 125:Drivers/STM32F1xx_HAL_Driver/Src/stm32f1xx_hal_dma.c ****     and destination addresses, incrementation and data sizes, transfer direction, 
 126:Drivers/STM32F1xx_HAL_Driver/Src/stm32f1xx_hal_dma.c ****     circular/normal mode selection, memory-to-memory mode selection and Channel priority value.
 127:Drivers/STM32F1xx_HAL_Driver/Src/stm32f1xx_hal_dma.c ****     [..]
 128:Drivers/STM32F1xx_HAL_Driver/Src/stm32f1xx_hal_dma.c ****     The HAL_DMA_Init() function follows the DMA configuration procedures as described in
 129:Drivers/STM32F1xx_HAL_Driver/Src/stm32f1xx_hal_dma.c ****     reference manual.  
 130:Drivers/STM32F1xx_HAL_Driver/Src/stm32f1xx_hal_dma.c **** 
 131:Drivers/STM32F1xx_HAL_Driver/Src/stm32f1xx_hal_dma.c **** @endverbatim
 132:Drivers/STM32F1xx_HAL_Driver/Src/stm32f1xx_hal_dma.c ****   * @{
 133:Drivers/STM32F1xx_HAL_Driver/Src/stm32f1xx_hal_dma.c ****   */
 134:Drivers/STM32F1xx_HAL_Driver/Src/stm32f1xx_hal_dma.c **** 
 135:Drivers/STM32F1xx_HAL_Driver/Src/stm32f1xx_hal_dma.c **** /**
 136:Drivers/STM32F1xx_HAL_Driver/Src/stm32f1xx_hal_dma.c ****   * @brief  Initialize the DMA according to the specified
 137:Drivers/STM32F1xx_HAL_Driver/Src/stm32f1xx_hal_dma.c ****   *         parameters in the DMA_InitTypeDef and initialize the associated handle.
 138:Drivers/STM32F1xx_HAL_Driver/Src/stm32f1xx_hal_dma.c ****   * @param  hdma: Pointer to a DMA_HandleTypeDef structure that contains
 139:Drivers/STM32F1xx_HAL_Driver/Src/stm32f1xx_hal_dma.c ****   *               the configuration information for the specified DMA Channel.
 140:Drivers/STM32F1xx_HAL_Driver/Src/stm32f1xx_hal_dma.c ****   * @retval HAL status
 141:Drivers/STM32F1xx_HAL_Driver/Src/stm32f1xx_hal_dma.c ****   */
 142:Drivers/STM32F1xx_HAL_Driver/Src/stm32f1xx_hal_dma.c **** HAL_StatusTypeDef HAL_DMA_Init(DMA_HandleTypeDef *hdma)
 143:Drivers/STM32F1xx_HAL_Driver/Src/stm32f1xx_hal_dma.c **** {
  27              		.loc 1 143 1
  28              		.cfi_startproc
  29              		@ args = 0, pretend = 0, frame = 16
ARM GAS  /tmp/ccfL2ZiY.s 			page 4


  30              		@ frame_needed = 1, uses_anonymous_args = 0
  31              		@ link register save eliminated.
  32 0000 80B4     		push	{r7}
  33              	.LCFI0:
  34              		.cfi_def_cfa_offset 4
  35              		.cfi_offset 7, -4
  36 0002 85B0     		sub	sp, sp, #20
  37              	.LCFI1:
  38              		.cfi_def_cfa_offset 24
  39 0004 00AF     		add	r7, sp, #0
  40              	.LCFI2:
  41              		.cfi_def_cfa_register 7
  42 0006 7860     		str	r0, [r7, #4]
 144:Drivers/STM32F1xx_HAL_Driver/Src/stm32f1xx_hal_dma.c ****   uint32_t tmp = 0U;
  43              		.loc 1 144 12
  44 0008 0023     		movs	r3, #0
  45 000a FB60     		str	r3, [r7, #12]
 145:Drivers/STM32F1xx_HAL_Driver/Src/stm32f1xx_hal_dma.c **** 
 146:Drivers/STM32F1xx_HAL_Driver/Src/stm32f1xx_hal_dma.c ****   /* Check the DMA handle allocation */
 147:Drivers/STM32F1xx_HAL_Driver/Src/stm32f1xx_hal_dma.c ****   if(hdma == NULL)
  46              		.loc 1 147 5
  47 000c 7B68     		ldr	r3, [r7, #4]
  48 000e 002B     		cmp	r3, #0
  49 0010 01D1     		bne	.L2
 148:Drivers/STM32F1xx_HAL_Driver/Src/stm32f1xx_hal_dma.c ****   {
 149:Drivers/STM32F1xx_HAL_Driver/Src/stm32f1xx_hal_dma.c ****     return HAL_ERROR;
  50              		.loc 1 149 12
  51 0012 0123     		movs	r3, #1
  52 0014 59E0     		b	.L3
  53              	.L2:
 150:Drivers/STM32F1xx_HAL_Driver/Src/stm32f1xx_hal_dma.c ****   }
 151:Drivers/STM32F1xx_HAL_Driver/Src/stm32f1xx_hal_dma.c **** 
 152:Drivers/STM32F1xx_HAL_Driver/Src/stm32f1xx_hal_dma.c ****   /* Check the parameters */
 153:Drivers/STM32F1xx_HAL_Driver/Src/stm32f1xx_hal_dma.c ****   assert_param(IS_DMA_ALL_INSTANCE(hdma->Instance));
 154:Drivers/STM32F1xx_HAL_Driver/Src/stm32f1xx_hal_dma.c ****   assert_param(IS_DMA_DIRECTION(hdma->Init.Direction));
 155:Drivers/STM32F1xx_HAL_Driver/Src/stm32f1xx_hal_dma.c ****   assert_param(IS_DMA_PERIPHERAL_INC_STATE(hdma->Init.PeriphInc));
 156:Drivers/STM32F1xx_HAL_Driver/Src/stm32f1xx_hal_dma.c ****   assert_param(IS_DMA_MEMORY_INC_STATE(hdma->Init.MemInc));
 157:Drivers/STM32F1xx_HAL_Driver/Src/stm32f1xx_hal_dma.c ****   assert_param(IS_DMA_PERIPHERAL_DATA_SIZE(hdma->Init.PeriphDataAlignment));
 158:Drivers/STM32F1xx_HAL_Driver/Src/stm32f1xx_hal_dma.c ****   assert_param(IS_DMA_MEMORY_DATA_SIZE(hdma->Init.MemDataAlignment));
 159:Drivers/STM32F1xx_HAL_Driver/Src/stm32f1xx_hal_dma.c ****   assert_param(IS_DMA_MODE(hdma->Init.Mode));
 160:Drivers/STM32F1xx_HAL_Driver/Src/stm32f1xx_hal_dma.c ****   assert_param(IS_DMA_PRIORITY(hdma->Init.Priority));
 161:Drivers/STM32F1xx_HAL_Driver/Src/stm32f1xx_hal_dma.c **** 
 162:Drivers/STM32F1xx_HAL_Driver/Src/stm32f1xx_hal_dma.c **** #if defined (DMA2)
 163:Drivers/STM32F1xx_HAL_Driver/Src/stm32f1xx_hal_dma.c ****   /* calculation of the channel index */
 164:Drivers/STM32F1xx_HAL_Driver/Src/stm32f1xx_hal_dma.c ****   if ((uint32_t)(hdma->Instance) < (uint32_t)(DMA2_Channel1))
  54              		.loc 1 164 22
  55 0016 7B68     		ldr	r3, [r7, #4]
  56 0018 1B68     		ldr	r3, [r3]
  57              		.loc 1 164 7
  58 001a 1A46     		mov	r2, r3
  59              		.loc 1 164 6
  60 001c 2D4B     		ldr	r3, .L6
  61 001e 9A42     		cmp	r2, r3
  62 0020 0FD8     		bhi	.L4
 165:Drivers/STM32F1xx_HAL_Driver/Src/stm32f1xx_hal_dma.c ****   {
 166:Drivers/STM32F1xx_HAL_Driver/Src/stm32f1xx_hal_dma.c ****     /* DMA1 */
 167:Drivers/STM32F1xx_HAL_Driver/Src/stm32f1xx_hal_dma.c ****     hdma->ChannelIndex = (((uint32_t)hdma->Instance - (uint32_t)DMA1_Channel1) / ((uint32_t)DMA1_Ch
ARM GAS  /tmp/ccfL2ZiY.s 			page 5


  63              		.loc 1 167 42
  64 0022 7B68     		ldr	r3, [r7, #4]
  65 0024 1B68     		ldr	r3, [r3]
  66              		.loc 1 167 28
  67 0026 1A46     		mov	r2, r3
  68              		.loc 1 167 53
  69 0028 2B4B     		ldr	r3, .L6+4
  70 002a 1344     		add	r3, r3, r2
  71              		.loc 1 167 80
  72 002c 2B4A     		ldr	r2, .L6+8
  73 002e A2FB0323 		umull	r2, r3, r2, r3
  74 0032 1B09     		lsrs	r3, r3, #4
  75              		.loc 1 167 135
  76 0034 9A00     		lsls	r2, r3, #2
  77              		.loc 1 167 24
  78 0036 7B68     		ldr	r3, [r7, #4]
  79 0038 1A64     		str	r2, [r3, #64]
 168:Drivers/STM32F1xx_HAL_Driver/Src/stm32f1xx_hal_dma.c ****     hdma->DmaBaseAddress = DMA1;
  80              		.loc 1 168 26
  81 003a 7B68     		ldr	r3, [r7, #4]
  82 003c 284A     		ldr	r2, .L6+12
  83 003e DA63     		str	r2, [r3, #60]
  84 0040 0EE0     		b	.L5
  85              	.L4:
 169:Drivers/STM32F1xx_HAL_Driver/Src/stm32f1xx_hal_dma.c ****   }
 170:Drivers/STM32F1xx_HAL_Driver/Src/stm32f1xx_hal_dma.c ****   else 
 171:Drivers/STM32F1xx_HAL_Driver/Src/stm32f1xx_hal_dma.c ****   {
 172:Drivers/STM32F1xx_HAL_Driver/Src/stm32f1xx_hal_dma.c ****     /* DMA2 */
 173:Drivers/STM32F1xx_HAL_Driver/Src/stm32f1xx_hal_dma.c ****     hdma->ChannelIndex = (((uint32_t)hdma->Instance - (uint32_t)DMA2_Channel1) / ((uint32_t)DMA2_Ch
  86              		.loc 1 173 42
  87 0042 7B68     		ldr	r3, [r7, #4]
  88 0044 1B68     		ldr	r3, [r3]
  89              		.loc 1 173 28
  90 0046 1A46     		mov	r2, r3
  91              		.loc 1 173 53
  92 0048 264B     		ldr	r3, .L6+16
  93 004a 1344     		add	r3, r3, r2
  94              		.loc 1 173 80
  95 004c 234A     		ldr	r2, .L6+8
  96 004e A2FB0323 		umull	r2, r3, r2, r3
  97 0052 1B09     		lsrs	r3, r3, #4
  98              		.loc 1 173 135
  99 0054 9A00     		lsls	r2, r3, #2
 100              		.loc 1 173 24
 101 0056 7B68     		ldr	r3, [r7, #4]
 102 0058 1A64     		str	r2, [r3, #64]
 174:Drivers/STM32F1xx_HAL_Driver/Src/stm32f1xx_hal_dma.c ****     hdma->DmaBaseAddress = DMA2;
 103              		.loc 1 174 26
 104 005a 7B68     		ldr	r3, [r7, #4]
 105 005c 224A     		ldr	r2, .L6+20
 106 005e DA63     		str	r2, [r3, #60]
 107              	.L5:
 175:Drivers/STM32F1xx_HAL_Driver/Src/stm32f1xx_hal_dma.c ****   }
 176:Drivers/STM32F1xx_HAL_Driver/Src/stm32f1xx_hal_dma.c **** #else
 177:Drivers/STM32F1xx_HAL_Driver/Src/stm32f1xx_hal_dma.c ****   /* DMA1 */
 178:Drivers/STM32F1xx_HAL_Driver/Src/stm32f1xx_hal_dma.c ****   hdma->ChannelIndex = (((uint32_t)hdma->Instance - (uint32_t)DMA1_Channel1) / ((uint32_t)DMA1_Chan
 179:Drivers/STM32F1xx_HAL_Driver/Src/stm32f1xx_hal_dma.c ****   hdma->DmaBaseAddress = DMA1;
ARM GAS  /tmp/ccfL2ZiY.s 			page 6


 180:Drivers/STM32F1xx_HAL_Driver/Src/stm32f1xx_hal_dma.c **** #endif /* DMA2 */
 181:Drivers/STM32F1xx_HAL_Driver/Src/stm32f1xx_hal_dma.c **** 
 182:Drivers/STM32F1xx_HAL_Driver/Src/stm32f1xx_hal_dma.c ****   /* Change DMA peripheral state */
 183:Drivers/STM32F1xx_HAL_Driver/Src/stm32f1xx_hal_dma.c ****   hdma->State = HAL_DMA_STATE_BUSY;
 108              		.loc 1 183 15
 109 0060 7B68     		ldr	r3, [r7, #4]
 110 0062 0222     		movs	r2, #2
 111 0064 83F82120 		strb	r2, [r3, #33]
 184:Drivers/STM32F1xx_HAL_Driver/Src/stm32f1xx_hal_dma.c **** 
 185:Drivers/STM32F1xx_HAL_Driver/Src/stm32f1xx_hal_dma.c ****   /* Get the CR register value */
 186:Drivers/STM32F1xx_HAL_Driver/Src/stm32f1xx_hal_dma.c ****   tmp = hdma->Instance->CCR;
 112              		.loc 1 186 13
 113 0068 7B68     		ldr	r3, [r7, #4]
 114 006a 1B68     		ldr	r3, [r3]
 115              		.loc 1 186 7
 116 006c 1B68     		ldr	r3, [r3]
 117 006e FB60     		str	r3, [r7, #12]
 187:Drivers/STM32F1xx_HAL_Driver/Src/stm32f1xx_hal_dma.c **** 
 188:Drivers/STM32F1xx_HAL_Driver/Src/stm32f1xx_hal_dma.c ****   /* Clear PL, MSIZE, PSIZE, MINC, PINC, CIRC and DIR bits */
 189:Drivers/STM32F1xx_HAL_Driver/Src/stm32f1xx_hal_dma.c ****   tmp &= ((uint32_t)~(DMA_CCR_PL    | DMA_CCR_MSIZE  | DMA_CCR_PSIZE  | \
 118              		.loc 1 189 7
 119 0070 FB68     		ldr	r3, [r7, #12]
 120 0072 23F47F53 		bic	r3, r3, #16320
 121 0076 23F03003 		bic	r3, r3, #48
 122 007a FB60     		str	r3, [r7, #12]
 190:Drivers/STM32F1xx_HAL_Driver/Src/stm32f1xx_hal_dma.c ****                       DMA_CCR_MINC  | DMA_CCR_PINC   | DMA_CCR_CIRC   | \
 191:Drivers/STM32F1xx_HAL_Driver/Src/stm32f1xx_hal_dma.c ****                       DMA_CCR_DIR));
 192:Drivers/STM32F1xx_HAL_Driver/Src/stm32f1xx_hal_dma.c **** 
 193:Drivers/STM32F1xx_HAL_Driver/Src/stm32f1xx_hal_dma.c ****   /* Prepare the DMA Channel configuration */
 194:Drivers/STM32F1xx_HAL_Driver/Src/stm32f1xx_hal_dma.c ****   tmp |=  hdma->Init.Direction        |
 123              		.loc 1 194 21
 124 007c 7B68     		ldr	r3, [r7, #4]
 125 007e 5A68     		ldr	r2, [r3, #4]
 195:Drivers/STM32F1xx_HAL_Driver/Src/stm32f1xx_hal_dma.c ****           hdma->Init.PeriphInc           | hdma->Init.MemInc           |
 126              		.loc 1 195 21
 127 0080 7B68     		ldr	r3, [r7, #4]
 128 0082 9B68     		ldr	r3, [r3, #8]
 194:Drivers/STM32F1xx_HAL_Driver/Src/stm32f1xx_hal_dma.c ****           hdma->Init.PeriphInc           | hdma->Init.MemInc           |
 129              		.loc 1 194 39
 130 0084 1A43     		orrs	r2, r2, r3
 131              		.loc 1 195 54
 132 0086 7B68     		ldr	r3, [r7, #4]
 133 0088 DB68     		ldr	r3, [r3, #12]
 134              		.loc 1 195 42
 135 008a 1A43     		orrs	r2, r2, r3
 196:Drivers/STM32F1xx_HAL_Driver/Src/stm32f1xx_hal_dma.c ****           hdma->Init.PeriphDataAlignment | hdma->Init.MemDataAlignment |
 136              		.loc 1 196 21
 137 008c 7B68     		ldr	r3, [r7, #4]
 138 008e 1B69     		ldr	r3, [r3, #16]
 195:Drivers/STM32F1xx_HAL_Driver/Src/stm32f1xx_hal_dma.c ****           hdma->Init.PeriphInc           | hdma->Init.MemInc           |
 139              		.loc 1 195 72
 140 0090 1A43     		orrs	r2, r2, r3
 141              		.loc 1 196 54
 142 0092 7B68     		ldr	r3, [r7, #4]
 143 0094 5B69     		ldr	r3, [r3, #20]
 144              		.loc 1 196 42
 145 0096 1A43     		orrs	r2, r2, r3
ARM GAS  /tmp/ccfL2ZiY.s 			page 7


 197:Drivers/STM32F1xx_HAL_Driver/Src/stm32f1xx_hal_dma.c ****           hdma->Init.Mode                | hdma->Init.Priority;
 146              		.loc 1 197 21
 147 0098 7B68     		ldr	r3, [r7, #4]
 148 009a 9B69     		ldr	r3, [r3, #24]
 196:Drivers/STM32F1xx_HAL_Driver/Src/stm32f1xx_hal_dma.c ****           hdma->Init.PeriphDataAlignment | hdma->Init.MemDataAlignment |
 149              		.loc 1 196 72
 150 009c 1A43     		orrs	r2, r2, r3
 151              		.loc 1 197 54
 152 009e 7B68     		ldr	r3, [r7, #4]
 153 00a0 DB69     		ldr	r3, [r3, #28]
 154              		.loc 1 197 42
 155 00a2 1343     		orrs	r3, r3, r2
 194:Drivers/STM32F1xx_HAL_Driver/Src/stm32f1xx_hal_dma.c ****           hdma->Init.PeriphInc           | hdma->Init.MemInc           |
 156              		.loc 1 194 7
 157 00a4 FA68     		ldr	r2, [r7, #12]
 158 00a6 1343     		orrs	r3, r3, r2
 159 00a8 FB60     		str	r3, [r7, #12]
 198:Drivers/STM32F1xx_HAL_Driver/Src/stm32f1xx_hal_dma.c **** 
 199:Drivers/STM32F1xx_HAL_Driver/Src/stm32f1xx_hal_dma.c ****   /* Write to DMA Channel CR register */
 200:Drivers/STM32F1xx_HAL_Driver/Src/stm32f1xx_hal_dma.c ****   hdma->Instance->CCR = tmp;
 160              		.loc 1 200 7
 161 00aa 7B68     		ldr	r3, [r7, #4]
 162 00ac 1B68     		ldr	r3, [r3]
 163              		.loc 1 200 23
 164 00ae FA68     		ldr	r2, [r7, #12]
 165 00b0 1A60     		str	r2, [r3]
 201:Drivers/STM32F1xx_HAL_Driver/Src/stm32f1xx_hal_dma.c **** 
 202:Drivers/STM32F1xx_HAL_Driver/Src/stm32f1xx_hal_dma.c ****   /* Initialise the error code */
 203:Drivers/STM32F1xx_HAL_Driver/Src/stm32f1xx_hal_dma.c ****   hdma->ErrorCode = HAL_DMA_ERROR_NONE;
 166              		.loc 1 203 19
 167 00b2 7B68     		ldr	r3, [r7, #4]
 168 00b4 0022     		movs	r2, #0
 169 00b6 9A63     		str	r2, [r3, #56]
 204:Drivers/STM32F1xx_HAL_Driver/Src/stm32f1xx_hal_dma.c **** 
 205:Drivers/STM32F1xx_HAL_Driver/Src/stm32f1xx_hal_dma.c ****   /* Initialize the DMA state*/
 206:Drivers/STM32F1xx_HAL_Driver/Src/stm32f1xx_hal_dma.c ****   hdma->State = HAL_DMA_STATE_READY;
 170              		.loc 1 206 15
 171 00b8 7B68     		ldr	r3, [r7, #4]
 172 00ba 0122     		movs	r2, #1
 173 00bc 83F82120 		strb	r2, [r3, #33]
 207:Drivers/STM32F1xx_HAL_Driver/Src/stm32f1xx_hal_dma.c ****   /* Allocate lock resource and initialize it */
 208:Drivers/STM32F1xx_HAL_Driver/Src/stm32f1xx_hal_dma.c ****   hdma->Lock = HAL_UNLOCKED;
 174              		.loc 1 208 14
 175 00c0 7B68     		ldr	r3, [r7, #4]
 176 00c2 0022     		movs	r2, #0
 177 00c4 83F82020 		strb	r2, [r3, #32]
 209:Drivers/STM32F1xx_HAL_Driver/Src/stm32f1xx_hal_dma.c **** 
 210:Drivers/STM32F1xx_HAL_Driver/Src/stm32f1xx_hal_dma.c ****   return HAL_OK;
 178              		.loc 1 210 10
 179 00c8 0023     		movs	r3, #0
 180              	.L3:
 211:Drivers/STM32F1xx_HAL_Driver/Src/stm32f1xx_hal_dma.c **** }
 181              		.loc 1 211 1
 182 00ca 1846     		mov	r0, r3
 183 00cc 1437     		adds	r7, r7, #20
 184              	.LCFI3:
 185              		.cfi_def_cfa_offset 4
ARM GAS  /tmp/ccfL2ZiY.s 			page 8


 186 00ce BD46     		mov	sp, r7
 187              	.LCFI4:
 188              		.cfi_def_cfa_register 13
 189              		@ sp needed
 190 00d0 80BC     		pop	{r7}
 191              	.LCFI5:
 192              		.cfi_restore 7
 193              		.cfi_def_cfa_offset 0
 194 00d2 7047     		bx	lr
 195              	.L7:
 196              		.align	2
 197              	.L6:
 198 00d4 07040240 		.word	1073873927
 199 00d8 F8FFFDBF 		.word	-1073872904
 200 00dc CDCCCCCC 		.word	-858993459
 201 00e0 00000240 		.word	1073872896
 202 00e4 F8FBFDBF 		.word	-1073873928
 203 00e8 00040240 		.word	1073873920
 204              		.cfi_endproc
 205              	.LFE65:
 207              		.section	.text.HAL_DMA_DeInit,"ax",%progbits
 208              		.align	1
 209              		.global	HAL_DMA_DeInit
 210              		.syntax unified
 211              		.thumb
 212              		.thumb_func
 214              	HAL_DMA_DeInit:
 215              	.LFB66:
 212:Drivers/STM32F1xx_HAL_Driver/Src/stm32f1xx_hal_dma.c **** 
 213:Drivers/STM32F1xx_HAL_Driver/Src/stm32f1xx_hal_dma.c **** /**
 214:Drivers/STM32F1xx_HAL_Driver/Src/stm32f1xx_hal_dma.c ****   * @brief  DeInitialize the DMA peripheral.
 215:Drivers/STM32F1xx_HAL_Driver/Src/stm32f1xx_hal_dma.c ****   * @param  hdma: pointer to a DMA_HandleTypeDef structure that contains
 216:Drivers/STM32F1xx_HAL_Driver/Src/stm32f1xx_hal_dma.c ****   *               the configuration information for the specified DMA Channel.
 217:Drivers/STM32F1xx_HAL_Driver/Src/stm32f1xx_hal_dma.c ****   * @retval HAL status
 218:Drivers/STM32F1xx_HAL_Driver/Src/stm32f1xx_hal_dma.c ****   */
 219:Drivers/STM32F1xx_HAL_Driver/Src/stm32f1xx_hal_dma.c **** HAL_StatusTypeDef HAL_DMA_DeInit(DMA_HandleTypeDef *hdma)
 220:Drivers/STM32F1xx_HAL_Driver/Src/stm32f1xx_hal_dma.c **** {
 216              		.loc 1 220 1
 217              		.cfi_startproc
 218              		@ args = 0, pretend = 0, frame = 8
 219              		@ frame_needed = 1, uses_anonymous_args = 0
 220              		@ link register save eliminated.
 221 0000 80B4     		push	{r7}
 222              	.LCFI6:
 223              		.cfi_def_cfa_offset 4
 224              		.cfi_offset 7, -4
 225 0002 83B0     		sub	sp, sp, #12
 226              	.LCFI7:
 227              		.cfi_def_cfa_offset 16
 228 0004 00AF     		add	r7, sp, #0
 229              	.LCFI8:
 230              		.cfi_def_cfa_register 7
 231 0006 7860     		str	r0, [r7, #4]
 221:Drivers/STM32F1xx_HAL_Driver/Src/stm32f1xx_hal_dma.c ****   /* Check the DMA handle allocation */
 222:Drivers/STM32F1xx_HAL_Driver/Src/stm32f1xx_hal_dma.c ****   if(hdma == NULL)
 232              		.loc 1 222 5
 233 0008 7B68     		ldr	r3, [r7, #4]
ARM GAS  /tmp/ccfL2ZiY.s 			page 9


 234 000a 002B     		cmp	r3, #0
 235 000c 01D1     		bne	.L9
 223:Drivers/STM32F1xx_HAL_Driver/Src/stm32f1xx_hal_dma.c ****   {
 224:Drivers/STM32F1xx_HAL_Driver/Src/stm32f1xx_hal_dma.c ****     return HAL_ERROR;
 236              		.loc 1 224 12
 237 000e 0123     		movs	r3, #1
 238 0010 5CE0     		b	.L10
 239              	.L9:
 225:Drivers/STM32F1xx_HAL_Driver/Src/stm32f1xx_hal_dma.c ****   }
 226:Drivers/STM32F1xx_HAL_Driver/Src/stm32f1xx_hal_dma.c **** 
 227:Drivers/STM32F1xx_HAL_Driver/Src/stm32f1xx_hal_dma.c ****   /* Check the parameters */
 228:Drivers/STM32F1xx_HAL_Driver/Src/stm32f1xx_hal_dma.c ****   assert_param(IS_DMA_ALL_INSTANCE(hdma->Instance));
 229:Drivers/STM32F1xx_HAL_Driver/Src/stm32f1xx_hal_dma.c **** 
 230:Drivers/STM32F1xx_HAL_Driver/Src/stm32f1xx_hal_dma.c ****   /* Disable the selected DMA Channelx */
 231:Drivers/STM32F1xx_HAL_Driver/Src/stm32f1xx_hal_dma.c ****   __HAL_DMA_DISABLE(hdma);
 240              		.loc 1 231 3
 241 0012 7B68     		ldr	r3, [r7, #4]
 242 0014 1B68     		ldr	r3, [r3]
 243 0016 1A68     		ldr	r2, [r3]
 244 0018 7B68     		ldr	r3, [r7, #4]
 245 001a 1B68     		ldr	r3, [r3]
 246 001c 22F00102 		bic	r2, r2, #1
 247 0020 1A60     		str	r2, [r3]
 232:Drivers/STM32F1xx_HAL_Driver/Src/stm32f1xx_hal_dma.c **** 
 233:Drivers/STM32F1xx_HAL_Driver/Src/stm32f1xx_hal_dma.c ****   /* Reset DMA Channel control register */
 234:Drivers/STM32F1xx_HAL_Driver/Src/stm32f1xx_hal_dma.c ****   hdma->Instance->CCR  = 0U;
 248              		.loc 1 234 7
 249 0022 7B68     		ldr	r3, [r7, #4]
 250 0024 1B68     		ldr	r3, [r3]
 251              		.loc 1 234 24
 252 0026 0022     		movs	r2, #0
 253 0028 1A60     		str	r2, [r3]
 235:Drivers/STM32F1xx_HAL_Driver/Src/stm32f1xx_hal_dma.c **** 
 236:Drivers/STM32F1xx_HAL_Driver/Src/stm32f1xx_hal_dma.c ****   /* Reset DMA Channel Number of Data to Transfer register */
 237:Drivers/STM32F1xx_HAL_Driver/Src/stm32f1xx_hal_dma.c ****   hdma->Instance->CNDTR = 0U;
 254              		.loc 1 237 7
 255 002a 7B68     		ldr	r3, [r7, #4]
 256 002c 1B68     		ldr	r3, [r3]
 257              		.loc 1 237 25
 258 002e 0022     		movs	r2, #0
 259 0030 5A60     		str	r2, [r3, #4]
 238:Drivers/STM32F1xx_HAL_Driver/Src/stm32f1xx_hal_dma.c **** 
 239:Drivers/STM32F1xx_HAL_Driver/Src/stm32f1xx_hal_dma.c ****   /* Reset DMA Channel peripheral address register */
 240:Drivers/STM32F1xx_HAL_Driver/Src/stm32f1xx_hal_dma.c ****   hdma->Instance->CPAR  = 0U;
 260              		.loc 1 240 7
 261 0032 7B68     		ldr	r3, [r7, #4]
 262 0034 1B68     		ldr	r3, [r3]
 263              		.loc 1 240 25
 264 0036 0022     		movs	r2, #0
 265 0038 9A60     		str	r2, [r3, #8]
 241:Drivers/STM32F1xx_HAL_Driver/Src/stm32f1xx_hal_dma.c **** 
 242:Drivers/STM32F1xx_HAL_Driver/Src/stm32f1xx_hal_dma.c ****   /* Reset DMA Channel memory address register */
 243:Drivers/STM32F1xx_HAL_Driver/Src/stm32f1xx_hal_dma.c ****   hdma->Instance->CMAR = 0U;
 266              		.loc 1 243 7
 267 003a 7B68     		ldr	r3, [r7, #4]
 268 003c 1B68     		ldr	r3, [r3]
 269              		.loc 1 243 24
ARM GAS  /tmp/ccfL2ZiY.s 			page 10


 270 003e 0022     		movs	r2, #0
 271 0040 DA60     		str	r2, [r3, #12]
 244:Drivers/STM32F1xx_HAL_Driver/Src/stm32f1xx_hal_dma.c **** 
 245:Drivers/STM32F1xx_HAL_Driver/Src/stm32f1xx_hal_dma.c **** #if defined (DMA2)
 246:Drivers/STM32F1xx_HAL_Driver/Src/stm32f1xx_hal_dma.c ****   /* calculation of the channel index */
 247:Drivers/STM32F1xx_HAL_Driver/Src/stm32f1xx_hal_dma.c ****   if ((uint32_t)(hdma->Instance) < (uint32_t)(DMA2_Channel1))
 272              		.loc 1 247 22
 273 0042 7B68     		ldr	r3, [r7, #4]
 274 0044 1B68     		ldr	r3, [r3]
 275              		.loc 1 247 7
 276 0046 1A46     		mov	r2, r3
 277              		.loc 1 247 6
 278 0048 234B     		ldr	r3, .L13
 279 004a 9A42     		cmp	r2, r3
 280 004c 0FD8     		bhi	.L11
 248:Drivers/STM32F1xx_HAL_Driver/Src/stm32f1xx_hal_dma.c ****   {
 249:Drivers/STM32F1xx_HAL_Driver/Src/stm32f1xx_hal_dma.c ****     /* DMA1 */
 250:Drivers/STM32F1xx_HAL_Driver/Src/stm32f1xx_hal_dma.c ****     hdma->ChannelIndex = (((uint32_t)hdma->Instance - (uint32_t)DMA1_Channel1) / ((uint32_t)DMA1_Ch
 281              		.loc 1 250 42
 282 004e 7B68     		ldr	r3, [r7, #4]
 283 0050 1B68     		ldr	r3, [r3]
 284              		.loc 1 250 28
 285 0052 1A46     		mov	r2, r3
 286              		.loc 1 250 53
 287 0054 214B     		ldr	r3, .L13+4
 288 0056 1344     		add	r3, r3, r2
 289              		.loc 1 250 80
 290 0058 214A     		ldr	r2, .L13+8
 291 005a A2FB0323 		umull	r2, r3, r2, r3
 292 005e 1B09     		lsrs	r3, r3, #4
 293              		.loc 1 250 135
 294 0060 9A00     		lsls	r2, r3, #2
 295              		.loc 1 250 24
 296 0062 7B68     		ldr	r3, [r7, #4]
 297 0064 1A64     		str	r2, [r3, #64]
 251:Drivers/STM32F1xx_HAL_Driver/Src/stm32f1xx_hal_dma.c ****     hdma->DmaBaseAddress = DMA1;
 298              		.loc 1 251 26
 299 0066 7B68     		ldr	r3, [r7, #4]
 300 0068 1E4A     		ldr	r2, .L13+12
 301 006a DA63     		str	r2, [r3, #60]
 302 006c 0EE0     		b	.L12
 303              	.L11:
 252:Drivers/STM32F1xx_HAL_Driver/Src/stm32f1xx_hal_dma.c ****   }
 253:Drivers/STM32F1xx_HAL_Driver/Src/stm32f1xx_hal_dma.c ****   else
 254:Drivers/STM32F1xx_HAL_Driver/Src/stm32f1xx_hal_dma.c ****   {
 255:Drivers/STM32F1xx_HAL_Driver/Src/stm32f1xx_hal_dma.c ****     /* DMA2 */
 256:Drivers/STM32F1xx_HAL_Driver/Src/stm32f1xx_hal_dma.c ****     hdma->ChannelIndex = (((uint32_t)hdma->Instance - (uint32_t)DMA2_Channel1) / ((uint32_t)DMA2_Ch
 304              		.loc 1 256 42
 305 006e 7B68     		ldr	r3, [r7, #4]
 306 0070 1B68     		ldr	r3, [r3]
 307              		.loc 1 256 28
 308 0072 1A46     		mov	r2, r3
 309              		.loc 1 256 53
 310 0074 1C4B     		ldr	r3, .L13+16
 311 0076 1344     		add	r3, r3, r2
 312              		.loc 1 256 80
 313 0078 194A     		ldr	r2, .L13+8
ARM GAS  /tmp/ccfL2ZiY.s 			page 11


 314 007a A2FB0323 		umull	r2, r3, r2, r3
 315 007e 1B09     		lsrs	r3, r3, #4
 316              		.loc 1 256 135
 317 0080 9A00     		lsls	r2, r3, #2
 318              		.loc 1 256 24
 319 0082 7B68     		ldr	r3, [r7, #4]
 320 0084 1A64     		str	r2, [r3, #64]
 257:Drivers/STM32F1xx_HAL_Driver/Src/stm32f1xx_hal_dma.c ****     hdma->DmaBaseAddress = DMA2;
 321              		.loc 1 257 26
 322 0086 7B68     		ldr	r3, [r7, #4]
 323 0088 184A     		ldr	r2, .L13+20
 324 008a DA63     		str	r2, [r3, #60]
 325              	.L12:
 258:Drivers/STM32F1xx_HAL_Driver/Src/stm32f1xx_hal_dma.c ****   }
 259:Drivers/STM32F1xx_HAL_Driver/Src/stm32f1xx_hal_dma.c **** #else
 260:Drivers/STM32F1xx_HAL_Driver/Src/stm32f1xx_hal_dma.c ****   /* DMA1 */
 261:Drivers/STM32F1xx_HAL_Driver/Src/stm32f1xx_hal_dma.c ****   hdma->ChannelIndex = (((uint32_t)hdma->Instance - (uint32_t)DMA1_Channel1) / ((uint32_t)DMA1_Chan
 262:Drivers/STM32F1xx_HAL_Driver/Src/stm32f1xx_hal_dma.c ****   hdma->DmaBaseAddress = DMA1;
 263:Drivers/STM32F1xx_HAL_Driver/Src/stm32f1xx_hal_dma.c **** #endif /* DMA2 */
 264:Drivers/STM32F1xx_HAL_Driver/Src/stm32f1xx_hal_dma.c **** 
 265:Drivers/STM32F1xx_HAL_Driver/Src/stm32f1xx_hal_dma.c ****   /* Clear all flags */
 266:Drivers/STM32F1xx_HAL_Driver/Src/stm32f1xx_hal_dma.c ****   hdma->DmaBaseAddress->IFCR = (DMA_ISR_GIF1 << (hdma->ChannelIndex));
 326              		.loc 1 266 54
 327 008c 7B68     		ldr	r3, [r7, #4]
 328 008e 1A6C     		ldr	r2, [r3, #64]
 329              		.loc 1 266 7
 330 0090 7B68     		ldr	r3, [r7, #4]
 331 0092 DB6B     		ldr	r3, [r3, #60]
 332              		.loc 1 266 46
 333 0094 0121     		movs	r1, #1
 334 0096 01FA02F2 		lsl	r2, r1, r2
 335              		.loc 1 266 30
 336 009a 5A60     		str	r2, [r3, #4]
 267:Drivers/STM32F1xx_HAL_Driver/Src/stm32f1xx_hal_dma.c **** 
 268:Drivers/STM32F1xx_HAL_Driver/Src/stm32f1xx_hal_dma.c ****   /* Clean all callbacks */
 269:Drivers/STM32F1xx_HAL_Driver/Src/stm32f1xx_hal_dma.c ****   hdma->XferCpltCallback = NULL;
 337              		.loc 1 269 26
 338 009c 7B68     		ldr	r3, [r7, #4]
 339 009e 0022     		movs	r2, #0
 340 00a0 9A62     		str	r2, [r3, #40]
 270:Drivers/STM32F1xx_HAL_Driver/Src/stm32f1xx_hal_dma.c ****   hdma->XferHalfCpltCallback = NULL;
 341              		.loc 1 270 30
 342 00a2 7B68     		ldr	r3, [r7, #4]
 343 00a4 0022     		movs	r2, #0
 344 00a6 DA62     		str	r2, [r3, #44]
 271:Drivers/STM32F1xx_HAL_Driver/Src/stm32f1xx_hal_dma.c ****   hdma->XferErrorCallback = NULL;
 345              		.loc 1 271 27
 346 00a8 7B68     		ldr	r3, [r7, #4]
 347 00aa 0022     		movs	r2, #0
 348 00ac 1A63     		str	r2, [r3, #48]
 272:Drivers/STM32F1xx_HAL_Driver/Src/stm32f1xx_hal_dma.c ****   hdma->XferAbortCallback = NULL;
 349              		.loc 1 272 27
 350 00ae 7B68     		ldr	r3, [r7, #4]
 351 00b0 0022     		movs	r2, #0
 352 00b2 5A63     		str	r2, [r3, #52]
 273:Drivers/STM32F1xx_HAL_Driver/Src/stm32f1xx_hal_dma.c **** 
 274:Drivers/STM32F1xx_HAL_Driver/Src/stm32f1xx_hal_dma.c ****   /* Reset the error code */
ARM GAS  /tmp/ccfL2ZiY.s 			page 12


 275:Drivers/STM32F1xx_HAL_Driver/Src/stm32f1xx_hal_dma.c ****   hdma->ErrorCode = HAL_DMA_ERROR_NONE;
 353              		.loc 1 275 19
 354 00b4 7B68     		ldr	r3, [r7, #4]
 355 00b6 0022     		movs	r2, #0
 356 00b8 9A63     		str	r2, [r3, #56]
 276:Drivers/STM32F1xx_HAL_Driver/Src/stm32f1xx_hal_dma.c **** 
 277:Drivers/STM32F1xx_HAL_Driver/Src/stm32f1xx_hal_dma.c ****   /* Reset the DMA state */
 278:Drivers/STM32F1xx_HAL_Driver/Src/stm32f1xx_hal_dma.c ****   hdma->State = HAL_DMA_STATE_RESET;
 357              		.loc 1 278 15
 358 00ba 7B68     		ldr	r3, [r7, #4]
 359 00bc 0022     		movs	r2, #0
 360 00be 83F82120 		strb	r2, [r3, #33]
 279:Drivers/STM32F1xx_HAL_Driver/Src/stm32f1xx_hal_dma.c **** 
 280:Drivers/STM32F1xx_HAL_Driver/Src/stm32f1xx_hal_dma.c ****   /* Release Lock */
 281:Drivers/STM32F1xx_HAL_Driver/Src/stm32f1xx_hal_dma.c ****   __HAL_UNLOCK(hdma);
 361              		.loc 1 281 3
 362 00c2 7B68     		ldr	r3, [r7, #4]
 363 00c4 0022     		movs	r2, #0
 364 00c6 83F82020 		strb	r2, [r3, #32]
 282:Drivers/STM32F1xx_HAL_Driver/Src/stm32f1xx_hal_dma.c **** 
 283:Drivers/STM32F1xx_HAL_Driver/Src/stm32f1xx_hal_dma.c ****   return HAL_OK;
 365              		.loc 1 283 10
 366 00ca 0023     		movs	r3, #0
 367              	.L10:
 284:Drivers/STM32F1xx_HAL_Driver/Src/stm32f1xx_hal_dma.c **** }
 368              		.loc 1 284 1
 369 00cc 1846     		mov	r0, r3
 370 00ce 0C37     		adds	r7, r7, #12
 371              	.LCFI9:
 372              		.cfi_def_cfa_offset 4
 373 00d0 BD46     		mov	sp, r7
 374              	.LCFI10:
 375              		.cfi_def_cfa_register 13
 376              		@ sp needed
 377 00d2 80BC     		pop	{r7}
 378              	.LCFI11:
 379              		.cfi_restore 7
 380              		.cfi_def_cfa_offset 0
 381 00d4 7047     		bx	lr
 382              	.L14:
 383 00d6 00BF     		.align	2
 384              	.L13:
 385 00d8 07040240 		.word	1073873927
 386 00dc F8FFFDBF 		.word	-1073872904
 387 00e0 CDCCCCCC 		.word	-858993459
 388 00e4 00000240 		.word	1073872896
 389 00e8 F8FBFDBF 		.word	-1073873928
 390 00ec 00040240 		.word	1073873920
 391              		.cfi_endproc
 392              	.LFE66:
 394              		.section	.text.HAL_DMA_Start,"ax",%progbits
 395              		.align	1
 396              		.global	HAL_DMA_Start
 397              		.syntax unified
 398              		.thumb
 399              		.thumb_func
 401              	HAL_DMA_Start:
ARM GAS  /tmp/ccfL2ZiY.s 			page 13


 402              	.LFB67:
 285:Drivers/STM32F1xx_HAL_Driver/Src/stm32f1xx_hal_dma.c **** 
 286:Drivers/STM32F1xx_HAL_Driver/Src/stm32f1xx_hal_dma.c **** /**
 287:Drivers/STM32F1xx_HAL_Driver/Src/stm32f1xx_hal_dma.c ****   * @}
 288:Drivers/STM32F1xx_HAL_Driver/Src/stm32f1xx_hal_dma.c ****   */
 289:Drivers/STM32F1xx_HAL_Driver/Src/stm32f1xx_hal_dma.c **** 
 290:Drivers/STM32F1xx_HAL_Driver/Src/stm32f1xx_hal_dma.c **** /** @defgroup DMA_Exported_Functions_Group2 Input and Output operation functions
 291:Drivers/STM32F1xx_HAL_Driver/Src/stm32f1xx_hal_dma.c ****   *  @brief   Input and Output operation functions
 292:Drivers/STM32F1xx_HAL_Driver/Src/stm32f1xx_hal_dma.c ****   *
 293:Drivers/STM32F1xx_HAL_Driver/Src/stm32f1xx_hal_dma.c **** @verbatim
 294:Drivers/STM32F1xx_HAL_Driver/Src/stm32f1xx_hal_dma.c ****  ===============================================================================
 295:Drivers/STM32F1xx_HAL_Driver/Src/stm32f1xx_hal_dma.c ****                       #####  IO operation functions  #####
 296:Drivers/STM32F1xx_HAL_Driver/Src/stm32f1xx_hal_dma.c ****  ===============================================================================
 297:Drivers/STM32F1xx_HAL_Driver/Src/stm32f1xx_hal_dma.c ****     [..]  This section provides functions allowing to:
 298:Drivers/STM32F1xx_HAL_Driver/Src/stm32f1xx_hal_dma.c ****       (+) Configure the source, destination address and data length and Start DMA transfer
 299:Drivers/STM32F1xx_HAL_Driver/Src/stm32f1xx_hal_dma.c ****       (+) Configure the source, destination address and data length and
 300:Drivers/STM32F1xx_HAL_Driver/Src/stm32f1xx_hal_dma.c ****           Start DMA transfer with interrupt
 301:Drivers/STM32F1xx_HAL_Driver/Src/stm32f1xx_hal_dma.c ****       (+) Abort DMA transfer
 302:Drivers/STM32F1xx_HAL_Driver/Src/stm32f1xx_hal_dma.c ****       (+) Poll for transfer complete
 303:Drivers/STM32F1xx_HAL_Driver/Src/stm32f1xx_hal_dma.c ****       (+) Handle DMA interrupt request
 304:Drivers/STM32F1xx_HAL_Driver/Src/stm32f1xx_hal_dma.c **** 
 305:Drivers/STM32F1xx_HAL_Driver/Src/stm32f1xx_hal_dma.c **** @endverbatim
 306:Drivers/STM32F1xx_HAL_Driver/Src/stm32f1xx_hal_dma.c ****   * @{
 307:Drivers/STM32F1xx_HAL_Driver/Src/stm32f1xx_hal_dma.c ****   */
 308:Drivers/STM32F1xx_HAL_Driver/Src/stm32f1xx_hal_dma.c **** 
 309:Drivers/STM32F1xx_HAL_Driver/Src/stm32f1xx_hal_dma.c **** /**
 310:Drivers/STM32F1xx_HAL_Driver/Src/stm32f1xx_hal_dma.c ****   * @brief  Start the DMA Transfer.
 311:Drivers/STM32F1xx_HAL_Driver/Src/stm32f1xx_hal_dma.c ****   * @param  hdma: pointer to a DMA_HandleTypeDef structure that contains
 312:Drivers/STM32F1xx_HAL_Driver/Src/stm32f1xx_hal_dma.c ****   *               the configuration information for the specified DMA Channel.
 313:Drivers/STM32F1xx_HAL_Driver/Src/stm32f1xx_hal_dma.c ****   * @param  SrcAddress: The source memory Buffer address
 314:Drivers/STM32F1xx_HAL_Driver/Src/stm32f1xx_hal_dma.c ****   * @param  DstAddress: The destination memory Buffer address
 315:Drivers/STM32F1xx_HAL_Driver/Src/stm32f1xx_hal_dma.c ****   * @param  DataLength: The length of data to be transferred from source to destination
 316:Drivers/STM32F1xx_HAL_Driver/Src/stm32f1xx_hal_dma.c ****   * @retval HAL status
 317:Drivers/STM32F1xx_HAL_Driver/Src/stm32f1xx_hal_dma.c ****   */
 318:Drivers/STM32F1xx_HAL_Driver/Src/stm32f1xx_hal_dma.c **** HAL_StatusTypeDef HAL_DMA_Start(DMA_HandleTypeDef *hdma, uint32_t SrcAddress, uint32_t DstAddress, 
 319:Drivers/STM32F1xx_HAL_Driver/Src/stm32f1xx_hal_dma.c **** {
 403              		.loc 1 319 1
 404              		.cfi_startproc
 405              		@ args = 0, pretend = 0, frame = 24
 406              		@ frame_needed = 1, uses_anonymous_args = 0
 407 0000 80B5     		push	{r7, lr}
 408              	.LCFI12:
 409              		.cfi_def_cfa_offset 8
 410              		.cfi_offset 7, -8
 411              		.cfi_offset 14, -4
 412 0002 86B0     		sub	sp, sp, #24
 413              	.LCFI13:
 414              		.cfi_def_cfa_offset 32
 415 0004 00AF     		add	r7, sp, #0
 416              	.LCFI14:
 417              		.cfi_def_cfa_register 7
 418 0006 F860     		str	r0, [r7, #12]
 419 0008 B960     		str	r1, [r7, #8]
 420 000a 7A60     		str	r2, [r7, #4]
 421 000c 3B60     		str	r3, [r7]
 320:Drivers/STM32F1xx_HAL_Driver/Src/stm32f1xx_hal_dma.c ****   HAL_StatusTypeDef status = HAL_OK;
 422              		.loc 1 320 21
ARM GAS  /tmp/ccfL2ZiY.s 			page 14


 423 000e 0023     		movs	r3, #0
 424 0010 FB75     		strb	r3, [r7, #23]
 321:Drivers/STM32F1xx_HAL_Driver/Src/stm32f1xx_hal_dma.c **** 
 322:Drivers/STM32F1xx_HAL_Driver/Src/stm32f1xx_hal_dma.c ****   /* Check the parameters */
 323:Drivers/STM32F1xx_HAL_Driver/Src/stm32f1xx_hal_dma.c ****   assert_param(IS_DMA_BUFFER_SIZE(DataLength));
 324:Drivers/STM32F1xx_HAL_Driver/Src/stm32f1xx_hal_dma.c **** 
 325:Drivers/STM32F1xx_HAL_Driver/Src/stm32f1xx_hal_dma.c ****   /* Process locked */
 326:Drivers/STM32F1xx_HAL_Driver/Src/stm32f1xx_hal_dma.c ****   __HAL_LOCK(hdma);
 425              		.loc 1 326 3
 426 0012 FB68     		ldr	r3, [r7, #12]
 427 0014 93F82030 		ldrb	r3, [r3, #32]	@ zero_extendqisi2
 428 0018 012B     		cmp	r3, #1
 429 001a 01D1     		bne	.L16
 430              		.loc 1 326 3 is_stmt 0 discriminator 1
 431 001c 0223     		movs	r3, #2
 432 001e 2EE0     		b	.L17
 433              	.L16:
 434              		.loc 1 326 3 discriminator 2
 435 0020 FB68     		ldr	r3, [r7, #12]
 436 0022 0122     		movs	r2, #1
 437 0024 83F82020 		strb	r2, [r3, #32]
 327:Drivers/STM32F1xx_HAL_Driver/Src/stm32f1xx_hal_dma.c **** 
 328:Drivers/STM32F1xx_HAL_Driver/Src/stm32f1xx_hal_dma.c ****   if(HAL_DMA_STATE_READY == hdma->State)
 438              		.loc 1 328 33 is_stmt 1 discriminator 2
 439 0028 FB68     		ldr	r3, [r7, #12]
 440 002a 93F82130 		ldrb	r3, [r3, #33]
 441 002e DBB2     		uxtb	r3, r3
 442              		.loc 1 328 5 discriminator 2
 443 0030 012B     		cmp	r3, #1
 444 0032 1DD1     		bne	.L18
 329:Drivers/STM32F1xx_HAL_Driver/Src/stm32f1xx_hal_dma.c ****   {
 330:Drivers/STM32F1xx_HAL_Driver/Src/stm32f1xx_hal_dma.c ****     /* Change DMA peripheral state */
 331:Drivers/STM32F1xx_HAL_Driver/Src/stm32f1xx_hal_dma.c ****     hdma->State = HAL_DMA_STATE_BUSY;
 445              		.loc 1 331 17
 446 0034 FB68     		ldr	r3, [r7, #12]
 447 0036 0222     		movs	r2, #2
 448 0038 83F82120 		strb	r2, [r3, #33]
 332:Drivers/STM32F1xx_HAL_Driver/Src/stm32f1xx_hal_dma.c ****     hdma->ErrorCode = HAL_DMA_ERROR_NONE;
 449              		.loc 1 332 21
 450 003c FB68     		ldr	r3, [r7, #12]
 451 003e 0022     		movs	r2, #0
 452 0040 9A63     		str	r2, [r3, #56]
 333:Drivers/STM32F1xx_HAL_Driver/Src/stm32f1xx_hal_dma.c ****             
 334:Drivers/STM32F1xx_HAL_Driver/Src/stm32f1xx_hal_dma.c ****     /* Disable the peripheral */
 335:Drivers/STM32F1xx_HAL_Driver/Src/stm32f1xx_hal_dma.c ****     __HAL_DMA_DISABLE(hdma);
 453              		.loc 1 335 5
 454 0042 FB68     		ldr	r3, [r7, #12]
 455 0044 1B68     		ldr	r3, [r3]
 456 0046 1A68     		ldr	r2, [r3]
 457 0048 FB68     		ldr	r3, [r7, #12]
 458 004a 1B68     		ldr	r3, [r3]
 459 004c 22F00102 		bic	r2, r2, #1
 460 0050 1A60     		str	r2, [r3]
 336:Drivers/STM32F1xx_HAL_Driver/Src/stm32f1xx_hal_dma.c ****     
 337:Drivers/STM32F1xx_HAL_Driver/Src/stm32f1xx_hal_dma.c ****     /* Configure the source, destination address and the data length & clear flags*/
 338:Drivers/STM32F1xx_HAL_Driver/Src/stm32f1xx_hal_dma.c ****     DMA_SetConfig(hdma, SrcAddress, DstAddress, DataLength);
 461              		.loc 1 338 5
ARM GAS  /tmp/ccfL2ZiY.s 			page 15


 462 0052 3B68     		ldr	r3, [r7]
 463 0054 7A68     		ldr	r2, [r7, #4]
 464 0056 B968     		ldr	r1, [r7, #8]
 465 0058 F868     		ldr	r0, [r7, #12]
 466 005a FFF7FEFF 		bl	DMA_SetConfig
 339:Drivers/STM32F1xx_HAL_Driver/Src/stm32f1xx_hal_dma.c ****     
 340:Drivers/STM32F1xx_HAL_Driver/Src/stm32f1xx_hal_dma.c ****     /* Enable the Peripheral */
 341:Drivers/STM32F1xx_HAL_Driver/Src/stm32f1xx_hal_dma.c ****     __HAL_DMA_ENABLE(hdma);
 467              		.loc 1 341 5
 468 005e FB68     		ldr	r3, [r7, #12]
 469 0060 1B68     		ldr	r3, [r3]
 470 0062 1A68     		ldr	r2, [r3]
 471 0064 FB68     		ldr	r3, [r7, #12]
 472 0066 1B68     		ldr	r3, [r3]
 473 0068 42F00102 		orr	r2, r2, #1
 474 006c 1A60     		str	r2, [r3]
 475 006e 05E0     		b	.L19
 476              	.L18:
 342:Drivers/STM32F1xx_HAL_Driver/Src/stm32f1xx_hal_dma.c ****   }
 343:Drivers/STM32F1xx_HAL_Driver/Src/stm32f1xx_hal_dma.c ****   else
 344:Drivers/STM32F1xx_HAL_Driver/Src/stm32f1xx_hal_dma.c ****   {
 345:Drivers/STM32F1xx_HAL_Driver/Src/stm32f1xx_hal_dma.c ****    /* Process Unlocked */
 346:Drivers/STM32F1xx_HAL_Driver/Src/stm32f1xx_hal_dma.c ****    __HAL_UNLOCK(hdma);  
 477              		.loc 1 346 4
 478 0070 FB68     		ldr	r3, [r7, #12]
 479 0072 0022     		movs	r2, #0
 480 0074 83F82020 		strb	r2, [r3, #32]
 347:Drivers/STM32F1xx_HAL_Driver/Src/stm32f1xx_hal_dma.c ****    status = HAL_BUSY;
 481              		.loc 1 347 11
 482 0078 0223     		movs	r3, #2
 483 007a FB75     		strb	r3, [r7, #23]
 484              	.L19:
 348:Drivers/STM32F1xx_HAL_Driver/Src/stm32f1xx_hal_dma.c ****   }  
 349:Drivers/STM32F1xx_HAL_Driver/Src/stm32f1xx_hal_dma.c ****   return status;
 485              		.loc 1 349 10
 486 007c FB7D     		ldrb	r3, [r7, #23]	@ zero_extendqisi2
 487              	.L17:
 350:Drivers/STM32F1xx_HAL_Driver/Src/stm32f1xx_hal_dma.c **** }
 488              		.loc 1 350 1
 489 007e 1846     		mov	r0, r3
 490 0080 1837     		adds	r7, r7, #24
 491              	.LCFI15:
 492              		.cfi_def_cfa_offset 8
 493 0082 BD46     		mov	sp, r7
 494              	.LCFI16:
 495              		.cfi_def_cfa_register 13
 496              		@ sp needed
 497 0084 80BD     		pop	{r7, pc}
 498              		.cfi_endproc
 499              	.LFE67:
 501              		.section	.text.HAL_DMA_Start_IT,"ax",%progbits
 502              		.align	1
 503              		.global	HAL_DMA_Start_IT
 504              		.syntax unified
 505              		.thumb
 506              		.thumb_func
 508              	HAL_DMA_Start_IT:
ARM GAS  /tmp/ccfL2ZiY.s 			page 16


 509              	.LFB68:
 351:Drivers/STM32F1xx_HAL_Driver/Src/stm32f1xx_hal_dma.c **** 
 352:Drivers/STM32F1xx_HAL_Driver/Src/stm32f1xx_hal_dma.c **** /**
 353:Drivers/STM32F1xx_HAL_Driver/Src/stm32f1xx_hal_dma.c ****   * @brief  Start the DMA Transfer with interrupt enabled.
 354:Drivers/STM32F1xx_HAL_Driver/Src/stm32f1xx_hal_dma.c ****   * @param  hdma: pointer to a DMA_HandleTypeDef structure that contains
 355:Drivers/STM32F1xx_HAL_Driver/Src/stm32f1xx_hal_dma.c ****   *               the configuration information for the specified DMA Channel.
 356:Drivers/STM32F1xx_HAL_Driver/Src/stm32f1xx_hal_dma.c ****   * @param  SrcAddress: The source memory Buffer address
 357:Drivers/STM32F1xx_HAL_Driver/Src/stm32f1xx_hal_dma.c ****   * @param  DstAddress: The destination memory Buffer address
 358:Drivers/STM32F1xx_HAL_Driver/Src/stm32f1xx_hal_dma.c ****   * @param  DataLength: The length of data to be transferred from source to destination
 359:Drivers/STM32F1xx_HAL_Driver/Src/stm32f1xx_hal_dma.c ****   * @retval HAL status
 360:Drivers/STM32F1xx_HAL_Driver/Src/stm32f1xx_hal_dma.c ****   */
 361:Drivers/STM32F1xx_HAL_Driver/Src/stm32f1xx_hal_dma.c **** HAL_StatusTypeDef HAL_DMA_Start_IT(DMA_HandleTypeDef *hdma, uint32_t SrcAddress, uint32_t DstAddres
 362:Drivers/STM32F1xx_HAL_Driver/Src/stm32f1xx_hal_dma.c **** {
 510              		.loc 1 362 1
 511              		.cfi_startproc
 512              		@ args = 0, pretend = 0, frame = 24
 513              		@ frame_needed = 1, uses_anonymous_args = 0
 514 0000 80B5     		push	{r7, lr}
 515              	.LCFI17:
 516              		.cfi_def_cfa_offset 8
 517              		.cfi_offset 7, -8
 518              		.cfi_offset 14, -4
 519 0002 86B0     		sub	sp, sp, #24
 520              	.LCFI18:
 521              		.cfi_def_cfa_offset 32
 522 0004 00AF     		add	r7, sp, #0
 523              	.LCFI19:
 524              		.cfi_def_cfa_register 7
 525 0006 F860     		str	r0, [r7, #12]
 526 0008 B960     		str	r1, [r7, #8]
 527 000a 7A60     		str	r2, [r7, #4]
 528 000c 3B60     		str	r3, [r7]
 363:Drivers/STM32F1xx_HAL_Driver/Src/stm32f1xx_hal_dma.c ****   HAL_StatusTypeDef status = HAL_OK;
 529              		.loc 1 363 21
 530 000e 0023     		movs	r3, #0
 531 0010 FB75     		strb	r3, [r7, #23]
 364:Drivers/STM32F1xx_HAL_Driver/Src/stm32f1xx_hal_dma.c **** 
 365:Drivers/STM32F1xx_HAL_Driver/Src/stm32f1xx_hal_dma.c ****   /* Check the parameters */
 366:Drivers/STM32F1xx_HAL_Driver/Src/stm32f1xx_hal_dma.c ****   assert_param(IS_DMA_BUFFER_SIZE(DataLength));
 367:Drivers/STM32F1xx_HAL_Driver/Src/stm32f1xx_hal_dma.c **** 
 368:Drivers/STM32F1xx_HAL_Driver/Src/stm32f1xx_hal_dma.c ****   /* Process locked */
 369:Drivers/STM32F1xx_HAL_Driver/Src/stm32f1xx_hal_dma.c ****   __HAL_LOCK(hdma);
 532              		.loc 1 369 3
 533 0012 FB68     		ldr	r3, [r7, #12]
 534 0014 93F82030 		ldrb	r3, [r3, #32]	@ zero_extendqisi2
 535 0018 012B     		cmp	r3, #1
 536 001a 01D1     		bne	.L21
 537              		.loc 1 369 3 is_stmt 0 discriminator 1
 538 001c 0223     		movs	r3, #2
 539 001e 4BE0     		b	.L22
 540              	.L21:
 541              		.loc 1 369 3 discriminator 2
 542 0020 FB68     		ldr	r3, [r7, #12]
 543 0022 0122     		movs	r2, #1
 544 0024 83F82020 		strb	r2, [r3, #32]
 370:Drivers/STM32F1xx_HAL_Driver/Src/stm32f1xx_hal_dma.c ****   
 371:Drivers/STM32F1xx_HAL_Driver/Src/stm32f1xx_hal_dma.c ****   if(HAL_DMA_STATE_READY == hdma->State)
ARM GAS  /tmp/ccfL2ZiY.s 			page 17


 545              		.loc 1 371 33 is_stmt 1 discriminator 2
 546 0028 FB68     		ldr	r3, [r7, #12]
 547 002a 93F82130 		ldrb	r3, [r3, #33]
 548 002e DBB2     		uxtb	r3, r3
 549              		.loc 1 371 5 discriminator 2
 550 0030 012B     		cmp	r3, #1
 551 0032 3AD1     		bne	.L23
 372:Drivers/STM32F1xx_HAL_Driver/Src/stm32f1xx_hal_dma.c ****   {
 373:Drivers/STM32F1xx_HAL_Driver/Src/stm32f1xx_hal_dma.c ****     /* Change DMA peripheral state */
 374:Drivers/STM32F1xx_HAL_Driver/Src/stm32f1xx_hal_dma.c ****     hdma->State = HAL_DMA_STATE_BUSY;
 552              		.loc 1 374 17
 553 0034 FB68     		ldr	r3, [r7, #12]
 554 0036 0222     		movs	r2, #2
 555 0038 83F82120 		strb	r2, [r3, #33]
 375:Drivers/STM32F1xx_HAL_Driver/Src/stm32f1xx_hal_dma.c ****     hdma->ErrorCode = HAL_DMA_ERROR_NONE;
 556              		.loc 1 375 21
 557 003c FB68     		ldr	r3, [r7, #12]
 558 003e 0022     		movs	r2, #0
 559 0040 9A63     		str	r2, [r3, #56]
 376:Drivers/STM32F1xx_HAL_Driver/Src/stm32f1xx_hal_dma.c ****     
 377:Drivers/STM32F1xx_HAL_Driver/Src/stm32f1xx_hal_dma.c ****     /* Disable the peripheral */
 378:Drivers/STM32F1xx_HAL_Driver/Src/stm32f1xx_hal_dma.c ****     __HAL_DMA_DISABLE(hdma);
 560              		.loc 1 378 5
 561 0042 FB68     		ldr	r3, [r7, #12]
 562 0044 1B68     		ldr	r3, [r3]
 563 0046 1A68     		ldr	r2, [r3]
 564 0048 FB68     		ldr	r3, [r7, #12]
 565 004a 1B68     		ldr	r3, [r3]
 566 004c 22F00102 		bic	r2, r2, #1
 567 0050 1A60     		str	r2, [r3]
 379:Drivers/STM32F1xx_HAL_Driver/Src/stm32f1xx_hal_dma.c ****     
 380:Drivers/STM32F1xx_HAL_Driver/Src/stm32f1xx_hal_dma.c ****     /* Configure the source, destination address and the data length & clear flags*/
 381:Drivers/STM32F1xx_HAL_Driver/Src/stm32f1xx_hal_dma.c ****     DMA_SetConfig(hdma, SrcAddress, DstAddress, DataLength);
 568              		.loc 1 381 5
 569 0052 3B68     		ldr	r3, [r7]
 570 0054 7A68     		ldr	r2, [r7, #4]
 571 0056 B968     		ldr	r1, [r7, #8]
 572 0058 F868     		ldr	r0, [r7, #12]
 573 005a FFF7FEFF 		bl	DMA_SetConfig
 382:Drivers/STM32F1xx_HAL_Driver/Src/stm32f1xx_hal_dma.c ****     
 383:Drivers/STM32F1xx_HAL_Driver/Src/stm32f1xx_hal_dma.c ****     /* Enable the transfer complete interrupt */
 384:Drivers/STM32F1xx_HAL_Driver/Src/stm32f1xx_hal_dma.c ****     /* Enable the transfer Error interrupt */
 385:Drivers/STM32F1xx_HAL_Driver/Src/stm32f1xx_hal_dma.c ****     if(NULL != hdma->XferHalfCpltCallback)
 574              		.loc 1 385 20
 575 005e FB68     		ldr	r3, [r7, #12]
 576 0060 DB6A     		ldr	r3, [r3, #44]
 577              		.loc 1 385 7
 578 0062 002B     		cmp	r3, #0
 579 0064 08D0     		beq	.L24
 386:Drivers/STM32F1xx_HAL_Driver/Src/stm32f1xx_hal_dma.c ****     {
 387:Drivers/STM32F1xx_HAL_Driver/Src/stm32f1xx_hal_dma.c ****       /* Enable the Half transfer complete interrupt as well */
 388:Drivers/STM32F1xx_HAL_Driver/Src/stm32f1xx_hal_dma.c ****       __HAL_DMA_ENABLE_IT(hdma, (DMA_IT_TC | DMA_IT_HT | DMA_IT_TE));
 580              		.loc 1 388 7
 581 0066 FB68     		ldr	r3, [r7, #12]
 582 0068 1B68     		ldr	r3, [r3]
 583 006a 1A68     		ldr	r2, [r3]
 584 006c FB68     		ldr	r3, [r7, #12]
ARM GAS  /tmp/ccfL2ZiY.s 			page 18


 585 006e 1B68     		ldr	r3, [r3]
 586 0070 42F00E02 		orr	r2, r2, #14
 587 0074 1A60     		str	r2, [r3]
 588 0076 0FE0     		b	.L25
 589              	.L24:
 389:Drivers/STM32F1xx_HAL_Driver/Src/stm32f1xx_hal_dma.c ****     }
 390:Drivers/STM32F1xx_HAL_Driver/Src/stm32f1xx_hal_dma.c ****     else
 391:Drivers/STM32F1xx_HAL_Driver/Src/stm32f1xx_hal_dma.c ****     {
 392:Drivers/STM32F1xx_HAL_Driver/Src/stm32f1xx_hal_dma.c ****       __HAL_DMA_DISABLE_IT(hdma, DMA_IT_HT);
 590              		.loc 1 392 7
 591 0078 FB68     		ldr	r3, [r7, #12]
 592 007a 1B68     		ldr	r3, [r3]
 593 007c 1A68     		ldr	r2, [r3]
 594 007e FB68     		ldr	r3, [r7, #12]
 595 0080 1B68     		ldr	r3, [r3]
 596 0082 22F00402 		bic	r2, r2, #4
 597 0086 1A60     		str	r2, [r3]
 393:Drivers/STM32F1xx_HAL_Driver/Src/stm32f1xx_hal_dma.c ****       __HAL_DMA_ENABLE_IT(hdma, (DMA_IT_TC | DMA_IT_TE));
 598              		.loc 1 393 7
 599 0088 FB68     		ldr	r3, [r7, #12]
 600 008a 1B68     		ldr	r3, [r3]
 601 008c 1A68     		ldr	r2, [r3]
 602 008e FB68     		ldr	r3, [r7, #12]
 603 0090 1B68     		ldr	r3, [r3]
 604 0092 42F00A02 		orr	r2, r2, #10
 605 0096 1A60     		str	r2, [r3]
 606              	.L25:
 394:Drivers/STM32F1xx_HAL_Driver/Src/stm32f1xx_hal_dma.c ****     }
 395:Drivers/STM32F1xx_HAL_Driver/Src/stm32f1xx_hal_dma.c ****     /* Enable the Peripheral */
 396:Drivers/STM32F1xx_HAL_Driver/Src/stm32f1xx_hal_dma.c ****     __HAL_DMA_ENABLE(hdma);
 607              		.loc 1 396 5
 608 0098 FB68     		ldr	r3, [r7, #12]
 609 009a 1B68     		ldr	r3, [r3]
 610 009c 1A68     		ldr	r2, [r3]
 611 009e FB68     		ldr	r3, [r7, #12]
 612 00a0 1B68     		ldr	r3, [r3]
 613 00a2 42F00102 		orr	r2, r2, #1
 614 00a6 1A60     		str	r2, [r3]
 615 00a8 05E0     		b	.L26
 616              	.L23:
 397:Drivers/STM32F1xx_HAL_Driver/Src/stm32f1xx_hal_dma.c ****   }
 398:Drivers/STM32F1xx_HAL_Driver/Src/stm32f1xx_hal_dma.c ****   else
 399:Drivers/STM32F1xx_HAL_Driver/Src/stm32f1xx_hal_dma.c ****   {      
 400:Drivers/STM32F1xx_HAL_Driver/Src/stm32f1xx_hal_dma.c ****     /* Process Unlocked */
 401:Drivers/STM32F1xx_HAL_Driver/Src/stm32f1xx_hal_dma.c ****     __HAL_UNLOCK(hdma); 
 617              		.loc 1 401 5
 618 00aa FB68     		ldr	r3, [r7, #12]
 619 00ac 0022     		movs	r2, #0
 620 00ae 83F82020 		strb	r2, [r3, #32]
 402:Drivers/STM32F1xx_HAL_Driver/Src/stm32f1xx_hal_dma.c **** 
 403:Drivers/STM32F1xx_HAL_Driver/Src/stm32f1xx_hal_dma.c ****     /* Remain BUSY */
 404:Drivers/STM32F1xx_HAL_Driver/Src/stm32f1xx_hal_dma.c ****     status = HAL_BUSY;
 621              		.loc 1 404 12
 622 00b2 0223     		movs	r3, #2
 623 00b4 FB75     		strb	r3, [r7, #23]
 624              	.L26:
 405:Drivers/STM32F1xx_HAL_Driver/Src/stm32f1xx_hal_dma.c ****   }    
ARM GAS  /tmp/ccfL2ZiY.s 			page 19


 406:Drivers/STM32F1xx_HAL_Driver/Src/stm32f1xx_hal_dma.c ****   return status;
 625              		.loc 1 406 10
 626 00b6 FB7D     		ldrb	r3, [r7, #23]	@ zero_extendqisi2
 627              	.L22:
 407:Drivers/STM32F1xx_HAL_Driver/Src/stm32f1xx_hal_dma.c **** }
 628              		.loc 1 407 1
 629 00b8 1846     		mov	r0, r3
 630 00ba 1837     		adds	r7, r7, #24
 631              	.LCFI20:
 632              		.cfi_def_cfa_offset 8
 633 00bc BD46     		mov	sp, r7
 634              	.LCFI21:
 635              		.cfi_def_cfa_register 13
 636              		@ sp needed
 637 00be 80BD     		pop	{r7, pc}
 638              		.cfi_endproc
 639              	.LFE68:
 641              		.section	.text.HAL_DMA_Abort,"ax",%progbits
 642              		.align	1
 643              		.global	HAL_DMA_Abort
 644              		.syntax unified
 645              		.thumb
 646              		.thumb_func
 648              	HAL_DMA_Abort:
 649              	.LFB69:
 408:Drivers/STM32F1xx_HAL_Driver/Src/stm32f1xx_hal_dma.c **** 
 409:Drivers/STM32F1xx_HAL_Driver/Src/stm32f1xx_hal_dma.c **** /**
 410:Drivers/STM32F1xx_HAL_Driver/Src/stm32f1xx_hal_dma.c ****   * @brief  Abort the DMA Transfer.
 411:Drivers/STM32F1xx_HAL_Driver/Src/stm32f1xx_hal_dma.c ****   * @param  hdma: pointer to a DMA_HandleTypeDef structure that contains
 412:Drivers/STM32F1xx_HAL_Driver/Src/stm32f1xx_hal_dma.c ****   *               the configuration information for the specified DMA Channel.
 413:Drivers/STM32F1xx_HAL_Driver/Src/stm32f1xx_hal_dma.c ****   * @retval HAL status
 414:Drivers/STM32F1xx_HAL_Driver/Src/stm32f1xx_hal_dma.c ****   */
 415:Drivers/STM32F1xx_HAL_Driver/Src/stm32f1xx_hal_dma.c **** HAL_StatusTypeDef HAL_DMA_Abort(DMA_HandleTypeDef *hdma)
 416:Drivers/STM32F1xx_HAL_Driver/Src/stm32f1xx_hal_dma.c **** {
 650              		.loc 1 416 1
 651              		.cfi_startproc
 652              		@ args = 0, pretend = 0, frame = 16
 653              		@ frame_needed = 1, uses_anonymous_args = 0
 654              		@ link register save eliminated.
 655 0000 80B4     		push	{r7}
 656              	.LCFI22:
 657              		.cfi_def_cfa_offset 4
 658              		.cfi_offset 7, -4
 659 0002 85B0     		sub	sp, sp, #20
 660              	.LCFI23:
 661              		.cfi_def_cfa_offset 24
 662 0004 00AF     		add	r7, sp, #0
 663              	.LCFI24:
 664              		.cfi_def_cfa_register 7
 665 0006 7860     		str	r0, [r7, #4]
 417:Drivers/STM32F1xx_HAL_Driver/Src/stm32f1xx_hal_dma.c ****   HAL_StatusTypeDef status = HAL_OK;
 666              		.loc 1 417 21
 667 0008 0023     		movs	r3, #0
 668 000a FB73     		strb	r3, [r7, #15]
 418:Drivers/STM32F1xx_HAL_Driver/Src/stm32f1xx_hal_dma.c ****   
 419:Drivers/STM32F1xx_HAL_Driver/Src/stm32f1xx_hal_dma.c ****   if(hdma->State != HAL_DMA_STATE_BUSY)
 669              		.loc 1 419 10
ARM GAS  /tmp/ccfL2ZiY.s 			page 20


 670 000c 7B68     		ldr	r3, [r7, #4]
 671 000e 93F82130 		ldrb	r3, [r3, #33]
 672 0012 DBB2     		uxtb	r3, r3
 673              		.loc 1 419 5
 674 0014 022B     		cmp	r3, #2
 675 0016 08D0     		beq	.L28
 420:Drivers/STM32F1xx_HAL_Driver/Src/stm32f1xx_hal_dma.c ****   {
 421:Drivers/STM32F1xx_HAL_Driver/Src/stm32f1xx_hal_dma.c ****     /* no transfer ongoing */
 422:Drivers/STM32F1xx_HAL_Driver/Src/stm32f1xx_hal_dma.c ****     hdma->ErrorCode = HAL_DMA_ERROR_NO_XFER;
 676              		.loc 1 422 21
 677 0018 7B68     		ldr	r3, [r7, #4]
 678 001a 0422     		movs	r2, #4
 679 001c 9A63     		str	r2, [r3, #56]
 423:Drivers/STM32F1xx_HAL_Driver/Src/stm32f1xx_hal_dma.c ****     
 424:Drivers/STM32F1xx_HAL_Driver/Src/stm32f1xx_hal_dma.c ****     /* Process Unlocked */
 425:Drivers/STM32F1xx_HAL_Driver/Src/stm32f1xx_hal_dma.c ****     __HAL_UNLOCK(hdma);
 680              		.loc 1 425 5
 681 001e 7B68     		ldr	r3, [r7, #4]
 682 0020 0022     		movs	r2, #0
 683 0022 83F82020 		strb	r2, [r3, #32]
 426:Drivers/STM32F1xx_HAL_Driver/Src/stm32f1xx_hal_dma.c ****     
 427:Drivers/STM32F1xx_HAL_Driver/Src/stm32f1xx_hal_dma.c ****     return HAL_ERROR;
 684              		.loc 1 427 12
 685 0026 0123     		movs	r3, #1
 686 0028 20E0     		b	.L29
 687              	.L28:
 428:Drivers/STM32F1xx_HAL_Driver/Src/stm32f1xx_hal_dma.c ****   }
 429:Drivers/STM32F1xx_HAL_Driver/Src/stm32f1xx_hal_dma.c ****   else
 430:Drivers/STM32F1xx_HAL_Driver/Src/stm32f1xx_hal_dma.c **** 
 431:Drivers/STM32F1xx_HAL_Driver/Src/stm32f1xx_hal_dma.c ****   {
 432:Drivers/STM32F1xx_HAL_Driver/Src/stm32f1xx_hal_dma.c ****     /* Disable DMA IT */
 433:Drivers/STM32F1xx_HAL_Driver/Src/stm32f1xx_hal_dma.c ****     __HAL_DMA_DISABLE_IT(hdma, (DMA_IT_TC | DMA_IT_HT | DMA_IT_TE));
 688              		.loc 1 433 5
 689 002a 7B68     		ldr	r3, [r7, #4]
 690 002c 1B68     		ldr	r3, [r3]
 691 002e 1A68     		ldr	r2, [r3]
 692 0030 7B68     		ldr	r3, [r7, #4]
 693 0032 1B68     		ldr	r3, [r3]
 694 0034 22F00E02 		bic	r2, r2, #14
 695 0038 1A60     		str	r2, [r3]
 434:Drivers/STM32F1xx_HAL_Driver/Src/stm32f1xx_hal_dma.c ****       
 435:Drivers/STM32F1xx_HAL_Driver/Src/stm32f1xx_hal_dma.c ****     /* Disable the channel */
 436:Drivers/STM32F1xx_HAL_Driver/Src/stm32f1xx_hal_dma.c ****     __HAL_DMA_DISABLE(hdma);
 696              		.loc 1 436 5
 697 003a 7B68     		ldr	r3, [r7, #4]
 698 003c 1B68     		ldr	r3, [r3]
 699 003e 1A68     		ldr	r2, [r3]
 700 0040 7B68     		ldr	r3, [r7, #4]
 701 0042 1B68     		ldr	r3, [r3]
 702 0044 22F00102 		bic	r2, r2, #1
 703 0048 1A60     		str	r2, [r3]
 437:Drivers/STM32F1xx_HAL_Driver/Src/stm32f1xx_hal_dma.c ****       
 438:Drivers/STM32F1xx_HAL_Driver/Src/stm32f1xx_hal_dma.c ****     /* Clear all flags */
 439:Drivers/STM32F1xx_HAL_Driver/Src/stm32f1xx_hal_dma.c ****     hdma->DmaBaseAddress->IFCR = (DMA_ISR_GIF1 << hdma->ChannelIndex);
 704              		.loc 1 439 55
 705 004a 7B68     		ldr	r3, [r7, #4]
 706 004c 1A6C     		ldr	r2, [r3, #64]
ARM GAS  /tmp/ccfL2ZiY.s 			page 21


 707              		.loc 1 439 9
 708 004e 7B68     		ldr	r3, [r7, #4]
 709 0050 DB6B     		ldr	r3, [r3, #60]
 710              		.loc 1 439 48
 711 0052 0121     		movs	r1, #1
 712 0054 01FA02F2 		lsl	r2, r1, r2
 713              		.loc 1 439 32
 714 0058 5A60     		str	r2, [r3, #4]
 440:Drivers/STM32F1xx_HAL_Driver/Src/stm32f1xx_hal_dma.c ****   }
 441:Drivers/STM32F1xx_HAL_Driver/Src/stm32f1xx_hal_dma.c ****   /* Change the DMA state */
 442:Drivers/STM32F1xx_HAL_Driver/Src/stm32f1xx_hal_dma.c ****   hdma->State = HAL_DMA_STATE_READY;
 715              		.loc 1 442 15
 716 005a 7B68     		ldr	r3, [r7, #4]
 717 005c 0122     		movs	r2, #1
 718 005e 83F82120 		strb	r2, [r3, #33]
 443:Drivers/STM32F1xx_HAL_Driver/Src/stm32f1xx_hal_dma.c **** 
 444:Drivers/STM32F1xx_HAL_Driver/Src/stm32f1xx_hal_dma.c ****   /* Process Unlocked */
 445:Drivers/STM32F1xx_HAL_Driver/Src/stm32f1xx_hal_dma.c ****   __HAL_UNLOCK(hdma);      
 719              		.loc 1 445 3
 720 0062 7B68     		ldr	r3, [r7, #4]
 721 0064 0022     		movs	r2, #0
 722 0066 83F82020 		strb	r2, [r3, #32]
 446:Drivers/STM32F1xx_HAL_Driver/Src/stm32f1xx_hal_dma.c ****   
 447:Drivers/STM32F1xx_HAL_Driver/Src/stm32f1xx_hal_dma.c ****   return status; 
 723              		.loc 1 447 10
 724 006a FB7B     		ldrb	r3, [r7, #15]	@ zero_extendqisi2
 725              	.L29:
 448:Drivers/STM32F1xx_HAL_Driver/Src/stm32f1xx_hal_dma.c **** }
 726              		.loc 1 448 1
 727 006c 1846     		mov	r0, r3
 728 006e 1437     		adds	r7, r7, #20
 729              	.LCFI25:
 730              		.cfi_def_cfa_offset 4
 731 0070 BD46     		mov	sp, r7
 732              	.LCFI26:
 733              		.cfi_def_cfa_register 13
 734              		@ sp needed
 735 0072 80BC     		pop	{r7}
 736              	.LCFI27:
 737              		.cfi_restore 7
 738              		.cfi_def_cfa_offset 0
 739 0074 7047     		bx	lr
 740              		.cfi_endproc
 741              	.LFE69:
 743              		.section	.text.HAL_DMA_Abort_IT,"ax",%progbits
 744              		.align	1
 745              		.global	HAL_DMA_Abort_IT
 746              		.syntax unified
 747              		.thumb
 748              		.thumb_func
 750              	HAL_DMA_Abort_IT:
 751              	.LFB70:
 449:Drivers/STM32F1xx_HAL_Driver/Src/stm32f1xx_hal_dma.c **** 
 450:Drivers/STM32F1xx_HAL_Driver/Src/stm32f1xx_hal_dma.c **** /**
 451:Drivers/STM32F1xx_HAL_Driver/Src/stm32f1xx_hal_dma.c ****   * @brief  Aborts the DMA Transfer in Interrupt mode.
 452:Drivers/STM32F1xx_HAL_Driver/Src/stm32f1xx_hal_dma.c ****   * @param  hdma  : pointer to a DMA_HandleTypeDef structure that contains
 453:Drivers/STM32F1xx_HAL_Driver/Src/stm32f1xx_hal_dma.c ****   *                 the configuration information for the specified DMA Channel.
ARM GAS  /tmp/ccfL2ZiY.s 			page 22


 454:Drivers/STM32F1xx_HAL_Driver/Src/stm32f1xx_hal_dma.c ****   * @retval HAL status
 455:Drivers/STM32F1xx_HAL_Driver/Src/stm32f1xx_hal_dma.c ****   */
 456:Drivers/STM32F1xx_HAL_Driver/Src/stm32f1xx_hal_dma.c **** HAL_StatusTypeDef HAL_DMA_Abort_IT(DMA_HandleTypeDef *hdma)
 457:Drivers/STM32F1xx_HAL_Driver/Src/stm32f1xx_hal_dma.c **** {  
 752              		.loc 1 457 1
 753              		.cfi_startproc
 754              		@ args = 0, pretend = 0, frame = 16
 755              		@ frame_needed = 1, uses_anonymous_args = 0
 756 0000 80B5     		push	{r7, lr}
 757              	.LCFI28:
 758              		.cfi_def_cfa_offset 8
 759              		.cfi_offset 7, -8
 760              		.cfi_offset 14, -4
 761 0002 84B0     		sub	sp, sp, #16
 762              	.LCFI29:
 763              		.cfi_def_cfa_offset 24
 764 0004 00AF     		add	r7, sp, #0
 765              	.LCFI30:
 766              		.cfi_def_cfa_register 7
 767 0006 7860     		str	r0, [r7, #4]
 458:Drivers/STM32F1xx_HAL_Driver/Src/stm32f1xx_hal_dma.c ****   HAL_StatusTypeDef status = HAL_OK;
 768              		.loc 1 458 21
 769 0008 0023     		movs	r3, #0
 770 000a FB73     		strb	r3, [r7, #15]
 459:Drivers/STM32F1xx_HAL_Driver/Src/stm32f1xx_hal_dma.c ****   
 460:Drivers/STM32F1xx_HAL_Driver/Src/stm32f1xx_hal_dma.c ****   if(HAL_DMA_STATE_BUSY != hdma->State)
 771              		.loc 1 460 32
 772 000c 7B68     		ldr	r3, [r7, #4]
 773 000e 93F82130 		ldrb	r3, [r3, #33]
 774 0012 DBB2     		uxtb	r3, r3
 775              		.loc 1 460 5
 776 0014 022B     		cmp	r3, #2
 777 0016 05D0     		beq	.L31
 461:Drivers/STM32F1xx_HAL_Driver/Src/stm32f1xx_hal_dma.c ****   {
 462:Drivers/STM32F1xx_HAL_Driver/Src/stm32f1xx_hal_dma.c ****     /* no transfer ongoing */
 463:Drivers/STM32F1xx_HAL_Driver/Src/stm32f1xx_hal_dma.c ****     hdma->ErrorCode = HAL_DMA_ERROR_NO_XFER;
 778              		.loc 1 463 21
 779 0018 7B68     		ldr	r3, [r7, #4]
 780 001a 0422     		movs	r2, #4
 781 001c 9A63     		str	r2, [r3, #56]
 464:Drivers/STM32F1xx_HAL_Driver/Src/stm32f1xx_hal_dma.c ****         
 465:Drivers/STM32F1xx_HAL_Driver/Src/stm32f1xx_hal_dma.c ****     status = HAL_ERROR;
 782              		.loc 1 465 12
 783 001e 0123     		movs	r3, #1
 784 0020 FB73     		strb	r3, [r7, #15]
 785 0022 D6E0     		b	.L32
 786              	.L31:
 466:Drivers/STM32F1xx_HAL_Driver/Src/stm32f1xx_hal_dma.c ****   }
 467:Drivers/STM32F1xx_HAL_Driver/Src/stm32f1xx_hal_dma.c ****   else
 468:Drivers/STM32F1xx_HAL_Driver/Src/stm32f1xx_hal_dma.c ****   { 
 469:Drivers/STM32F1xx_HAL_Driver/Src/stm32f1xx_hal_dma.c ****     /* Disable DMA IT */
 470:Drivers/STM32F1xx_HAL_Driver/Src/stm32f1xx_hal_dma.c ****     __HAL_DMA_DISABLE_IT(hdma, (DMA_IT_TC | DMA_IT_HT | DMA_IT_TE));
 787              		.loc 1 470 5
 788 0024 7B68     		ldr	r3, [r7, #4]
 789 0026 1B68     		ldr	r3, [r3]
 790 0028 1A68     		ldr	r2, [r3]
 791 002a 7B68     		ldr	r3, [r7, #4]
ARM GAS  /tmp/ccfL2ZiY.s 			page 23


 792 002c 1B68     		ldr	r3, [r3]
 793 002e 22F00E02 		bic	r2, r2, #14
 794 0032 1A60     		str	r2, [r3]
 471:Drivers/STM32F1xx_HAL_Driver/Src/stm32f1xx_hal_dma.c **** 
 472:Drivers/STM32F1xx_HAL_Driver/Src/stm32f1xx_hal_dma.c ****     /* Disable the channel */
 473:Drivers/STM32F1xx_HAL_Driver/Src/stm32f1xx_hal_dma.c ****     __HAL_DMA_DISABLE(hdma);
 795              		.loc 1 473 5
 796 0034 7B68     		ldr	r3, [r7, #4]
 797 0036 1B68     		ldr	r3, [r3]
 798 0038 1A68     		ldr	r2, [r3]
 799 003a 7B68     		ldr	r3, [r7, #4]
 800 003c 1B68     		ldr	r3, [r3]
 801 003e 22F00102 		bic	r2, r2, #1
 802 0042 1A60     		str	r2, [r3]
 474:Drivers/STM32F1xx_HAL_Driver/Src/stm32f1xx_hal_dma.c **** 
 475:Drivers/STM32F1xx_HAL_Driver/Src/stm32f1xx_hal_dma.c ****     /* Clear all flags */
 476:Drivers/STM32F1xx_HAL_Driver/Src/stm32f1xx_hal_dma.c ****     __HAL_DMA_CLEAR_FLAG(hdma, __HAL_DMA_GET_GI_FLAG_INDEX(hdma));
 803              		.loc 1 476 5
 804 0044 7B68     		ldr	r3, [r7, #4]
 805 0046 1B68     		ldr	r3, [r3]
 806 0048 1A46     		mov	r2, r3
 807 004a 644B     		ldr	r3, .L80
 808 004c 9A42     		cmp	r2, r3
 809 004e 58D9     		bls	.L33
 810              		.loc 1 476 5 is_stmt 0 discriminator 1
 811 0050 7B68     		ldr	r3, [r7, #4]
 812 0052 1B68     		ldr	r3, [r3]
 813 0054 624A     		ldr	r2, .L80+4
 814 0056 9342     		cmp	r3, r2
 815 0058 4FD0     		beq	.L34
 816              		.loc 1 476 5 discriminator 3
 817 005a 7B68     		ldr	r3, [r7, #4]
 818 005c 1B68     		ldr	r3, [r3]
 819 005e 614A     		ldr	r2, .L80+8
 820 0060 9342     		cmp	r3, r2
 821 0062 48D0     		beq	.L35
 822              		.loc 1 476 5 discriminator 5
 823 0064 7B68     		ldr	r3, [r7, #4]
 824 0066 1B68     		ldr	r3, [r3]
 825 0068 5F4A     		ldr	r2, .L80+12
 826 006a 9342     		cmp	r3, r2
 827 006c 40D0     		beq	.L36
 828              		.loc 1 476 5 discriminator 7
 829 006e 7B68     		ldr	r3, [r7, #4]
 830 0070 1B68     		ldr	r3, [r3]
 831 0072 5E4A     		ldr	r2, .L80+16
 832 0074 9342     		cmp	r3, r2
 833 0076 38D0     		beq	.L37
 834              		.loc 1 476 5 discriminator 9
 835 0078 7B68     		ldr	r3, [r7, #4]
 836 007a 1B68     		ldr	r3, [r3]
 837 007c 5C4A     		ldr	r2, .L80+20
 838 007e 9342     		cmp	r3, r2
 839 0080 30D0     		beq	.L38
 840              		.loc 1 476 5 discriminator 11
 841 0082 7B68     		ldr	r3, [r7, #4]
 842 0084 1B68     		ldr	r3, [r3]
ARM GAS  /tmp/ccfL2ZiY.s 			page 24


 843 0086 5B4A     		ldr	r2, .L80+24
 844 0088 9342     		cmp	r3, r2
 845 008a 28D0     		beq	.L39
 846              		.loc 1 476 5 discriminator 13
 847 008c 7B68     		ldr	r3, [r7, #4]
 848 008e 1B68     		ldr	r3, [r3]
 849 0090 524A     		ldr	r2, .L80
 850 0092 9342     		cmp	r3, r2
 851 0094 20D0     		beq	.L40
 852              		.loc 1 476 5 discriminator 15
 853 0096 7B68     		ldr	r3, [r7, #4]
 854 0098 1B68     		ldr	r3, [r3]
 855 009a 574A     		ldr	r2, .L80+28
 856 009c 9342     		cmp	r3, r2
 857 009e 19D0     		beq	.L41
 858              		.loc 1 476 5 discriminator 17
 859 00a0 7B68     		ldr	r3, [r7, #4]
 860 00a2 1B68     		ldr	r3, [r3]
 861 00a4 554A     		ldr	r2, .L80+32
 862 00a6 9342     		cmp	r3, r2
 863 00a8 12D0     		beq	.L42
 864              		.loc 1 476 5 discriminator 19
 865 00aa 7B68     		ldr	r3, [r7, #4]
 866 00ac 1B68     		ldr	r3, [r3]
 867 00ae 544A     		ldr	r2, .L80+36
 868 00b0 9342     		cmp	r3, r2
 869 00b2 0AD0     		beq	.L43
 870              		.loc 1 476 5 discriminator 21
 871 00b4 7B68     		ldr	r3, [r7, #4]
 872 00b6 1B68     		ldr	r3, [r3]
 873 00b8 524A     		ldr	r2, .L80+40
 874 00ba 9342     		cmp	r3, r2
 875 00bc 02D1     		bne	.L44
 876              		.loc 1 476 5 discriminator 23
 877 00be 4FF48053 		mov	r3, #4096
 878 00c2 1BE0     		b	.L55
 879              	.L44:
 880              		.loc 1 476 5 discriminator 24
 881 00c4 4FF48033 		mov	r3, #65536
 882 00c8 18E0     		b	.L55
 883              	.L43:
 884              		.loc 1 476 5 discriminator 22
 885 00ca 4FF48073 		mov	r3, #256
 886 00ce 15E0     		b	.L55
 887              	.L42:
 888              		.loc 1 476 5 discriminator 20
 889 00d0 1023     		movs	r3, #16
 890 00d2 13E0     		b	.L55
 891              	.L41:
 892              		.loc 1 476 5 discriminator 18
 893 00d4 0123     		movs	r3, #1
 894 00d6 11E0     		b	.L55
 895              	.L40:
 896              		.loc 1 476 5 discriminator 16
 897 00d8 4FF08073 		mov	r3, #16777216
 898 00dc 0EE0     		b	.L55
 899              	.L39:
ARM GAS  /tmp/ccfL2ZiY.s 			page 25


 900              		.loc 1 476 5 discriminator 14
 901 00de 4FF48013 		mov	r3, #1048576
 902 00e2 0BE0     		b	.L55
 903              	.L38:
 904              		.loc 1 476 5 discriminator 12
 905 00e4 4FF48033 		mov	r3, #65536
 906 00e8 08E0     		b	.L55
 907              	.L37:
 908              		.loc 1 476 5 discriminator 10
 909 00ea 4FF48053 		mov	r3, #4096
 910 00ee 05E0     		b	.L55
 911              	.L36:
 912              		.loc 1 476 5 discriminator 8
 913 00f0 4FF48073 		mov	r3, #256
 914 00f4 02E0     		b	.L55
 915              	.L35:
 916              		.loc 1 476 5 discriminator 6
 917 00f6 1023     		movs	r3, #16
 918 00f8 00E0     		b	.L55
 919              	.L34:
 920              		.loc 1 476 5 discriminator 4
 921 00fa 0123     		movs	r3, #1
 922              	.L55:
 923              		.loc 1 476 5 discriminator 46
 924 00fc 424A     		ldr	r2, .L80+44
 925 00fe 5360     		str	r3, [r2, #4]
 926 0100 57E0     		b	.L56
 927              	.L33:
 928              		.loc 1 476 5 discriminator 2
 929 0102 7B68     		ldr	r3, [r7, #4]
 930 0104 1B68     		ldr	r3, [r3]
 931 0106 364A     		ldr	r2, .L80+4
 932 0108 9342     		cmp	r3, r2
 933 010a 4FD0     		beq	.L57
 934              		.loc 1 476 5 discriminator 47
 935 010c 7B68     		ldr	r3, [r7, #4]
 936 010e 1B68     		ldr	r3, [r3]
 937 0110 344A     		ldr	r2, .L80+8
 938 0112 9342     		cmp	r3, r2
 939 0114 48D0     		beq	.L58
 940              		.loc 1 476 5 discriminator 49
 941 0116 7B68     		ldr	r3, [r7, #4]
 942 0118 1B68     		ldr	r3, [r3]
 943 011a 334A     		ldr	r2, .L80+12
 944 011c 9342     		cmp	r3, r2
 945 011e 40D0     		beq	.L59
 946              		.loc 1 476 5 discriminator 51
 947 0120 7B68     		ldr	r3, [r7, #4]
 948 0122 1B68     		ldr	r3, [r3]
 949 0124 314A     		ldr	r2, .L80+16
 950 0126 9342     		cmp	r3, r2
 951 0128 38D0     		beq	.L60
 952              		.loc 1 476 5 discriminator 53
 953 012a 7B68     		ldr	r3, [r7, #4]
 954 012c 1B68     		ldr	r3, [r3]
 955 012e 304A     		ldr	r2, .L80+20
 956 0130 9342     		cmp	r3, r2
ARM GAS  /tmp/ccfL2ZiY.s 			page 26


 957 0132 30D0     		beq	.L61
 958              		.loc 1 476 5 discriminator 55
 959 0134 7B68     		ldr	r3, [r7, #4]
 960 0136 1B68     		ldr	r3, [r3]
 961 0138 2E4A     		ldr	r2, .L80+24
 962 013a 9342     		cmp	r3, r2
 963 013c 28D0     		beq	.L62
 964              		.loc 1 476 5 discriminator 57
 965 013e 7B68     		ldr	r3, [r7, #4]
 966 0140 1B68     		ldr	r3, [r3]
 967 0142 264A     		ldr	r2, .L80
 968 0144 9342     		cmp	r3, r2
 969 0146 20D0     		beq	.L63
 970              		.loc 1 476 5 discriminator 59
 971 0148 7B68     		ldr	r3, [r7, #4]
 972 014a 1B68     		ldr	r3, [r3]
 973 014c 2A4A     		ldr	r2, .L80+28
 974 014e 9342     		cmp	r3, r2
 975 0150 19D0     		beq	.L64
 976              		.loc 1 476 5 discriminator 61
 977 0152 7B68     		ldr	r3, [r7, #4]
 978 0154 1B68     		ldr	r3, [r3]
 979 0156 294A     		ldr	r2, .L80+32
 980 0158 9342     		cmp	r3, r2
 981 015a 12D0     		beq	.L65
 982              		.loc 1 476 5 discriminator 63
 983 015c 7B68     		ldr	r3, [r7, #4]
 984 015e 1B68     		ldr	r3, [r3]
 985 0160 274A     		ldr	r2, .L80+36
 986 0162 9342     		cmp	r3, r2
 987 0164 0AD0     		beq	.L66
 988              		.loc 1 476 5 discriminator 65
 989 0166 7B68     		ldr	r3, [r7, #4]
 990 0168 1B68     		ldr	r3, [r3]
 991 016a 264A     		ldr	r2, .L80+40
 992 016c 9342     		cmp	r3, r2
 993 016e 02D1     		bne	.L67
 994              		.loc 1 476 5 discriminator 67
 995 0170 4FF48053 		mov	r3, #4096
 996 0174 1BE0     		b	.L78
 997              	.L67:
 998              		.loc 1 476 5 discriminator 68
 999 0176 4FF48033 		mov	r3, #65536
 1000 017a 18E0     		b	.L78
 1001              	.L66:
 1002              		.loc 1 476 5 discriminator 66
 1003 017c 4FF48073 		mov	r3, #256
 1004 0180 15E0     		b	.L78
 1005              	.L65:
 1006              		.loc 1 476 5 discriminator 64
 1007 0182 1023     		movs	r3, #16
 1008 0184 13E0     		b	.L78
 1009              	.L64:
 1010              		.loc 1 476 5 discriminator 62
 1011 0186 0123     		movs	r3, #1
 1012 0188 11E0     		b	.L78
 1013              	.L63:
ARM GAS  /tmp/ccfL2ZiY.s 			page 27


 1014              		.loc 1 476 5 discriminator 60
 1015 018a 4FF08073 		mov	r3, #16777216
 1016 018e 0EE0     		b	.L78
 1017              	.L62:
 1018              		.loc 1 476 5 discriminator 58
 1019 0190 4FF48013 		mov	r3, #1048576
 1020 0194 0BE0     		b	.L78
 1021              	.L61:
 1022              		.loc 1 476 5 discriminator 56
 1023 0196 4FF48033 		mov	r3, #65536
 1024 019a 08E0     		b	.L78
 1025              	.L60:
 1026              		.loc 1 476 5 discriminator 54
 1027 019c 4FF48053 		mov	r3, #4096
 1028 01a0 05E0     		b	.L78
 1029              	.L59:
 1030              		.loc 1 476 5 discriminator 52
 1031 01a2 4FF48073 		mov	r3, #256
 1032 01a6 02E0     		b	.L78
 1033              	.L58:
 1034              		.loc 1 476 5 discriminator 50
 1035 01a8 1023     		movs	r3, #16
 1036 01aa 00E0     		b	.L78
 1037              	.L57:
 1038              		.loc 1 476 5 discriminator 48
 1039 01ac 0123     		movs	r3, #1
 1040              	.L78:
 1041              		.loc 1 476 5 discriminator 90
 1042 01ae 174A     		ldr	r2, .L80+48
 1043 01b0 5360     		str	r3, [r2, #4]
 1044              	.L56:
 477:Drivers/STM32F1xx_HAL_Driver/Src/stm32f1xx_hal_dma.c **** 
 478:Drivers/STM32F1xx_HAL_Driver/Src/stm32f1xx_hal_dma.c ****     /* Change the DMA state */
 479:Drivers/STM32F1xx_HAL_Driver/Src/stm32f1xx_hal_dma.c ****     hdma->State = HAL_DMA_STATE_READY;
 1045              		.loc 1 479 17 is_stmt 1
 1046 01b2 7B68     		ldr	r3, [r7, #4]
 1047 01b4 0122     		movs	r2, #1
 1048 01b6 83F82120 		strb	r2, [r3, #33]
 480:Drivers/STM32F1xx_HAL_Driver/Src/stm32f1xx_hal_dma.c **** 
 481:Drivers/STM32F1xx_HAL_Driver/Src/stm32f1xx_hal_dma.c ****     /* Process Unlocked */
 482:Drivers/STM32F1xx_HAL_Driver/Src/stm32f1xx_hal_dma.c ****     __HAL_UNLOCK(hdma);
 1049              		.loc 1 482 5
 1050 01ba 7B68     		ldr	r3, [r7, #4]
 1051 01bc 0022     		movs	r2, #0
 1052 01be 83F82020 		strb	r2, [r3, #32]
 483:Drivers/STM32F1xx_HAL_Driver/Src/stm32f1xx_hal_dma.c **** 
 484:Drivers/STM32F1xx_HAL_Driver/Src/stm32f1xx_hal_dma.c ****     /* Call User Abort callback */
 485:Drivers/STM32F1xx_HAL_Driver/Src/stm32f1xx_hal_dma.c ****     if(hdma->XferAbortCallback != NULL)
 1053              		.loc 1 485 12
 1054 01c2 7B68     		ldr	r3, [r7, #4]
 1055 01c4 5B6B     		ldr	r3, [r3, #52]
 1056              		.loc 1 485 7
 1057 01c6 002B     		cmp	r3, #0
 1058 01c8 03D0     		beq	.L32
 486:Drivers/STM32F1xx_HAL_Driver/Src/stm32f1xx_hal_dma.c ****     {
 487:Drivers/STM32F1xx_HAL_Driver/Src/stm32f1xx_hal_dma.c ****       hdma->XferAbortCallback(hdma);
 1059              		.loc 1 487 11
ARM GAS  /tmp/ccfL2ZiY.s 			page 28


 1060 01ca 7B68     		ldr	r3, [r7, #4]
 1061 01cc 5B6B     		ldr	r3, [r3, #52]
 1062              		.loc 1 487 7
 1063 01ce 7868     		ldr	r0, [r7, #4]
 1064 01d0 9847     		blx	r3
 1065              	.LVL0:
 1066              	.L32:
 488:Drivers/STM32F1xx_HAL_Driver/Src/stm32f1xx_hal_dma.c ****     } 
 489:Drivers/STM32F1xx_HAL_Driver/Src/stm32f1xx_hal_dma.c ****   }
 490:Drivers/STM32F1xx_HAL_Driver/Src/stm32f1xx_hal_dma.c ****   return status;
 1067              		.loc 1 490 10
 1068 01d2 FB7B     		ldrb	r3, [r7, #15]	@ zero_extendqisi2
 491:Drivers/STM32F1xx_HAL_Driver/Src/stm32f1xx_hal_dma.c **** }
 1069              		.loc 1 491 1
 1070 01d4 1846     		mov	r0, r3
 1071 01d6 1037     		adds	r7, r7, #16
 1072              	.LCFI31:
 1073              		.cfi_def_cfa_offset 8
 1074 01d8 BD46     		mov	sp, r7
 1075              	.LCFI32:
 1076              		.cfi_def_cfa_register 13
 1077              		@ sp needed
 1078 01da 80BD     		pop	{r7, pc}
 1079              	.L81:
 1080              		.align	2
 1081              	.L80:
 1082 01dc 80000240 		.word	1073873024
 1083 01e0 08000240 		.word	1073872904
 1084 01e4 1C000240 		.word	1073872924
 1085 01e8 30000240 		.word	1073872944
 1086 01ec 44000240 		.word	1073872964
 1087 01f0 58000240 		.word	1073872984
 1088 01f4 6C000240 		.word	1073873004
 1089 01f8 08040240 		.word	1073873928
 1090 01fc 1C040240 		.word	1073873948
 1091 0200 30040240 		.word	1073873968
 1092 0204 44040240 		.word	1073873988
 1093 0208 00040240 		.word	1073873920
 1094 020c 00000240 		.word	1073872896
 1095              		.cfi_endproc
 1096              	.LFE70:
 1098              		.section	.text.HAL_DMA_PollForTransfer,"ax",%progbits
 1099              		.align	1
 1100              		.global	HAL_DMA_PollForTransfer
 1101              		.syntax unified
 1102              		.thumb
 1103              		.thumb_func
 1105              	HAL_DMA_PollForTransfer:
 1106              	.LFB71:
 492:Drivers/STM32F1xx_HAL_Driver/Src/stm32f1xx_hal_dma.c **** 
 493:Drivers/STM32F1xx_HAL_Driver/Src/stm32f1xx_hal_dma.c **** /**
 494:Drivers/STM32F1xx_HAL_Driver/Src/stm32f1xx_hal_dma.c ****   * @brief  Polling for transfer complete.
 495:Drivers/STM32F1xx_HAL_Driver/Src/stm32f1xx_hal_dma.c ****   * @param  hdma:    pointer to a DMA_HandleTypeDef structure that contains
 496:Drivers/STM32F1xx_HAL_Driver/Src/stm32f1xx_hal_dma.c ****   *                  the configuration information for the specified DMA Channel.
 497:Drivers/STM32F1xx_HAL_Driver/Src/stm32f1xx_hal_dma.c ****   * @param  CompleteLevel: Specifies the DMA level complete.
 498:Drivers/STM32F1xx_HAL_Driver/Src/stm32f1xx_hal_dma.c ****   * @param  Timeout:       Timeout duration.
 499:Drivers/STM32F1xx_HAL_Driver/Src/stm32f1xx_hal_dma.c ****   * @retval HAL status
ARM GAS  /tmp/ccfL2ZiY.s 			page 29


 500:Drivers/STM32F1xx_HAL_Driver/Src/stm32f1xx_hal_dma.c ****   */
 501:Drivers/STM32F1xx_HAL_Driver/Src/stm32f1xx_hal_dma.c **** HAL_StatusTypeDef HAL_DMA_PollForTransfer(DMA_HandleTypeDef *hdma, uint32_t CompleteLevel, uint32_t
 502:Drivers/STM32F1xx_HAL_Driver/Src/stm32f1xx_hal_dma.c **** {
 1107              		.loc 1 502 1
 1108              		.cfi_startproc
 1109              		@ args = 0, pretend = 0, frame = 24
 1110              		@ frame_needed = 1, uses_anonymous_args = 0
 1111 0000 80B5     		push	{r7, lr}
 1112              	.LCFI33:
 1113              		.cfi_def_cfa_offset 8
 1114              		.cfi_offset 7, -8
 1115              		.cfi_offset 14, -4
 1116 0002 86B0     		sub	sp, sp, #24
 1117              	.LCFI34:
 1118              		.cfi_def_cfa_offset 32
 1119 0004 00AF     		add	r7, sp, #0
 1120              	.LCFI35:
 1121              		.cfi_def_cfa_register 7
 1122 0006 F860     		str	r0, [r7, #12]
 1123 0008 B960     		str	r1, [r7, #8]
 1124 000a 7A60     		str	r2, [r7, #4]
 503:Drivers/STM32F1xx_HAL_Driver/Src/stm32f1xx_hal_dma.c ****   uint32_t temp;
 504:Drivers/STM32F1xx_HAL_Driver/Src/stm32f1xx_hal_dma.c ****   uint32_t tickstart = 0U;
 1125              		.loc 1 504 12
 1126 000c 0023     		movs	r3, #0
 1127 000e 3B61     		str	r3, [r7, #16]
 505:Drivers/STM32F1xx_HAL_Driver/Src/stm32f1xx_hal_dma.c **** 
 506:Drivers/STM32F1xx_HAL_Driver/Src/stm32f1xx_hal_dma.c ****   if(HAL_DMA_STATE_BUSY != hdma->State)
 1128              		.loc 1 506 32
 1129 0010 FB68     		ldr	r3, [r7, #12]
 1130 0012 93F82130 		ldrb	r3, [r3, #33]
 1131 0016 DBB2     		uxtb	r3, r3
 1132              		.loc 1 506 5
 1133 0018 022B     		cmp	r3, #2
 1134 001a 08D0     		beq	.L83
 507:Drivers/STM32F1xx_HAL_Driver/Src/stm32f1xx_hal_dma.c ****   {
 508:Drivers/STM32F1xx_HAL_Driver/Src/stm32f1xx_hal_dma.c ****     /* no transfer ongoing */
 509:Drivers/STM32F1xx_HAL_Driver/Src/stm32f1xx_hal_dma.c ****     hdma->ErrorCode = HAL_DMA_ERROR_NO_XFER;
 1135              		.loc 1 509 21
 1136 001c FB68     		ldr	r3, [r7, #12]
 1137 001e 0422     		movs	r2, #4
 1138 0020 9A63     		str	r2, [r3, #56]
 510:Drivers/STM32F1xx_HAL_Driver/Src/stm32f1xx_hal_dma.c ****     __HAL_UNLOCK(hdma);
 1139              		.loc 1 510 5
 1140 0022 FB68     		ldr	r3, [r7, #12]
 1141 0024 0022     		movs	r2, #0
 1142 0026 83F82020 		strb	r2, [r3, #32]
 511:Drivers/STM32F1xx_HAL_Driver/Src/stm32f1xx_hal_dma.c ****     return HAL_ERROR;
 1143              		.loc 1 511 12
 1144 002a 0123     		movs	r3, #1
 1145 002c 89E3     		b	.L84
 1146              	.L83:
 512:Drivers/STM32F1xx_HAL_Driver/Src/stm32f1xx_hal_dma.c ****   }
 513:Drivers/STM32F1xx_HAL_Driver/Src/stm32f1xx_hal_dma.c **** 
 514:Drivers/STM32F1xx_HAL_Driver/Src/stm32f1xx_hal_dma.c ****   /* Polling mode not supported in circular mode */
 515:Drivers/STM32F1xx_HAL_Driver/Src/stm32f1xx_hal_dma.c ****   if (RESET != (hdma->Instance->CCR & DMA_CCR_CIRC))
 1147              		.loc 1 515 21
ARM GAS  /tmp/ccfL2ZiY.s 			page 30


 1148 002e FB68     		ldr	r3, [r7, #12]
 1149 0030 1B68     		ldr	r3, [r3]
 1150              		.loc 1 515 31
 1151 0032 1B68     		ldr	r3, [r3]
 1152              		.loc 1 515 37
 1153 0034 03F02003 		and	r3, r3, #32
 1154              		.loc 1 515 6
 1155 0038 002B     		cmp	r3, #0
 1156 003a 05D0     		beq	.L85
 516:Drivers/STM32F1xx_HAL_Driver/Src/stm32f1xx_hal_dma.c ****   {
 517:Drivers/STM32F1xx_HAL_Driver/Src/stm32f1xx_hal_dma.c ****     hdma->ErrorCode = HAL_DMA_ERROR_NOT_SUPPORTED;
 1157              		.loc 1 517 21
 1158 003c FB68     		ldr	r3, [r7, #12]
 1159 003e 4FF48072 		mov	r2, #256
 1160 0042 9A63     		str	r2, [r3, #56]
 518:Drivers/STM32F1xx_HAL_Driver/Src/stm32f1xx_hal_dma.c ****     return HAL_ERROR;
 1161              		.loc 1 518 12
 1162 0044 0123     		movs	r3, #1
 1163 0046 7CE3     		b	.L84
 1164              	.L85:
 519:Drivers/STM32F1xx_HAL_Driver/Src/stm32f1xx_hal_dma.c ****   }
 520:Drivers/STM32F1xx_HAL_Driver/Src/stm32f1xx_hal_dma.c ****   
 521:Drivers/STM32F1xx_HAL_Driver/Src/stm32f1xx_hal_dma.c ****   /* Get the level transfer complete flag */
 522:Drivers/STM32F1xx_HAL_Driver/Src/stm32f1xx_hal_dma.c ****   if(CompleteLevel == HAL_DMA_FULL_TRANSFER)
 1165              		.loc 1 522 5
 1166 0048 BB68     		ldr	r3, [r7, #8]
 1167 004a 002B     		cmp	r3, #0
 1168 004c 57D1     		bne	.L86
 523:Drivers/STM32F1xx_HAL_Driver/Src/stm32f1xx_hal_dma.c ****   {
 524:Drivers/STM32F1xx_HAL_Driver/Src/stm32f1xx_hal_dma.c ****     /* Transfer Complete flag */
 525:Drivers/STM32F1xx_HAL_Driver/Src/stm32f1xx_hal_dma.c ****     temp = __HAL_DMA_GET_TC_FLAG_INDEX(hdma);
 1169              		.loc 1 525 12
 1170 004e FB68     		ldr	r3, [r7, #12]
 1171 0050 1B68     		ldr	r3, [r3]
 1172 0052 8B4A     		ldr	r2, .L277
 1173 0054 9342     		cmp	r3, r2
 1174 0056 4FD0     		beq	.L87
 1175              		.loc 1 525 12 is_stmt 0 discriminator 1
 1176 0058 FB68     		ldr	r3, [r7, #12]
 1177 005a 1B68     		ldr	r3, [r3]
 1178 005c 894A     		ldr	r2, .L277+4
 1179 005e 9342     		cmp	r3, r2
 1180 0060 48D0     		beq	.L88
 1181              		.loc 1 525 12 discriminator 3
 1182 0062 FB68     		ldr	r3, [r7, #12]
 1183 0064 1B68     		ldr	r3, [r3]
 1184 0066 884A     		ldr	r2, .L277+8
 1185 0068 9342     		cmp	r3, r2
 1186 006a 40D0     		beq	.L89
 1187              		.loc 1 525 12 discriminator 5
 1188 006c FB68     		ldr	r3, [r7, #12]
 1189 006e 1B68     		ldr	r3, [r3]
 1190 0070 864A     		ldr	r2, .L277+12
 1191 0072 9342     		cmp	r3, r2
 1192 0074 38D0     		beq	.L90
 1193              		.loc 1 525 12 discriminator 7
 1194 0076 FB68     		ldr	r3, [r7, #12]
ARM GAS  /tmp/ccfL2ZiY.s 			page 31


 1195 0078 1B68     		ldr	r3, [r3]
 1196 007a 854A     		ldr	r2, .L277+16
 1197 007c 9342     		cmp	r3, r2
 1198 007e 30D0     		beq	.L91
 1199              		.loc 1 525 12 discriminator 9
 1200 0080 FB68     		ldr	r3, [r7, #12]
 1201 0082 1B68     		ldr	r3, [r3]
 1202 0084 834A     		ldr	r2, .L277+20
 1203 0086 9342     		cmp	r3, r2
 1204 0088 28D0     		beq	.L92
 1205              		.loc 1 525 12 discriminator 11
 1206 008a FB68     		ldr	r3, [r7, #12]
 1207 008c 1B68     		ldr	r3, [r3]
 1208 008e 824A     		ldr	r2, .L277+24
 1209 0090 9342     		cmp	r3, r2
 1210 0092 20D0     		beq	.L93
 1211              		.loc 1 525 12 discriminator 13
 1212 0094 FB68     		ldr	r3, [r7, #12]
 1213 0096 1B68     		ldr	r3, [r3]
 1214 0098 804A     		ldr	r2, .L277+28
 1215 009a 9342     		cmp	r3, r2
 1216 009c 19D0     		beq	.L94
 1217              		.loc 1 525 12 discriminator 15
 1218 009e FB68     		ldr	r3, [r7, #12]
 1219 00a0 1B68     		ldr	r3, [r3]
 1220 00a2 7F4A     		ldr	r2, .L277+32
 1221 00a4 9342     		cmp	r3, r2
 1222 00a6 12D0     		beq	.L95
 1223              		.loc 1 525 12 discriminator 17
 1224 00a8 FB68     		ldr	r3, [r7, #12]
 1225 00aa 1B68     		ldr	r3, [r3]
 1226 00ac 7D4A     		ldr	r2, .L277+36
 1227 00ae 9342     		cmp	r3, r2
 1228 00b0 0AD0     		beq	.L96
 1229              		.loc 1 525 12 discriminator 19
 1230 00b2 FB68     		ldr	r3, [r7, #12]
 1231 00b4 1B68     		ldr	r3, [r3]
 1232 00b6 7C4A     		ldr	r2, .L277+40
 1233 00b8 9342     		cmp	r3, r2
 1234 00ba 02D1     		bne	.L97
 1235              		.loc 1 525 12 discriminator 21
 1236 00bc 4FF40053 		mov	r3, #8192
 1237 00c0 1BE0     		b	.L108
 1238              	.L97:
 1239              		.loc 1 525 12 discriminator 22
 1240 00c2 4FF40033 		mov	r3, #131072
 1241 00c6 18E0     		b	.L108
 1242              	.L96:
 1243              		.loc 1 525 12 discriminator 20
 1244 00c8 4FF40073 		mov	r3, #512
 1245 00cc 15E0     		b	.L108
 1246              	.L95:
 1247              		.loc 1 525 12 discriminator 18
 1248 00ce 2023     		movs	r3, #32
 1249 00d0 13E0     		b	.L108
 1250              	.L94:
 1251              		.loc 1 525 12 discriminator 16
ARM GAS  /tmp/ccfL2ZiY.s 			page 32


 1252 00d2 0223     		movs	r3, #2
 1253 00d4 11E0     		b	.L108
 1254              	.L93:
 1255              		.loc 1 525 12 discriminator 14
 1256 00d6 4FF00073 		mov	r3, #33554432
 1257 00da 0EE0     		b	.L108
 1258              	.L92:
 1259              		.loc 1 525 12 discriminator 12
 1260 00dc 4FF40013 		mov	r3, #2097152
 1261 00e0 0BE0     		b	.L108
 1262              	.L91:
 1263              		.loc 1 525 12 discriminator 10
 1264 00e2 4FF40033 		mov	r3, #131072
 1265 00e6 08E0     		b	.L108
 1266              	.L90:
 1267              		.loc 1 525 12 discriminator 8
 1268 00e8 4FF40053 		mov	r3, #8192
 1269 00ec 05E0     		b	.L108
 1270              	.L89:
 1271              		.loc 1 525 12 discriminator 6
 1272 00ee 4FF40073 		mov	r3, #512
 1273 00f2 02E0     		b	.L108
 1274              	.L88:
 1275              		.loc 1 525 12 discriminator 4
 1276 00f4 2023     		movs	r3, #32
 1277 00f6 00E0     		b	.L108
 1278              	.L87:
 1279              		.loc 1 525 12 discriminator 2
 1280 00f8 0223     		movs	r3, #2
 1281              	.L108:
 1282              		.loc 1 525 10 is_stmt 1 discriminator 44
 1283 00fa 7B61     		str	r3, [r7, #20]
 1284 00fc 56E0     		b	.L109
 1285              	.L86:
 526:Drivers/STM32F1xx_HAL_Driver/Src/stm32f1xx_hal_dma.c ****   }
 527:Drivers/STM32F1xx_HAL_Driver/Src/stm32f1xx_hal_dma.c ****   else
 528:Drivers/STM32F1xx_HAL_Driver/Src/stm32f1xx_hal_dma.c ****   {
 529:Drivers/STM32F1xx_HAL_Driver/Src/stm32f1xx_hal_dma.c ****     /* Half Transfer Complete flag */
 530:Drivers/STM32F1xx_HAL_Driver/Src/stm32f1xx_hal_dma.c ****     temp = __HAL_DMA_GET_HT_FLAG_INDEX(hdma);
 1286              		.loc 1 530 12
 1287 00fe FB68     		ldr	r3, [r7, #12]
 1288 0100 1B68     		ldr	r3, [r3]
 1289 0102 5F4A     		ldr	r2, .L277
 1290 0104 9342     		cmp	r3, r2
 1291 0106 4FD0     		beq	.L110
 1292              		.loc 1 530 12 is_stmt 0 discriminator 1
 1293 0108 FB68     		ldr	r3, [r7, #12]
 1294 010a 1B68     		ldr	r3, [r3]
 1295 010c 5D4A     		ldr	r2, .L277+4
 1296 010e 9342     		cmp	r3, r2
 1297 0110 48D0     		beq	.L111
 1298              		.loc 1 530 12 discriminator 3
 1299 0112 FB68     		ldr	r3, [r7, #12]
 1300 0114 1B68     		ldr	r3, [r3]
 1301 0116 5C4A     		ldr	r2, .L277+8
 1302 0118 9342     		cmp	r3, r2
 1303 011a 40D0     		beq	.L112
ARM GAS  /tmp/ccfL2ZiY.s 			page 33


 1304              		.loc 1 530 12 discriminator 5
 1305 011c FB68     		ldr	r3, [r7, #12]
 1306 011e 1B68     		ldr	r3, [r3]
 1307 0120 5A4A     		ldr	r2, .L277+12
 1308 0122 9342     		cmp	r3, r2
 1309 0124 38D0     		beq	.L113
 1310              		.loc 1 530 12 discriminator 7
 1311 0126 FB68     		ldr	r3, [r7, #12]
 1312 0128 1B68     		ldr	r3, [r3]
 1313 012a 594A     		ldr	r2, .L277+16
 1314 012c 9342     		cmp	r3, r2
 1315 012e 30D0     		beq	.L114
 1316              		.loc 1 530 12 discriminator 9
 1317 0130 FB68     		ldr	r3, [r7, #12]
 1318 0132 1B68     		ldr	r3, [r3]
 1319 0134 574A     		ldr	r2, .L277+20
 1320 0136 9342     		cmp	r3, r2
 1321 0138 28D0     		beq	.L115
 1322              		.loc 1 530 12 discriminator 11
 1323 013a FB68     		ldr	r3, [r7, #12]
 1324 013c 1B68     		ldr	r3, [r3]
 1325 013e 564A     		ldr	r2, .L277+24
 1326 0140 9342     		cmp	r3, r2
 1327 0142 20D0     		beq	.L116
 1328              		.loc 1 530 12 discriminator 13
 1329 0144 FB68     		ldr	r3, [r7, #12]
 1330 0146 1B68     		ldr	r3, [r3]
 1331 0148 544A     		ldr	r2, .L277+28
 1332 014a 9342     		cmp	r3, r2
 1333 014c 19D0     		beq	.L117
 1334              		.loc 1 530 12 discriminator 15
 1335 014e FB68     		ldr	r3, [r7, #12]
 1336 0150 1B68     		ldr	r3, [r3]
 1337 0152 534A     		ldr	r2, .L277+32
 1338 0154 9342     		cmp	r3, r2
 1339 0156 12D0     		beq	.L118
 1340              		.loc 1 530 12 discriminator 17
 1341 0158 FB68     		ldr	r3, [r7, #12]
 1342 015a 1B68     		ldr	r3, [r3]
 1343 015c 514A     		ldr	r2, .L277+36
 1344 015e 9342     		cmp	r3, r2
 1345 0160 0AD0     		beq	.L119
 1346              		.loc 1 530 12 discriminator 19
 1347 0162 FB68     		ldr	r3, [r7, #12]
 1348 0164 1B68     		ldr	r3, [r3]
 1349 0166 504A     		ldr	r2, .L277+40
 1350 0168 9342     		cmp	r3, r2
 1351 016a 02D1     		bne	.L120
 1352              		.loc 1 530 12 discriminator 21
 1353 016c 4FF48043 		mov	r3, #16384
 1354 0170 1BE0     		b	.L131
 1355              	.L120:
 1356              		.loc 1 530 12 discriminator 22
 1357 0172 4FF48023 		mov	r3, #262144
 1358 0176 18E0     		b	.L131
 1359              	.L119:
 1360              		.loc 1 530 12 discriminator 20
ARM GAS  /tmp/ccfL2ZiY.s 			page 34


 1361 0178 4FF48063 		mov	r3, #1024
 1362 017c 15E0     		b	.L131
 1363              	.L118:
 1364              		.loc 1 530 12 discriminator 18
 1365 017e 4023     		movs	r3, #64
 1366 0180 13E0     		b	.L131
 1367              	.L117:
 1368              		.loc 1 530 12 discriminator 16
 1369 0182 0423     		movs	r3, #4
 1370 0184 11E0     		b	.L131
 1371              	.L116:
 1372              		.loc 1 530 12 discriminator 14
 1373 0186 4FF08063 		mov	r3, #67108864
 1374 018a 0EE0     		b	.L131
 1375              	.L115:
 1376              		.loc 1 530 12 discriminator 12
 1377 018c 4FF48003 		mov	r3, #4194304
 1378 0190 0BE0     		b	.L131
 1379              	.L114:
 1380              		.loc 1 530 12 discriminator 10
 1381 0192 4FF48023 		mov	r3, #262144
 1382 0196 08E0     		b	.L131
 1383              	.L113:
 1384              		.loc 1 530 12 discriminator 8
 1385 0198 4FF48043 		mov	r3, #16384
 1386 019c 05E0     		b	.L131
 1387              	.L112:
 1388              		.loc 1 530 12 discriminator 6
 1389 019e 4FF48063 		mov	r3, #1024
 1390 01a2 02E0     		b	.L131
 1391              	.L111:
 1392              		.loc 1 530 12 discriminator 4
 1393 01a4 4023     		movs	r3, #64
 1394 01a6 00E0     		b	.L131
 1395              	.L110:
 1396              		.loc 1 530 12 discriminator 2
 1397 01a8 0423     		movs	r3, #4
 1398              	.L131:
 1399              		.loc 1 530 10 is_stmt 1 discriminator 44
 1400 01aa 7B61     		str	r3, [r7, #20]
 1401              	.L109:
 531:Drivers/STM32F1xx_HAL_Driver/Src/stm32f1xx_hal_dma.c ****   }
 532:Drivers/STM32F1xx_HAL_Driver/Src/stm32f1xx_hal_dma.c **** 
 533:Drivers/STM32F1xx_HAL_Driver/Src/stm32f1xx_hal_dma.c ****   /* Get tick */
 534:Drivers/STM32F1xx_HAL_Driver/Src/stm32f1xx_hal_dma.c ****   tickstart = HAL_GetTick();
 1402              		.loc 1 534 15
 1403 01ac FFF7FEFF 		bl	HAL_GetTick
 1404 01b0 3861     		str	r0, [r7, #16]
 535:Drivers/STM32F1xx_HAL_Driver/Src/stm32f1xx_hal_dma.c **** 
 536:Drivers/STM32F1xx_HAL_Driver/Src/stm32f1xx_hal_dma.c ****   while(__HAL_DMA_GET_FLAG(hdma, temp) == RESET)
 1405              		.loc 1 536 8
 1406 01b2 14E1     		b	.L132
 1407              	.L183:
 537:Drivers/STM32F1xx_HAL_Driver/Src/stm32f1xx_hal_dma.c ****   {
 538:Drivers/STM32F1xx_HAL_Driver/Src/stm32f1xx_hal_dma.c ****     if((__HAL_DMA_GET_FLAG(hdma, __HAL_DMA_GET_TE_FLAG_INDEX(hdma)) != RESET))
 1408              		.loc 1 538 9
 1409 01b4 FB68     		ldr	r3, [r7, #12]
ARM GAS  /tmp/ccfL2ZiY.s 			page 35


 1410 01b6 1B68     		ldr	r3, [r3]
 1411 01b8 1A46     		mov	r2, r3
 1412              		.loc 1 538 69
 1413 01ba 374B     		ldr	r3, .L277+24
 1414 01bc 9A42     		cmp	r2, r3
 1415 01be 77D9     		bls	.L133
 1416              		.loc 1 538 9 discriminator 1
 1417 01c0 3A4B     		ldr	r3, .L277+44
 1418 01c2 1A68     		ldr	r2, [r3]
 1419 01c4 FB68     		ldr	r3, [r7, #12]
 1420 01c6 1B68     		ldr	r3, [r3]
 1421 01c8 2D49     		ldr	r1, .L277
 1422 01ca 8B42     		cmp	r3, r1
 1423 01cc 4FD0     		beq	.L134
 1424              		.loc 1 538 9 is_stmt 0 discriminator 3
 1425 01ce FB68     		ldr	r3, [r7, #12]
 1426 01d0 1B68     		ldr	r3, [r3]
 1427 01d2 2C49     		ldr	r1, .L277+4
 1428 01d4 8B42     		cmp	r3, r1
 1429 01d6 48D0     		beq	.L135
 1430              		.loc 1 538 9 discriminator 5
 1431 01d8 FB68     		ldr	r3, [r7, #12]
 1432 01da 1B68     		ldr	r3, [r3]
 1433 01dc 2A49     		ldr	r1, .L277+8
 1434 01de 8B42     		cmp	r3, r1
 1435 01e0 40D0     		beq	.L136
 1436              		.loc 1 538 9 discriminator 7
 1437 01e2 FB68     		ldr	r3, [r7, #12]
 1438 01e4 1B68     		ldr	r3, [r3]
 1439 01e6 2949     		ldr	r1, .L277+12
 1440 01e8 8B42     		cmp	r3, r1
 1441 01ea 38D0     		beq	.L137
 1442              		.loc 1 538 9 discriminator 9
 1443 01ec FB68     		ldr	r3, [r7, #12]
 1444 01ee 1B68     		ldr	r3, [r3]
 1445 01f0 2749     		ldr	r1, .L277+16
 1446 01f2 8B42     		cmp	r3, r1
 1447 01f4 30D0     		beq	.L138
 1448              		.loc 1 538 9 discriminator 11
 1449 01f6 FB68     		ldr	r3, [r7, #12]
 1450 01f8 1B68     		ldr	r3, [r3]
 1451 01fa 2649     		ldr	r1, .L277+20
 1452 01fc 8B42     		cmp	r3, r1
 1453 01fe 28D0     		beq	.L139
 1454              		.loc 1 538 9 discriminator 13
 1455 0200 FB68     		ldr	r3, [r7, #12]
 1456 0202 1B68     		ldr	r3, [r3]
 1457 0204 2449     		ldr	r1, .L277+24
 1458 0206 8B42     		cmp	r3, r1
 1459 0208 20D0     		beq	.L140
 1460              		.loc 1 538 9 discriminator 15
 1461 020a FB68     		ldr	r3, [r7, #12]
 1462 020c 1B68     		ldr	r3, [r3]
 1463 020e 2349     		ldr	r1, .L277+28
 1464 0210 8B42     		cmp	r3, r1
 1465 0212 19D0     		beq	.L141
 1466              		.loc 1 538 9 discriminator 17
ARM GAS  /tmp/ccfL2ZiY.s 			page 36


 1467 0214 FB68     		ldr	r3, [r7, #12]
 1468 0216 1B68     		ldr	r3, [r3]
 1469 0218 2149     		ldr	r1, .L277+32
 1470 021a 8B42     		cmp	r3, r1
 1471 021c 12D0     		beq	.L142
 1472              		.loc 1 538 9 discriminator 19
 1473 021e FB68     		ldr	r3, [r7, #12]
 1474 0220 1B68     		ldr	r3, [r3]
 1475 0222 2049     		ldr	r1, .L277+36
 1476 0224 8B42     		cmp	r3, r1
 1477 0226 0AD0     		beq	.L143
 1478              		.loc 1 538 9 discriminator 21
 1479 0228 FB68     		ldr	r3, [r7, #12]
 1480 022a 1B68     		ldr	r3, [r3]
 1481 022c 1E49     		ldr	r1, .L277+40
 1482 022e 8B42     		cmp	r3, r1
 1483 0230 02D1     		bne	.L144
 1484              		.loc 1 538 9 discriminator 23
 1485 0232 4FF40043 		mov	r3, #32768
 1486 0236 1BE0     		b	.L155
 1487              	.L144:
 1488              		.loc 1 538 9 discriminator 24
 1489 0238 4FF40023 		mov	r3, #524288
 1490 023c 18E0     		b	.L155
 1491              	.L143:
 1492              		.loc 1 538 9 discriminator 22
 1493 023e 4FF40063 		mov	r3, #2048
 1494 0242 15E0     		b	.L155
 1495              	.L142:
 1496              		.loc 1 538 9 discriminator 20
 1497 0244 8023     		movs	r3, #128
 1498 0246 13E0     		b	.L155
 1499              	.L141:
 1500              		.loc 1 538 9 discriminator 18
 1501 0248 0823     		movs	r3, #8
 1502 024a 11E0     		b	.L155
 1503              	.L140:
 1504              		.loc 1 538 9 discriminator 16
 1505 024c 4FF00063 		mov	r3, #134217728
 1506 0250 0EE0     		b	.L155
 1507              	.L139:
 1508              		.loc 1 538 9 discriminator 14
 1509 0252 4FF40003 		mov	r3, #8388608
 1510 0256 0BE0     		b	.L155
 1511              	.L138:
 1512              		.loc 1 538 9 discriminator 12
 1513 0258 4FF40023 		mov	r3, #524288
 1514 025c 08E0     		b	.L155
 1515              	.L137:
 1516              		.loc 1 538 9 discriminator 10
 1517 025e 4FF40043 		mov	r3, #32768
 1518 0262 05E0     		b	.L155
 1519              	.L136:
 1520              		.loc 1 538 9 discriminator 8
 1521 0264 4FF40063 		mov	r3, #2048
 1522 0268 02E0     		b	.L155
 1523              	.L135:
ARM GAS  /tmp/ccfL2ZiY.s 			page 37


 1524              		.loc 1 538 9 discriminator 6
 1525 026a 8023     		movs	r3, #128
 1526 026c 00E0     		b	.L155
 1527              	.L134:
 1528              		.loc 1 538 9 discriminator 4
 1529 026e 0823     		movs	r3, #8
 1530              	.L155:
 1531              		.loc 1 538 9 discriminator 46
 1532 0270 1340     		ands	r3, r3, r2
 1533              		.loc 1 538 69 is_stmt 1 discriminator 46
 1534 0272 002B     		cmp	r3, #0
 1535 0274 14BF     		ite	ne
 1536 0276 0123     		movne	r3, #1
 1537 0278 0023     		moveq	r3, #0
 1538 027a DBB2     		uxtb	r3, r3
 1539 027c 76E0     		b	.L156
 1540              	.L278:
 1541 027e 00BF     		.align	2
 1542              	.L277:
 1543 0280 08000240 		.word	1073872904
 1544 0284 1C000240 		.word	1073872924
 1545 0288 30000240 		.word	1073872944
 1546 028c 44000240 		.word	1073872964
 1547 0290 58000240 		.word	1073872984
 1548 0294 6C000240 		.word	1073873004
 1549 0298 80000240 		.word	1073873024
 1550 029c 08040240 		.word	1073873928
 1551 02a0 1C040240 		.word	1073873948
 1552 02a4 30040240 		.word	1073873968
 1553 02a8 44040240 		.word	1073873988
 1554 02ac 00040240 		.word	1073873920
 1555              	.L133:
 1556              		.loc 1 538 9 discriminator 2
 1557 02b0 8A4B     		ldr	r3, .L279
 1558 02b2 1A68     		ldr	r2, [r3]
 1559 02b4 FB68     		ldr	r3, [r7, #12]
 1560 02b6 1B68     		ldr	r3, [r3]
 1561 02b8 8949     		ldr	r1, .L279+4
 1562 02ba 8B42     		cmp	r3, r1
 1563 02bc 4FD0     		beq	.L157
 1564              		.loc 1 538 9 is_stmt 0 discriminator 48
 1565 02be FB68     		ldr	r3, [r7, #12]
 1566 02c0 1B68     		ldr	r3, [r3]
 1567 02c2 8849     		ldr	r1, .L279+8
 1568 02c4 8B42     		cmp	r3, r1
 1569 02c6 48D0     		beq	.L158
 1570              		.loc 1 538 9 discriminator 50
 1571 02c8 FB68     		ldr	r3, [r7, #12]
 1572 02ca 1B68     		ldr	r3, [r3]
 1573 02cc 8649     		ldr	r1, .L279+12
 1574 02ce 8B42     		cmp	r3, r1
 1575 02d0 40D0     		beq	.L159
 1576              		.loc 1 538 9 discriminator 52
 1577 02d2 FB68     		ldr	r3, [r7, #12]
 1578 02d4 1B68     		ldr	r3, [r3]
 1579 02d6 8549     		ldr	r1, .L279+16
 1580 02d8 8B42     		cmp	r3, r1
ARM GAS  /tmp/ccfL2ZiY.s 			page 38


 1581 02da 38D0     		beq	.L160
 1582              		.loc 1 538 9 discriminator 54
 1583 02dc FB68     		ldr	r3, [r7, #12]
 1584 02de 1B68     		ldr	r3, [r3]
 1585 02e0 8349     		ldr	r1, .L279+20
 1586 02e2 8B42     		cmp	r3, r1
 1587 02e4 30D0     		beq	.L161
 1588              		.loc 1 538 9 discriminator 56
 1589 02e6 FB68     		ldr	r3, [r7, #12]
 1590 02e8 1B68     		ldr	r3, [r3]
 1591 02ea 8249     		ldr	r1, .L279+24
 1592 02ec 8B42     		cmp	r3, r1
 1593 02ee 28D0     		beq	.L162
 1594              		.loc 1 538 9 discriminator 58
 1595 02f0 FB68     		ldr	r3, [r7, #12]
 1596 02f2 1B68     		ldr	r3, [r3]
 1597 02f4 8049     		ldr	r1, .L279+28
 1598 02f6 8B42     		cmp	r3, r1
 1599 02f8 20D0     		beq	.L163
 1600              		.loc 1 538 9 discriminator 60
 1601 02fa FB68     		ldr	r3, [r7, #12]
 1602 02fc 1B68     		ldr	r3, [r3]
 1603 02fe 7F49     		ldr	r1, .L279+32
 1604 0300 8B42     		cmp	r3, r1
 1605 0302 19D0     		beq	.L164
 1606              		.loc 1 538 9 discriminator 62
 1607 0304 FB68     		ldr	r3, [r7, #12]
 1608 0306 1B68     		ldr	r3, [r3]
 1609 0308 7D49     		ldr	r1, .L279+36
 1610 030a 8B42     		cmp	r3, r1
 1611 030c 12D0     		beq	.L165
 1612              		.loc 1 538 9 discriminator 64
 1613 030e FB68     		ldr	r3, [r7, #12]
 1614 0310 1B68     		ldr	r3, [r3]
 1615 0312 7C49     		ldr	r1, .L279+40
 1616 0314 8B42     		cmp	r3, r1
 1617 0316 0AD0     		beq	.L166
 1618              		.loc 1 538 9 discriminator 66
 1619 0318 FB68     		ldr	r3, [r7, #12]
 1620 031a 1B68     		ldr	r3, [r3]
 1621 031c 7A49     		ldr	r1, .L279+44
 1622 031e 8B42     		cmp	r3, r1
 1623 0320 02D1     		bne	.L167
 1624              		.loc 1 538 9 discriminator 68
 1625 0322 4FF40043 		mov	r3, #32768
 1626 0326 1BE0     		b	.L178
 1627              	.L167:
 1628              		.loc 1 538 9 discriminator 69
 1629 0328 4FF40023 		mov	r3, #524288
 1630 032c 18E0     		b	.L178
 1631              	.L166:
 1632              		.loc 1 538 9 discriminator 67
 1633 032e 4FF40063 		mov	r3, #2048
 1634 0332 15E0     		b	.L178
 1635              	.L165:
 1636              		.loc 1 538 9 discriminator 65
 1637 0334 8023     		movs	r3, #128
ARM GAS  /tmp/ccfL2ZiY.s 			page 39


 1638 0336 13E0     		b	.L178
 1639              	.L164:
 1640              		.loc 1 538 9 discriminator 63
 1641 0338 0823     		movs	r3, #8
 1642 033a 11E0     		b	.L178
 1643              	.L163:
 1644              		.loc 1 538 9 discriminator 61
 1645 033c 4FF00063 		mov	r3, #134217728
 1646 0340 0EE0     		b	.L178
 1647              	.L162:
 1648              		.loc 1 538 9 discriminator 59
 1649 0342 4FF40003 		mov	r3, #8388608
 1650 0346 0BE0     		b	.L178
 1651              	.L161:
 1652              		.loc 1 538 9 discriminator 57
 1653 0348 4FF40023 		mov	r3, #524288
 1654 034c 08E0     		b	.L178
 1655              	.L160:
 1656              		.loc 1 538 9 discriminator 55
 1657 034e 4FF40043 		mov	r3, #32768
 1658 0352 05E0     		b	.L178
 1659              	.L159:
 1660              		.loc 1 538 9 discriminator 53
 1661 0354 4FF40063 		mov	r3, #2048
 1662 0358 02E0     		b	.L178
 1663              	.L158:
 1664              		.loc 1 538 9 discriminator 51
 1665 035a 8023     		movs	r3, #128
 1666 035c 00E0     		b	.L178
 1667              	.L157:
 1668              		.loc 1 538 9 discriminator 49
 1669 035e 0823     		movs	r3, #8
 1670              	.L178:
 1671              		.loc 1 538 9 discriminator 91
 1672 0360 1340     		ands	r3, r3, r2
 1673              		.loc 1 538 69 is_stmt 1 discriminator 91
 1674 0362 002B     		cmp	r3, #0
 1675 0364 14BF     		ite	ne
 1676 0366 0123     		movne	r3, #1
 1677 0368 0023     		moveq	r3, #0
 1678 036a DBB2     		uxtb	r3, r3
 1679              	.L156:
 1680              		.loc 1 538 7 discriminator 92
 1681 036c 002B     		cmp	r3, #0
 1682 036e 17D0     		beq	.L179
 539:Drivers/STM32F1xx_HAL_Driver/Src/stm32f1xx_hal_dma.c ****     {
 540:Drivers/STM32F1xx_HAL_Driver/Src/stm32f1xx_hal_dma.c ****       /* When a DMA transfer error occurs */
 541:Drivers/STM32F1xx_HAL_Driver/Src/stm32f1xx_hal_dma.c ****       /* A hardware clear of its EN bits is performed */
 542:Drivers/STM32F1xx_HAL_Driver/Src/stm32f1xx_hal_dma.c ****       /* Clear all flags */
 543:Drivers/STM32F1xx_HAL_Driver/Src/stm32f1xx_hal_dma.c ****       hdma->DmaBaseAddress->IFCR = (DMA_ISR_GIF1 << hdma->ChannelIndex);
 1683              		.loc 1 543 57
 1684 0370 FB68     		ldr	r3, [r7, #12]
 1685 0372 1A6C     		ldr	r2, [r3, #64]
 1686              		.loc 1 543 11
 1687 0374 FB68     		ldr	r3, [r7, #12]
 1688 0376 DB6B     		ldr	r3, [r3, #60]
 1689              		.loc 1 543 50
ARM GAS  /tmp/ccfL2ZiY.s 			page 40


 1690 0378 0121     		movs	r1, #1
 1691 037a 01FA02F2 		lsl	r2, r1, r2
 1692              		.loc 1 543 34
 1693 037e 5A60     		str	r2, [r3, #4]
 544:Drivers/STM32F1xx_HAL_Driver/Src/stm32f1xx_hal_dma.c **** 
 545:Drivers/STM32F1xx_HAL_Driver/Src/stm32f1xx_hal_dma.c ****       /* Update error code */
 546:Drivers/STM32F1xx_HAL_Driver/Src/stm32f1xx_hal_dma.c ****       SET_BIT(hdma->ErrorCode, HAL_DMA_ERROR_TE);
 1694              		.loc 1 546 7
 1695 0380 FB68     		ldr	r3, [r7, #12]
 1696 0382 9B6B     		ldr	r3, [r3, #56]
 1697 0384 43F00102 		orr	r2, r3, #1
 1698 0388 FB68     		ldr	r3, [r7, #12]
 1699 038a 9A63     		str	r2, [r3, #56]
 547:Drivers/STM32F1xx_HAL_Driver/Src/stm32f1xx_hal_dma.c **** 
 548:Drivers/STM32F1xx_HAL_Driver/Src/stm32f1xx_hal_dma.c ****       /* Change the DMA state */
 549:Drivers/STM32F1xx_HAL_Driver/Src/stm32f1xx_hal_dma.c ****       hdma->State= HAL_DMA_STATE_READY;
 1700              		.loc 1 549 18
 1701 038c FB68     		ldr	r3, [r7, #12]
 1702 038e 0122     		movs	r2, #1
 1703 0390 83F82120 		strb	r2, [r3, #33]
 550:Drivers/STM32F1xx_HAL_Driver/Src/stm32f1xx_hal_dma.c **** 
 551:Drivers/STM32F1xx_HAL_Driver/Src/stm32f1xx_hal_dma.c ****       /* Process Unlocked */
 552:Drivers/STM32F1xx_HAL_Driver/Src/stm32f1xx_hal_dma.c ****       __HAL_UNLOCK(hdma);
 1704              		.loc 1 552 7
 1705 0394 FB68     		ldr	r3, [r7, #12]
 1706 0396 0022     		movs	r2, #0
 1707 0398 83F82020 		strb	r2, [r3, #32]
 553:Drivers/STM32F1xx_HAL_Driver/Src/stm32f1xx_hal_dma.c **** 
 554:Drivers/STM32F1xx_HAL_Driver/Src/stm32f1xx_hal_dma.c ****       return HAL_ERROR;
 1708              		.loc 1 554 14
 1709 039c 0123     		movs	r3, #1
 1710 039e D0E1     		b	.L84
 1711              	.L179:
 555:Drivers/STM32F1xx_HAL_Driver/Src/stm32f1xx_hal_dma.c ****     }
 556:Drivers/STM32F1xx_HAL_Driver/Src/stm32f1xx_hal_dma.c ****     /* Check for the Timeout */
 557:Drivers/STM32F1xx_HAL_Driver/Src/stm32f1xx_hal_dma.c ****     if(Timeout != HAL_MAX_DELAY)
 1712              		.loc 1 557 7
 1713 03a0 7B68     		ldr	r3, [r7, #4]
 1714 03a2 B3F1FF3F 		cmp	r3, #-1
 1715 03a6 1AD0     		beq	.L132
 558:Drivers/STM32F1xx_HAL_Driver/Src/stm32f1xx_hal_dma.c ****     {
 559:Drivers/STM32F1xx_HAL_Driver/Src/stm32f1xx_hal_dma.c ****       if((Timeout == 0U) || ((HAL_GetTick() - tickstart) > Timeout))
 1716              		.loc 1 559 9
 1717 03a8 7B68     		ldr	r3, [r7, #4]
 1718 03aa 002B     		cmp	r3, #0
 1719 03ac 07D0     		beq	.L180
 1720              		.loc 1 559 31 discriminator 1
 1721 03ae FFF7FEFF 		bl	HAL_GetTick
 1722 03b2 0246     		mov	r2, r0
 1723              		.loc 1 559 45 discriminator 1
 1724 03b4 3B69     		ldr	r3, [r7, #16]
 1725 03b6 D31A     		subs	r3, r2, r3
 1726              		.loc 1 559 26 discriminator 1
 1727 03b8 7A68     		ldr	r2, [r7, #4]
 1728 03ba 9A42     		cmp	r2, r3
 1729 03bc 0FD2     		bcs	.L132
 1730              	.L180:
ARM GAS  /tmp/ccfL2ZiY.s 			page 41


 560:Drivers/STM32F1xx_HAL_Driver/Src/stm32f1xx_hal_dma.c ****       {
 561:Drivers/STM32F1xx_HAL_Driver/Src/stm32f1xx_hal_dma.c ****         /* Update error code */
 562:Drivers/STM32F1xx_HAL_Driver/Src/stm32f1xx_hal_dma.c ****         SET_BIT(hdma->ErrorCode, HAL_DMA_ERROR_TIMEOUT);
 1731              		.loc 1 562 9
 1732 03be FB68     		ldr	r3, [r7, #12]
 1733 03c0 9B6B     		ldr	r3, [r3, #56]
 1734 03c2 43F02002 		orr	r2, r3, #32
 1735 03c6 FB68     		ldr	r3, [r7, #12]
 1736 03c8 9A63     		str	r2, [r3, #56]
 563:Drivers/STM32F1xx_HAL_Driver/Src/stm32f1xx_hal_dma.c **** 
 564:Drivers/STM32F1xx_HAL_Driver/Src/stm32f1xx_hal_dma.c ****         /* Change the DMA state */
 565:Drivers/STM32F1xx_HAL_Driver/Src/stm32f1xx_hal_dma.c ****         hdma->State = HAL_DMA_STATE_READY;
 1737              		.loc 1 565 21
 1738 03ca FB68     		ldr	r3, [r7, #12]
 1739 03cc 0122     		movs	r2, #1
 1740 03ce 83F82120 		strb	r2, [r3, #33]
 566:Drivers/STM32F1xx_HAL_Driver/Src/stm32f1xx_hal_dma.c **** 
 567:Drivers/STM32F1xx_HAL_Driver/Src/stm32f1xx_hal_dma.c ****         /* Process Unlocked */
 568:Drivers/STM32F1xx_HAL_Driver/Src/stm32f1xx_hal_dma.c ****         __HAL_UNLOCK(hdma);
 1741              		.loc 1 568 9
 1742 03d2 FB68     		ldr	r3, [r7, #12]
 1743 03d4 0022     		movs	r2, #0
 1744 03d6 83F82020 		strb	r2, [r3, #32]
 569:Drivers/STM32F1xx_HAL_Driver/Src/stm32f1xx_hal_dma.c **** 
 570:Drivers/STM32F1xx_HAL_Driver/Src/stm32f1xx_hal_dma.c ****         return HAL_ERROR;
 1745              		.loc 1 570 16
 1746 03da 0123     		movs	r3, #1
 1747 03dc B1E1     		b	.L84
 1748              	.L132:
 536:Drivers/STM32F1xx_HAL_Driver/Src/stm32f1xx_hal_dma.c ****   {
 1749              		.loc 1 536 9
 1750 03de FB68     		ldr	r3, [r7, #12]
 1751 03e0 1B68     		ldr	r3, [r3]
 1752 03e2 1A46     		mov	r2, r3
 536:Drivers/STM32F1xx_HAL_Driver/Src/stm32f1xx_hal_dma.c ****   {
 1753              		.loc 1 536 40
 1754 03e4 444B     		ldr	r3, .L279+28
 1755 03e6 9A42     		cmp	r2, r3
 1756 03e8 09D9     		bls	.L181
 536:Drivers/STM32F1xx_HAL_Driver/Src/stm32f1xx_hal_dma.c ****   {
 1757              		.loc 1 536 9 discriminator 1
 1758 03ea 484B     		ldr	r3, .L279+48
 1759 03ec 1A68     		ldr	r2, [r3]
 1760 03ee 7B69     		ldr	r3, [r7, #20]
 1761 03f0 1340     		ands	r3, r3, r2
 536:Drivers/STM32F1xx_HAL_Driver/Src/stm32f1xx_hal_dma.c ****   {
 1762              		.loc 1 536 40 discriminator 1
 1763 03f2 002B     		cmp	r3, #0
 1764 03f4 0CBF     		ite	eq
 1765 03f6 0123     		moveq	r3, #1
 1766 03f8 0023     		movne	r3, #0
 1767 03fa DBB2     		uxtb	r3, r3
 1768 03fc 08E0     		b	.L182
 1769              	.L181:
 536:Drivers/STM32F1xx_HAL_Driver/Src/stm32f1xx_hal_dma.c ****   {
 1770              		.loc 1 536 9 discriminator 2
 1771 03fe 374B     		ldr	r3, .L279
ARM GAS  /tmp/ccfL2ZiY.s 			page 42


 1772 0400 1A68     		ldr	r2, [r3]
 1773 0402 7B69     		ldr	r3, [r7, #20]
 1774 0404 1340     		ands	r3, r3, r2
 536:Drivers/STM32F1xx_HAL_Driver/Src/stm32f1xx_hal_dma.c ****   {
 1775              		.loc 1 536 40 discriminator 2
 1776 0406 002B     		cmp	r3, #0
 1777 0408 0CBF     		ite	eq
 1778 040a 0123     		moveq	r3, #1
 1779 040c 0023     		movne	r3, #0
 1780 040e DBB2     		uxtb	r3, r3
 1781              	.L182:
 536:Drivers/STM32F1xx_HAL_Driver/Src/stm32f1xx_hal_dma.c ****   {
 1782              		.loc 1 536 8 discriminator 4
 1783 0410 002B     		cmp	r3, #0
 1784 0412 7FF4CFAE 		bne	.L183
 571:Drivers/STM32F1xx_HAL_Driver/Src/stm32f1xx_hal_dma.c ****       }
 572:Drivers/STM32F1xx_HAL_Driver/Src/stm32f1xx_hal_dma.c ****     }
 573:Drivers/STM32F1xx_HAL_Driver/Src/stm32f1xx_hal_dma.c ****   }
 574:Drivers/STM32F1xx_HAL_Driver/Src/stm32f1xx_hal_dma.c **** 
 575:Drivers/STM32F1xx_HAL_Driver/Src/stm32f1xx_hal_dma.c ****   if(CompleteLevel == HAL_DMA_FULL_TRANSFER)
 1785              		.loc 1 575 5
 1786 0416 BB68     		ldr	r3, [r7, #8]
 1787 0418 002B     		cmp	r3, #0
 1788 041a 40F0D680 		bne	.L184
 576:Drivers/STM32F1xx_HAL_Driver/Src/stm32f1xx_hal_dma.c ****   {
 577:Drivers/STM32F1xx_HAL_Driver/Src/stm32f1xx_hal_dma.c ****     /* Clear the transfer complete flag */
 578:Drivers/STM32F1xx_HAL_Driver/Src/stm32f1xx_hal_dma.c ****     __HAL_DMA_CLEAR_FLAG(hdma, __HAL_DMA_GET_TC_FLAG_INDEX(hdma));
 1789              		.loc 1 578 5
 1790 041e FB68     		ldr	r3, [r7, #12]
 1791 0420 1B68     		ldr	r3, [r3]
 1792 0422 1A46     		mov	r2, r3
 1793 0424 344B     		ldr	r3, .L279+28
 1794 0426 9A42     		cmp	r2, r3
 1795 0428 72D9     		bls	.L185
 1796              		.loc 1 578 5 is_stmt 0 discriminator 1
 1797 042a FB68     		ldr	r3, [r7, #12]
 1798 042c 1B68     		ldr	r3, [r3]
 1799 042e 2C4A     		ldr	r2, .L279+4
 1800 0430 9342     		cmp	r3, r2
 1801 0432 4FD0     		beq	.L186
 1802              		.loc 1 578 5 discriminator 3
 1803 0434 FB68     		ldr	r3, [r7, #12]
 1804 0436 1B68     		ldr	r3, [r3]
 1805 0438 2A4A     		ldr	r2, .L279+8
 1806 043a 9342     		cmp	r3, r2
 1807 043c 48D0     		beq	.L187
 1808              		.loc 1 578 5 discriminator 5
 1809 043e FB68     		ldr	r3, [r7, #12]
 1810 0440 1B68     		ldr	r3, [r3]
 1811 0442 294A     		ldr	r2, .L279+12
 1812 0444 9342     		cmp	r3, r2
 1813 0446 40D0     		beq	.L188
 1814              		.loc 1 578 5 discriminator 7
 1815 0448 FB68     		ldr	r3, [r7, #12]
 1816 044a 1B68     		ldr	r3, [r3]
 1817 044c 274A     		ldr	r2, .L279+16
 1818 044e 9342     		cmp	r3, r2
ARM GAS  /tmp/ccfL2ZiY.s 			page 43


 1819 0450 38D0     		beq	.L189
 1820              		.loc 1 578 5 discriminator 9
 1821 0452 FB68     		ldr	r3, [r7, #12]
 1822 0454 1B68     		ldr	r3, [r3]
 1823 0456 264A     		ldr	r2, .L279+20
 1824 0458 9342     		cmp	r3, r2
 1825 045a 30D0     		beq	.L190
 1826              		.loc 1 578 5 discriminator 11
 1827 045c FB68     		ldr	r3, [r7, #12]
 1828 045e 1B68     		ldr	r3, [r3]
 1829 0460 244A     		ldr	r2, .L279+24
 1830 0462 9342     		cmp	r3, r2
 1831 0464 28D0     		beq	.L191
 1832              		.loc 1 578 5 discriminator 13
 1833 0466 FB68     		ldr	r3, [r7, #12]
 1834 0468 1B68     		ldr	r3, [r3]
 1835 046a 234A     		ldr	r2, .L279+28
 1836 046c 9342     		cmp	r3, r2
 1837 046e 20D0     		beq	.L192
 1838              		.loc 1 578 5 discriminator 15
 1839 0470 FB68     		ldr	r3, [r7, #12]
 1840 0472 1B68     		ldr	r3, [r3]
 1841 0474 214A     		ldr	r2, .L279+32
 1842 0476 9342     		cmp	r3, r2
 1843 0478 19D0     		beq	.L193
 1844              		.loc 1 578 5 discriminator 17
 1845 047a FB68     		ldr	r3, [r7, #12]
 1846 047c 1B68     		ldr	r3, [r3]
 1847 047e 204A     		ldr	r2, .L279+36
 1848 0480 9342     		cmp	r3, r2
 1849 0482 12D0     		beq	.L194
 1850              		.loc 1 578 5 discriminator 19
 1851 0484 FB68     		ldr	r3, [r7, #12]
 1852 0486 1B68     		ldr	r3, [r3]
 1853 0488 1E4A     		ldr	r2, .L279+40
 1854 048a 9342     		cmp	r3, r2
 1855 048c 0AD0     		beq	.L195
 1856              		.loc 1 578 5 discriminator 21
 1857 048e FB68     		ldr	r3, [r7, #12]
 1858 0490 1B68     		ldr	r3, [r3]
 1859 0492 1D4A     		ldr	r2, .L279+44
 1860 0494 9342     		cmp	r3, r2
 1861 0496 02D1     		bne	.L196
 1862              		.loc 1 578 5 discriminator 23
 1863 0498 4FF40053 		mov	r3, #8192
 1864 049c 1BE0     		b	.L207
 1865              	.L196:
 1866              		.loc 1 578 5 discriminator 24
 1867 049e 4FF40033 		mov	r3, #131072
 1868 04a2 18E0     		b	.L207
 1869              	.L195:
 1870              		.loc 1 578 5 discriminator 22
 1871 04a4 4FF40073 		mov	r3, #512
 1872 04a8 15E0     		b	.L207
 1873              	.L194:
 1874              		.loc 1 578 5 discriminator 20
 1875 04aa 2023     		movs	r3, #32
ARM GAS  /tmp/ccfL2ZiY.s 			page 44


 1876 04ac 13E0     		b	.L207
 1877              	.L193:
 1878              		.loc 1 578 5 discriminator 18
 1879 04ae 0223     		movs	r3, #2
 1880 04b0 11E0     		b	.L207
 1881              	.L192:
 1882              		.loc 1 578 5 discriminator 16
 1883 04b2 4FF00073 		mov	r3, #33554432
 1884 04b6 0EE0     		b	.L207
 1885              	.L191:
 1886              		.loc 1 578 5 discriminator 14
 1887 04b8 4FF40013 		mov	r3, #2097152
 1888 04bc 0BE0     		b	.L207
 1889              	.L190:
 1890              		.loc 1 578 5 discriminator 12
 1891 04be 4FF40033 		mov	r3, #131072
 1892 04c2 08E0     		b	.L207
 1893              	.L189:
 1894              		.loc 1 578 5 discriminator 10
 1895 04c4 4FF40053 		mov	r3, #8192
 1896 04c8 05E0     		b	.L207
 1897              	.L188:
 1898              		.loc 1 578 5 discriminator 8
 1899 04ca 4FF40073 		mov	r3, #512
 1900 04ce 02E0     		b	.L207
 1901              	.L187:
 1902              		.loc 1 578 5 discriminator 6
 1903 04d0 2023     		movs	r3, #32
 1904 04d2 00E0     		b	.L207
 1905              	.L186:
 1906              		.loc 1 578 5 discriminator 4
 1907 04d4 0223     		movs	r3, #2
 1908              	.L207:
 1909              		.loc 1 578 5 discriminator 46
 1910 04d6 0D4A     		ldr	r2, .L279+48
 1911 04d8 5360     		str	r3, [r2, #4]
 1912 04da 71E0     		b	.L208
 1913              	.L280:
 1914              		.align	2
 1915              	.L279:
 1916 04dc 00000240 		.word	1073872896
 1917 04e0 08000240 		.word	1073872904
 1918 04e4 1C000240 		.word	1073872924
 1919 04e8 30000240 		.word	1073872944
 1920 04ec 44000240 		.word	1073872964
 1921 04f0 58000240 		.word	1073872984
 1922 04f4 6C000240 		.word	1073873004
 1923 04f8 80000240 		.word	1073873024
 1924 04fc 08040240 		.word	1073873928
 1925 0500 1C040240 		.word	1073873948
 1926 0504 30040240 		.word	1073873968
 1927 0508 44040240 		.word	1073873988
 1928 050c 00040240 		.word	1073873920
 1929              	.L185:
 1930              		.loc 1 578 5 discriminator 2
 1931 0510 FB68     		ldr	r3, [r7, #12]
 1932 0512 1B68     		ldr	r3, [r3]
ARM GAS  /tmp/ccfL2ZiY.s 			page 45


 1933 0514 8D4A     		ldr	r2, .L281
 1934 0516 9342     		cmp	r3, r2
 1935 0518 4FD0     		beq	.L209
 1936              		.loc 1 578 5 discriminator 47
 1937 051a FB68     		ldr	r3, [r7, #12]
 1938 051c 1B68     		ldr	r3, [r3]
 1939 051e 8C4A     		ldr	r2, .L281+4
 1940 0520 9342     		cmp	r3, r2
 1941 0522 48D0     		beq	.L210
 1942              		.loc 1 578 5 discriminator 49
 1943 0524 FB68     		ldr	r3, [r7, #12]
 1944 0526 1B68     		ldr	r3, [r3]
 1945 0528 8A4A     		ldr	r2, .L281+8
 1946 052a 9342     		cmp	r3, r2
 1947 052c 40D0     		beq	.L211
 1948              		.loc 1 578 5 discriminator 51
 1949 052e FB68     		ldr	r3, [r7, #12]
 1950 0530 1B68     		ldr	r3, [r3]
 1951 0532 894A     		ldr	r2, .L281+12
 1952 0534 9342     		cmp	r3, r2
 1953 0536 38D0     		beq	.L212
 1954              		.loc 1 578 5 discriminator 53
 1955 0538 FB68     		ldr	r3, [r7, #12]
 1956 053a 1B68     		ldr	r3, [r3]
 1957 053c 874A     		ldr	r2, .L281+16
 1958 053e 9342     		cmp	r3, r2
 1959 0540 30D0     		beq	.L213
 1960              		.loc 1 578 5 discriminator 55
 1961 0542 FB68     		ldr	r3, [r7, #12]
 1962 0544 1B68     		ldr	r3, [r3]
 1963 0546 864A     		ldr	r2, .L281+20
 1964 0548 9342     		cmp	r3, r2
 1965 054a 28D0     		beq	.L214
 1966              		.loc 1 578 5 discriminator 57
 1967 054c FB68     		ldr	r3, [r7, #12]
 1968 054e 1B68     		ldr	r3, [r3]
 1969 0550 844A     		ldr	r2, .L281+24
 1970 0552 9342     		cmp	r3, r2
 1971 0554 20D0     		beq	.L215
 1972              		.loc 1 578 5 discriminator 59
 1973 0556 FB68     		ldr	r3, [r7, #12]
 1974 0558 1B68     		ldr	r3, [r3]
 1975 055a 834A     		ldr	r2, .L281+28
 1976 055c 9342     		cmp	r3, r2
 1977 055e 19D0     		beq	.L216
 1978              		.loc 1 578 5 discriminator 61
 1979 0560 FB68     		ldr	r3, [r7, #12]
 1980 0562 1B68     		ldr	r3, [r3]
 1981 0564 814A     		ldr	r2, .L281+32
 1982 0566 9342     		cmp	r3, r2
 1983 0568 12D0     		beq	.L217
 1984              		.loc 1 578 5 discriminator 63
 1985 056a FB68     		ldr	r3, [r7, #12]
 1986 056c 1B68     		ldr	r3, [r3]
 1987 056e 804A     		ldr	r2, .L281+36
 1988 0570 9342     		cmp	r3, r2
 1989 0572 0AD0     		beq	.L218
ARM GAS  /tmp/ccfL2ZiY.s 			page 46


 1990              		.loc 1 578 5 discriminator 65
 1991 0574 FB68     		ldr	r3, [r7, #12]
 1992 0576 1B68     		ldr	r3, [r3]
 1993 0578 7E4A     		ldr	r2, .L281+40
 1994 057a 9342     		cmp	r3, r2
 1995 057c 02D1     		bne	.L219
 1996              		.loc 1 578 5 discriminator 67
 1997 057e 4FF40053 		mov	r3, #8192
 1998 0582 1BE0     		b	.L230
 1999              	.L219:
 2000              		.loc 1 578 5 discriminator 68
 2001 0584 4FF40033 		mov	r3, #131072
 2002 0588 18E0     		b	.L230
 2003              	.L218:
 2004              		.loc 1 578 5 discriminator 66
 2005 058a 4FF40073 		mov	r3, #512
 2006 058e 15E0     		b	.L230
 2007              	.L217:
 2008              		.loc 1 578 5 discriminator 64
 2009 0590 2023     		movs	r3, #32
 2010 0592 13E0     		b	.L230
 2011              	.L216:
 2012              		.loc 1 578 5 discriminator 62
 2013 0594 0223     		movs	r3, #2
 2014 0596 11E0     		b	.L230
 2015              	.L215:
 2016              		.loc 1 578 5 discriminator 60
 2017 0598 4FF00073 		mov	r3, #33554432
 2018 059c 0EE0     		b	.L230
 2019              	.L214:
 2020              		.loc 1 578 5 discriminator 58
 2021 059e 4FF40013 		mov	r3, #2097152
 2022 05a2 0BE0     		b	.L230
 2023              	.L213:
 2024              		.loc 1 578 5 discriminator 56
 2025 05a4 4FF40033 		mov	r3, #131072
 2026 05a8 08E0     		b	.L230
 2027              	.L212:
 2028              		.loc 1 578 5 discriminator 54
 2029 05aa 4FF40053 		mov	r3, #8192
 2030 05ae 05E0     		b	.L230
 2031              	.L211:
 2032              		.loc 1 578 5 discriminator 52
 2033 05b0 4FF40073 		mov	r3, #512
 2034 05b4 02E0     		b	.L230
 2035              	.L210:
 2036              		.loc 1 578 5 discriminator 50
 2037 05b6 2023     		movs	r3, #32
 2038 05b8 00E0     		b	.L230
 2039              	.L209:
 2040              		.loc 1 578 5 discriminator 48
 2041 05ba 0223     		movs	r3, #2
 2042              	.L230:
 2043              		.loc 1 578 5 discriminator 90
 2044 05bc 6E4A     		ldr	r2, .L281+44
 2045 05be 5360     		str	r3, [r2, #4]
 2046              	.L208:
ARM GAS  /tmp/ccfL2ZiY.s 			page 47


 579:Drivers/STM32F1xx_HAL_Driver/Src/stm32f1xx_hal_dma.c **** 
 580:Drivers/STM32F1xx_HAL_Driver/Src/stm32f1xx_hal_dma.c ****     /* The selected Channelx EN bit is cleared (DMA is disabled and
 581:Drivers/STM32F1xx_HAL_Driver/Src/stm32f1xx_hal_dma.c ****     all transfers are complete) */
 582:Drivers/STM32F1xx_HAL_Driver/Src/stm32f1xx_hal_dma.c ****     hdma->State = HAL_DMA_STATE_READY;
 2047              		.loc 1 582 17 is_stmt 1
 2048 05c0 FB68     		ldr	r3, [r7, #12]
 2049 05c2 0122     		movs	r2, #1
 2050 05c4 83F82120 		strb	r2, [r3, #33]
 2051 05c8 B6E0     		b	.L231
 2052              	.L184:
 583:Drivers/STM32F1xx_HAL_Driver/Src/stm32f1xx_hal_dma.c ****   }
 584:Drivers/STM32F1xx_HAL_Driver/Src/stm32f1xx_hal_dma.c ****   else
 585:Drivers/STM32F1xx_HAL_Driver/Src/stm32f1xx_hal_dma.c ****   {
 586:Drivers/STM32F1xx_HAL_Driver/Src/stm32f1xx_hal_dma.c ****     /* Clear the half transfer complete flag */
 587:Drivers/STM32F1xx_HAL_Driver/Src/stm32f1xx_hal_dma.c ****     __HAL_DMA_CLEAR_FLAG(hdma, __HAL_DMA_GET_HT_FLAG_INDEX(hdma));
 2053              		.loc 1 587 5
 2054 05ca FB68     		ldr	r3, [r7, #12]
 2055 05cc 1B68     		ldr	r3, [r3]
 2056 05ce 1A46     		mov	r2, r3
 2057 05d0 644B     		ldr	r3, .L281+24
 2058 05d2 9A42     		cmp	r2, r3
 2059 05d4 58D9     		bls	.L232
 2060              		.loc 1 587 5 is_stmt 0 discriminator 1
 2061 05d6 FB68     		ldr	r3, [r7, #12]
 2062 05d8 1B68     		ldr	r3, [r3]
 2063 05da 5C4A     		ldr	r2, .L281
 2064 05dc 9342     		cmp	r3, r2
 2065 05de 4FD0     		beq	.L233
 2066              		.loc 1 587 5 discriminator 3
 2067 05e0 FB68     		ldr	r3, [r7, #12]
 2068 05e2 1B68     		ldr	r3, [r3]
 2069 05e4 5A4A     		ldr	r2, .L281+4
 2070 05e6 9342     		cmp	r3, r2
 2071 05e8 48D0     		beq	.L234
 2072              		.loc 1 587 5 discriminator 5
 2073 05ea FB68     		ldr	r3, [r7, #12]
 2074 05ec 1B68     		ldr	r3, [r3]
 2075 05ee 594A     		ldr	r2, .L281+8
 2076 05f0 9342     		cmp	r3, r2
 2077 05f2 40D0     		beq	.L235
 2078              		.loc 1 587 5 discriminator 7
 2079 05f4 FB68     		ldr	r3, [r7, #12]
 2080 05f6 1B68     		ldr	r3, [r3]
 2081 05f8 574A     		ldr	r2, .L281+12
 2082 05fa 9342     		cmp	r3, r2
 2083 05fc 38D0     		beq	.L236
 2084              		.loc 1 587 5 discriminator 9
 2085 05fe FB68     		ldr	r3, [r7, #12]
 2086 0600 1B68     		ldr	r3, [r3]
 2087 0602 564A     		ldr	r2, .L281+16
 2088 0604 9342     		cmp	r3, r2
 2089 0606 30D0     		beq	.L237
 2090              		.loc 1 587 5 discriminator 11
 2091 0608 FB68     		ldr	r3, [r7, #12]
 2092 060a 1B68     		ldr	r3, [r3]
 2093 060c 544A     		ldr	r2, .L281+20
 2094 060e 9342     		cmp	r3, r2
ARM GAS  /tmp/ccfL2ZiY.s 			page 48


 2095 0610 28D0     		beq	.L238
 2096              		.loc 1 587 5 discriminator 13
 2097 0612 FB68     		ldr	r3, [r7, #12]
 2098 0614 1B68     		ldr	r3, [r3]
 2099 0616 534A     		ldr	r2, .L281+24
 2100 0618 9342     		cmp	r3, r2
 2101 061a 20D0     		beq	.L239
 2102              		.loc 1 587 5 discriminator 15
 2103 061c FB68     		ldr	r3, [r7, #12]
 2104 061e 1B68     		ldr	r3, [r3]
 2105 0620 514A     		ldr	r2, .L281+28
 2106 0622 9342     		cmp	r3, r2
 2107 0624 19D0     		beq	.L240
 2108              		.loc 1 587 5 discriminator 17
 2109 0626 FB68     		ldr	r3, [r7, #12]
 2110 0628 1B68     		ldr	r3, [r3]
 2111 062a 504A     		ldr	r2, .L281+32
 2112 062c 9342     		cmp	r3, r2
 2113 062e 12D0     		beq	.L241
 2114              		.loc 1 587 5 discriminator 19
 2115 0630 FB68     		ldr	r3, [r7, #12]
 2116 0632 1B68     		ldr	r3, [r3]
 2117 0634 4E4A     		ldr	r2, .L281+36
 2118 0636 9342     		cmp	r3, r2
 2119 0638 0AD0     		beq	.L242
 2120              		.loc 1 587 5 discriminator 21
 2121 063a FB68     		ldr	r3, [r7, #12]
 2122 063c 1B68     		ldr	r3, [r3]
 2123 063e 4D4A     		ldr	r2, .L281+40
 2124 0640 9342     		cmp	r3, r2
 2125 0642 02D1     		bne	.L243
 2126              		.loc 1 587 5 discriminator 23
 2127 0644 4FF48043 		mov	r3, #16384
 2128 0648 1BE0     		b	.L254
 2129              	.L243:
 2130              		.loc 1 587 5 discriminator 24
 2131 064a 4FF48023 		mov	r3, #262144
 2132 064e 18E0     		b	.L254
 2133              	.L242:
 2134              		.loc 1 587 5 discriminator 22
 2135 0650 4FF48063 		mov	r3, #1024
 2136 0654 15E0     		b	.L254
 2137              	.L241:
 2138              		.loc 1 587 5 discriminator 20
 2139 0656 4023     		movs	r3, #64
 2140 0658 13E0     		b	.L254
 2141              	.L240:
 2142              		.loc 1 587 5 discriminator 18
 2143 065a 0423     		movs	r3, #4
 2144 065c 11E0     		b	.L254
 2145              	.L239:
 2146              		.loc 1 587 5 discriminator 16
 2147 065e 4FF08063 		mov	r3, #67108864
 2148 0662 0EE0     		b	.L254
 2149              	.L238:
 2150              		.loc 1 587 5 discriminator 14
 2151 0664 4FF48003 		mov	r3, #4194304
ARM GAS  /tmp/ccfL2ZiY.s 			page 49


 2152 0668 0BE0     		b	.L254
 2153              	.L237:
 2154              		.loc 1 587 5 discriminator 12
 2155 066a 4FF48023 		mov	r3, #262144
 2156 066e 08E0     		b	.L254
 2157              	.L236:
 2158              		.loc 1 587 5 discriminator 10
 2159 0670 4FF48043 		mov	r3, #16384
 2160 0674 05E0     		b	.L254
 2161              	.L235:
 2162              		.loc 1 587 5 discriminator 8
 2163 0676 4FF48063 		mov	r3, #1024
 2164 067a 02E0     		b	.L254
 2165              	.L234:
 2166              		.loc 1 587 5 discriminator 6
 2167 067c 4023     		movs	r3, #64
 2168 067e 00E0     		b	.L254
 2169              	.L233:
 2170              		.loc 1 587 5 discriminator 4
 2171 0680 0423     		movs	r3, #4
 2172              	.L254:
 2173              		.loc 1 587 5 discriminator 46
 2174 0682 3E4A     		ldr	r2, .L281+48
 2175 0684 5360     		str	r3, [r2, #4]
 2176 0686 57E0     		b	.L231
 2177              	.L232:
 2178              		.loc 1 587 5 discriminator 2
 2179 0688 FB68     		ldr	r3, [r7, #12]
 2180 068a 1B68     		ldr	r3, [r3]
 2181 068c 2F4A     		ldr	r2, .L281
 2182 068e 9342     		cmp	r3, r2
 2183 0690 4FD0     		beq	.L255
 2184              		.loc 1 587 5 discriminator 47
 2185 0692 FB68     		ldr	r3, [r7, #12]
 2186 0694 1B68     		ldr	r3, [r3]
 2187 0696 2E4A     		ldr	r2, .L281+4
 2188 0698 9342     		cmp	r3, r2
 2189 069a 48D0     		beq	.L256
 2190              		.loc 1 587 5 discriminator 49
 2191 069c FB68     		ldr	r3, [r7, #12]
 2192 069e 1B68     		ldr	r3, [r3]
 2193 06a0 2C4A     		ldr	r2, .L281+8
 2194 06a2 9342     		cmp	r3, r2
 2195 06a4 40D0     		beq	.L257
 2196              		.loc 1 587 5 discriminator 51
 2197 06a6 FB68     		ldr	r3, [r7, #12]
 2198 06a8 1B68     		ldr	r3, [r3]
 2199 06aa 2B4A     		ldr	r2, .L281+12
 2200 06ac 9342     		cmp	r3, r2
 2201 06ae 38D0     		beq	.L258
 2202              		.loc 1 587 5 discriminator 53
 2203 06b0 FB68     		ldr	r3, [r7, #12]
 2204 06b2 1B68     		ldr	r3, [r3]
 2205 06b4 294A     		ldr	r2, .L281+16
 2206 06b6 9342     		cmp	r3, r2
 2207 06b8 30D0     		beq	.L259
 2208              		.loc 1 587 5 discriminator 55
ARM GAS  /tmp/ccfL2ZiY.s 			page 50


 2209 06ba FB68     		ldr	r3, [r7, #12]
 2210 06bc 1B68     		ldr	r3, [r3]
 2211 06be 284A     		ldr	r2, .L281+20
 2212 06c0 9342     		cmp	r3, r2
 2213 06c2 28D0     		beq	.L260
 2214              		.loc 1 587 5 discriminator 57
 2215 06c4 FB68     		ldr	r3, [r7, #12]
 2216 06c6 1B68     		ldr	r3, [r3]
 2217 06c8 264A     		ldr	r2, .L281+24
 2218 06ca 9342     		cmp	r3, r2
 2219 06cc 20D0     		beq	.L261
 2220              		.loc 1 587 5 discriminator 59
 2221 06ce FB68     		ldr	r3, [r7, #12]
 2222 06d0 1B68     		ldr	r3, [r3]
 2223 06d2 254A     		ldr	r2, .L281+28
 2224 06d4 9342     		cmp	r3, r2
 2225 06d6 19D0     		beq	.L262
 2226              		.loc 1 587 5 discriminator 61
 2227 06d8 FB68     		ldr	r3, [r7, #12]
 2228 06da 1B68     		ldr	r3, [r3]
 2229 06dc 234A     		ldr	r2, .L281+32
 2230 06de 9342     		cmp	r3, r2
 2231 06e0 12D0     		beq	.L263
 2232              		.loc 1 587 5 discriminator 63
 2233 06e2 FB68     		ldr	r3, [r7, #12]
 2234 06e4 1B68     		ldr	r3, [r3]
 2235 06e6 224A     		ldr	r2, .L281+36
 2236 06e8 9342     		cmp	r3, r2
 2237 06ea 0AD0     		beq	.L264
 2238              		.loc 1 587 5 discriminator 65
 2239 06ec FB68     		ldr	r3, [r7, #12]
 2240 06ee 1B68     		ldr	r3, [r3]
 2241 06f0 204A     		ldr	r2, .L281+40
 2242 06f2 9342     		cmp	r3, r2
 2243 06f4 02D1     		bne	.L265
 2244              		.loc 1 587 5 discriminator 67
 2245 06f6 4FF48043 		mov	r3, #16384
 2246 06fa 1BE0     		b	.L276
 2247              	.L265:
 2248              		.loc 1 587 5 discriminator 68
 2249 06fc 4FF48023 		mov	r3, #262144
 2250 0700 18E0     		b	.L276
 2251              	.L264:
 2252              		.loc 1 587 5 discriminator 66
 2253 0702 4FF48063 		mov	r3, #1024
 2254 0706 15E0     		b	.L276
 2255              	.L263:
 2256              		.loc 1 587 5 discriminator 64
 2257 0708 4023     		movs	r3, #64
 2258 070a 13E0     		b	.L276
 2259              	.L262:
 2260              		.loc 1 587 5 discriminator 62
 2261 070c 0423     		movs	r3, #4
 2262 070e 11E0     		b	.L276
 2263              	.L261:
 2264              		.loc 1 587 5 discriminator 60
 2265 0710 4FF08063 		mov	r3, #67108864
ARM GAS  /tmp/ccfL2ZiY.s 			page 51


 2266 0714 0EE0     		b	.L276
 2267              	.L260:
 2268              		.loc 1 587 5 discriminator 58
 2269 0716 4FF48003 		mov	r3, #4194304
 2270 071a 0BE0     		b	.L276
 2271              	.L259:
 2272              		.loc 1 587 5 discriminator 56
 2273 071c 4FF48023 		mov	r3, #262144
 2274 0720 08E0     		b	.L276
 2275              	.L258:
 2276              		.loc 1 587 5 discriminator 54
 2277 0722 4FF48043 		mov	r3, #16384
 2278 0726 05E0     		b	.L276
 2279              	.L257:
 2280              		.loc 1 587 5 discriminator 52
 2281 0728 4FF48063 		mov	r3, #1024
 2282 072c 02E0     		b	.L276
 2283              	.L256:
 2284              		.loc 1 587 5 discriminator 50
 2285 072e 4023     		movs	r3, #64
 2286 0730 00E0     		b	.L276
 2287              	.L255:
 2288              		.loc 1 587 5 discriminator 48
 2289 0732 0423     		movs	r3, #4
 2290              	.L276:
 2291              		.loc 1 587 5 discriminator 90
 2292 0734 104A     		ldr	r2, .L281+44
 2293 0736 5360     		str	r3, [r2, #4]
 2294              	.L231:
 588:Drivers/STM32F1xx_HAL_Driver/Src/stm32f1xx_hal_dma.c ****   }
 589:Drivers/STM32F1xx_HAL_Driver/Src/stm32f1xx_hal_dma.c ****   
 590:Drivers/STM32F1xx_HAL_Driver/Src/stm32f1xx_hal_dma.c ****   /* Process unlocked */
 591:Drivers/STM32F1xx_HAL_Driver/Src/stm32f1xx_hal_dma.c ****   __HAL_UNLOCK(hdma);
 2295              		.loc 1 591 3 is_stmt 1
 2296 0738 FB68     		ldr	r3, [r7, #12]
 2297 073a 0022     		movs	r2, #0
 2298 073c 83F82020 		strb	r2, [r3, #32]
 592:Drivers/STM32F1xx_HAL_Driver/Src/stm32f1xx_hal_dma.c **** 
 593:Drivers/STM32F1xx_HAL_Driver/Src/stm32f1xx_hal_dma.c ****   return HAL_OK;
 2299              		.loc 1 593 10
 2300 0740 0023     		movs	r3, #0
 2301              	.L84:
 594:Drivers/STM32F1xx_HAL_Driver/Src/stm32f1xx_hal_dma.c **** }
 2302              		.loc 1 594 1
 2303 0742 1846     		mov	r0, r3
 2304 0744 1837     		adds	r7, r7, #24
 2305              	.LCFI36:
 2306              		.cfi_def_cfa_offset 8
 2307 0746 BD46     		mov	sp, r7
 2308              	.LCFI37:
 2309              		.cfi_def_cfa_register 13
 2310              		@ sp needed
 2311 0748 80BD     		pop	{r7, pc}
 2312              	.L282:
 2313 074a 00BF     		.align	2
 2314              	.L281:
 2315 074c 08000240 		.word	1073872904
ARM GAS  /tmp/ccfL2ZiY.s 			page 52


 2316 0750 1C000240 		.word	1073872924
 2317 0754 30000240 		.word	1073872944
 2318 0758 44000240 		.word	1073872964
 2319 075c 58000240 		.word	1073872984
 2320 0760 6C000240 		.word	1073873004
 2321 0764 80000240 		.word	1073873024
 2322 0768 08040240 		.word	1073873928
 2323 076c 1C040240 		.word	1073873948
 2324 0770 30040240 		.word	1073873968
 2325 0774 44040240 		.word	1073873988
 2326 0778 00000240 		.word	1073872896
 2327 077c 00040240 		.word	1073873920
 2328              		.cfi_endproc
 2329              	.LFE71:
 2331              		.section	.text.HAL_DMA_IRQHandler,"ax",%progbits
 2332              		.align	1
 2333              		.global	HAL_DMA_IRQHandler
 2334              		.syntax unified
 2335              		.thumb
 2336              		.thumb_func
 2338              	HAL_DMA_IRQHandler:
 2339              	.LFB72:
 595:Drivers/STM32F1xx_HAL_Driver/Src/stm32f1xx_hal_dma.c **** 
 596:Drivers/STM32F1xx_HAL_Driver/Src/stm32f1xx_hal_dma.c **** /**
 597:Drivers/STM32F1xx_HAL_Driver/Src/stm32f1xx_hal_dma.c ****   * @brief  Handles DMA interrupt request.
 598:Drivers/STM32F1xx_HAL_Driver/Src/stm32f1xx_hal_dma.c ****   * @param  hdma: pointer to a DMA_HandleTypeDef structure that contains
 599:Drivers/STM32F1xx_HAL_Driver/Src/stm32f1xx_hal_dma.c ****   *               the configuration information for the specified DMA Channel.  
 600:Drivers/STM32F1xx_HAL_Driver/Src/stm32f1xx_hal_dma.c ****   * @retval None
 601:Drivers/STM32F1xx_HAL_Driver/Src/stm32f1xx_hal_dma.c ****   */
 602:Drivers/STM32F1xx_HAL_Driver/Src/stm32f1xx_hal_dma.c **** void HAL_DMA_IRQHandler(DMA_HandleTypeDef *hdma)
 603:Drivers/STM32F1xx_HAL_Driver/Src/stm32f1xx_hal_dma.c **** {
 2340              		.loc 1 603 1
 2341              		.cfi_startproc
 2342              		@ args = 0, pretend = 0, frame = 16
 2343              		@ frame_needed = 1, uses_anonymous_args = 0
 2344 0000 80B5     		push	{r7, lr}
 2345              	.LCFI38:
 2346              		.cfi_def_cfa_offset 8
 2347              		.cfi_offset 7, -8
 2348              		.cfi_offset 14, -4
 2349 0002 84B0     		sub	sp, sp, #16
 2350              	.LCFI39:
 2351              		.cfi_def_cfa_offset 24
 2352 0004 00AF     		add	r7, sp, #0
 2353              	.LCFI40:
 2354              		.cfi_def_cfa_register 7
 2355 0006 7860     		str	r0, [r7, #4]
 604:Drivers/STM32F1xx_HAL_Driver/Src/stm32f1xx_hal_dma.c ****   uint32_t flag_it = hdma->DmaBaseAddress->ISR;
 2356              		.loc 1 604 26
 2357 0008 7B68     		ldr	r3, [r7, #4]
 2358 000a DB6B     		ldr	r3, [r3, #60]
 2359              		.loc 1 604 12
 2360 000c 1B68     		ldr	r3, [r3]
 2361 000e FB60     		str	r3, [r7, #12]
 605:Drivers/STM32F1xx_HAL_Driver/Src/stm32f1xx_hal_dma.c ****   uint32_t source_it = hdma->Instance->CCR;
 2362              		.loc 1 605 28
 2363 0010 7B68     		ldr	r3, [r7, #4]
ARM GAS  /tmp/ccfL2ZiY.s 			page 53


 2364 0012 1B68     		ldr	r3, [r3]
 2365              		.loc 1 605 12
 2366 0014 1B68     		ldr	r3, [r3]
 2367 0016 BB60     		str	r3, [r7, #8]
 606:Drivers/STM32F1xx_HAL_Driver/Src/stm32f1xx_hal_dma.c ****   
 607:Drivers/STM32F1xx_HAL_Driver/Src/stm32f1xx_hal_dma.c ****   /* Half Transfer Complete Interrupt management ******************************/
 608:Drivers/STM32F1xx_HAL_Driver/Src/stm32f1xx_hal_dma.c ****   if (((flag_it & (DMA_FLAG_HT1 << hdma->ChannelIndex)) != RESET) && ((source_it & DMA_IT_HT) != RE
 2368              		.loc 1 608 40
 2369 0018 7B68     		ldr	r3, [r7, #4]
 2370 001a 1B6C     		ldr	r3, [r3, #64]
 2371              		.loc 1 608 33
 2372 001c 0422     		movs	r2, #4
 2373 001e 9A40     		lsls	r2, r2, r3
 2374              		.loc 1 608 17
 2375 0020 FB68     		ldr	r3, [r7, #12]
 2376 0022 1340     		ands	r3, r3, r2
 2377              		.loc 1 608 6
 2378 0024 002B     		cmp	r3, #0
 2379 0026 00F0F180 		beq	.L284
 2380              		.loc 1 608 82 discriminator 1
 2381 002a BB68     		ldr	r3, [r7, #8]
 2382 002c 03F00403 		and	r3, r3, #4
 2383              		.loc 1 608 67 discriminator 1
 2384 0030 002B     		cmp	r3, #0
 2385 0032 00F0EB80 		beq	.L284
 609:Drivers/STM32F1xx_HAL_Driver/Src/stm32f1xx_hal_dma.c ****   {
 610:Drivers/STM32F1xx_HAL_Driver/Src/stm32f1xx_hal_dma.c ****     /* Disable the half transfer interrupt if the DMA mode is not CIRCULAR */
 611:Drivers/STM32F1xx_HAL_Driver/Src/stm32f1xx_hal_dma.c ****     if((hdma->Instance->CCR & DMA_CCR_CIRC) == 0U)
 2386              		.loc 1 611 13
 2387 0036 7B68     		ldr	r3, [r7, #4]
 2388 0038 1B68     		ldr	r3, [r3]
 2389              		.loc 1 611 23
 2390 003a 1B68     		ldr	r3, [r3]
 2391              		.loc 1 611 29
 2392 003c 03F02003 		and	r3, r3, #32
 2393              		.loc 1 611 7
 2394 0040 002B     		cmp	r3, #0
 2395 0042 07D1     		bne	.L285
 612:Drivers/STM32F1xx_HAL_Driver/Src/stm32f1xx_hal_dma.c ****     {
 613:Drivers/STM32F1xx_HAL_Driver/Src/stm32f1xx_hal_dma.c ****       /* Disable the half transfer interrupt */
 614:Drivers/STM32F1xx_HAL_Driver/Src/stm32f1xx_hal_dma.c ****       __HAL_DMA_DISABLE_IT(hdma, DMA_IT_HT);
 2396              		.loc 1 614 7
 2397 0044 7B68     		ldr	r3, [r7, #4]
 2398 0046 1B68     		ldr	r3, [r3]
 2399 0048 1A68     		ldr	r2, [r3]
 2400 004a 7B68     		ldr	r3, [r7, #4]
 2401 004c 1B68     		ldr	r3, [r3]
 2402 004e 22F00402 		bic	r2, r2, #4
 2403 0052 1A60     		str	r2, [r3]
 2404              	.L285:
 615:Drivers/STM32F1xx_HAL_Driver/Src/stm32f1xx_hal_dma.c ****     }
 616:Drivers/STM32F1xx_HAL_Driver/Src/stm32f1xx_hal_dma.c ****     /* Clear the half transfer complete flag */
 617:Drivers/STM32F1xx_HAL_Driver/Src/stm32f1xx_hal_dma.c ****     __HAL_DMA_CLEAR_FLAG(hdma, __HAL_DMA_GET_HT_FLAG_INDEX(hdma));
 2405              		.loc 1 617 5
 2406 0054 7B68     		ldr	r3, [r7, #4]
 2407 0056 1B68     		ldr	r3, [r3]
 2408 0058 1A46     		mov	r2, r3
ARM GAS  /tmp/ccfL2ZiY.s 			page 54


 2409 005a 5F4B     		ldr	r3, .L385
 2410 005c 9A42     		cmp	r2, r3
 2411 005e 58D9     		bls	.L286
 2412              		.loc 1 617 5 is_stmt 0 discriminator 1
 2413 0060 7B68     		ldr	r3, [r7, #4]
 2414 0062 1B68     		ldr	r3, [r3]
 2415 0064 5D4A     		ldr	r2, .L385+4
 2416 0066 9342     		cmp	r3, r2
 2417 0068 4FD0     		beq	.L287
 2418              		.loc 1 617 5 discriminator 3
 2419 006a 7B68     		ldr	r3, [r7, #4]
 2420 006c 1B68     		ldr	r3, [r3]
 2421 006e 5C4A     		ldr	r2, .L385+8
 2422 0070 9342     		cmp	r3, r2
 2423 0072 48D0     		beq	.L288
 2424              		.loc 1 617 5 discriminator 5
 2425 0074 7B68     		ldr	r3, [r7, #4]
 2426 0076 1B68     		ldr	r3, [r3]
 2427 0078 5A4A     		ldr	r2, .L385+12
 2428 007a 9342     		cmp	r3, r2
 2429 007c 40D0     		beq	.L289
 2430              		.loc 1 617 5 discriminator 7
 2431 007e 7B68     		ldr	r3, [r7, #4]
 2432 0080 1B68     		ldr	r3, [r3]
 2433 0082 594A     		ldr	r2, .L385+16
 2434 0084 9342     		cmp	r3, r2
 2435 0086 38D0     		beq	.L290
 2436              		.loc 1 617 5 discriminator 9
 2437 0088 7B68     		ldr	r3, [r7, #4]
 2438 008a 1B68     		ldr	r3, [r3]
 2439 008c 574A     		ldr	r2, .L385+20
 2440 008e 9342     		cmp	r3, r2
 2441 0090 30D0     		beq	.L291
 2442              		.loc 1 617 5 discriminator 11
 2443 0092 7B68     		ldr	r3, [r7, #4]
 2444 0094 1B68     		ldr	r3, [r3]
 2445 0096 564A     		ldr	r2, .L385+24
 2446 0098 9342     		cmp	r3, r2
 2447 009a 28D0     		beq	.L292
 2448              		.loc 1 617 5 discriminator 13
 2449 009c 7B68     		ldr	r3, [r7, #4]
 2450 009e 1B68     		ldr	r3, [r3]
 2451 00a0 4D4A     		ldr	r2, .L385
 2452 00a2 9342     		cmp	r3, r2
 2453 00a4 20D0     		beq	.L293
 2454              		.loc 1 617 5 discriminator 15
 2455 00a6 7B68     		ldr	r3, [r7, #4]
 2456 00a8 1B68     		ldr	r3, [r3]
 2457 00aa 524A     		ldr	r2, .L385+28
 2458 00ac 9342     		cmp	r3, r2
 2459 00ae 19D0     		beq	.L294
 2460              		.loc 1 617 5 discriminator 17
 2461 00b0 7B68     		ldr	r3, [r7, #4]
 2462 00b2 1B68     		ldr	r3, [r3]
 2463 00b4 504A     		ldr	r2, .L385+32
 2464 00b6 9342     		cmp	r3, r2
 2465 00b8 12D0     		beq	.L295
ARM GAS  /tmp/ccfL2ZiY.s 			page 55


 2466              		.loc 1 617 5 discriminator 19
 2467 00ba 7B68     		ldr	r3, [r7, #4]
 2468 00bc 1B68     		ldr	r3, [r3]
 2469 00be 4F4A     		ldr	r2, .L385+36
 2470 00c0 9342     		cmp	r3, r2
 2471 00c2 0AD0     		beq	.L296
 2472              		.loc 1 617 5 discriminator 21
 2473 00c4 7B68     		ldr	r3, [r7, #4]
 2474 00c6 1B68     		ldr	r3, [r3]
 2475 00c8 4D4A     		ldr	r2, .L385+40
 2476 00ca 9342     		cmp	r3, r2
 2477 00cc 02D1     		bne	.L297
 2478              		.loc 1 617 5 discriminator 23
 2479 00ce 4FF48043 		mov	r3, #16384
 2480 00d2 1BE0     		b	.L308
 2481              	.L297:
 2482              		.loc 1 617 5 discriminator 24
 2483 00d4 4FF48023 		mov	r3, #262144
 2484 00d8 18E0     		b	.L308
 2485              	.L296:
 2486              		.loc 1 617 5 discriminator 22
 2487 00da 4FF48063 		mov	r3, #1024
 2488 00de 15E0     		b	.L308
 2489              	.L295:
 2490              		.loc 1 617 5 discriminator 20
 2491 00e0 4023     		movs	r3, #64
 2492 00e2 13E0     		b	.L308
 2493              	.L294:
 2494              		.loc 1 617 5 discriminator 18
 2495 00e4 0423     		movs	r3, #4
 2496 00e6 11E0     		b	.L308
 2497              	.L293:
 2498              		.loc 1 617 5 discriminator 16
 2499 00e8 4FF08063 		mov	r3, #67108864
 2500 00ec 0EE0     		b	.L308
 2501              	.L292:
 2502              		.loc 1 617 5 discriminator 14
 2503 00ee 4FF48003 		mov	r3, #4194304
 2504 00f2 0BE0     		b	.L308
 2505              	.L291:
 2506              		.loc 1 617 5 discriminator 12
 2507 00f4 4FF48023 		mov	r3, #262144
 2508 00f8 08E0     		b	.L308
 2509              	.L290:
 2510              		.loc 1 617 5 discriminator 10
 2511 00fa 4FF48043 		mov	r3, #16384
 2512 00fe 05E0     		b	.L308
 2513              	.L289:
 2514              		.loc 1 617 5 discriminator 8
 2515 0100 4FF48063 		mov	r3, #1024
 2516 0104 02E0     		b	.L308
 2517              	.L288:
 2518              		.loc 1 617 5 discriminator 6
 2519 0106 4023     		movs	r3, #64
 2520 0108 00E0     		b	.L308
 2521              	.L287:
 2522              		.loc 1 617 5 discriminator 4
ARM GAS  /tmp/ccfL2ZiY.s 			page 56


 2523 010a 0423     		movs	r3, #4
 2524              	.L308:
 2525              		.loc 1 617 5 discriminator 46
 2526 010c 3D4A     		ldr	r2, .L385+44
 2527 010e 5360     		str	r3, [r2, #4]
 2528 0110 57E0     		b	.L309
 2529              	.L286:
 2530              		.loc 1 617 5 discriminator 2
 2531 0112 7B68     		ldr	r3, [r7, #4]
 2532 0114 1B68     		ldr	r3, [r3]
 2533 0116 314A     		ldr	r2, .L385+4
 2534 0118 9342     		cmp	r3, r2
 2535 011a 4FD0     		beq	.L310
 2536              		.loc 1 617 5 discriminator 47
 2537 011c 7B68     		ldr	r3, [r7, #4]
 2538 011e 1B68     		ldr	r3, [r3]
 2539 0120 2F4A     		ldr	r2, .L385+8
 2540 0122 9342     		cmp	r3, r2
 2541 0124 48D0     		beq	.L311
 2542              		.loc 1 617 5 discriminator 49
 2543 0126 7B68     		ldr	r3, [r7, #4]
 2544 0128 1B68     		ldr	r3, [r3]
 2545 012a 2E4A     		ldr	r2, .L385+12
 2546 012c 9342     		cmp	r3, r2
 2547 012e 40D0     		beq	.L312
 2548              		.loc 1 617 5 discriminator 51
 2549 0130 7B68     		ldr	r3, [r7, #4]
 2550 0132 1B68     		ldr	r3, [r3]
 2551 0134 2C4A     		ldr	r2, .L385+16
 2552 0136 9342     		cmp	r3, r2
 2553 0138 38D0     		beq	.L313
 2554              		.loc 1 617 5 discriminator 53
 2555 013a 7B68     		ldr	r3, [r7, #4]
 2556 013c 1B68     		ldr	r3, [r3]
 2557 013e 2B4A     		ldr	r2, .L385+20
 2558 0140 9342     		cmp	r3, r2
 2559 0142 30D0     		beq	.L314
 2560              		.loc 1 617 5 discriminator 55
 2561 0144 7B68     		ldr	r3, [r7, #4]
 2562 0146 1B68     		ldr	r3, [r3]
 2563 0148 294A     		ldr	r2, .L385+24
 2564 014a 9342     		cmp	r3, r2
 2565 014c 28D0     		beq	.L315
 2566              		.loc 1 617 5 discriminator 57
 2567 014e 7B68     		ldr	r3, [r7, #4]
 2568 0150 1B68     		ldr	r3, [r3]
 2569 0152 214A     		ldr	r2, .L385
 2570 0154 9342     		cmp	r3, r2
 2571 0156 20D0     		beq	.L316
 2572              		.loc 1 617 5 discriminator 59
 2573 0158 7B68     		ldr	r3, [r7, #4]
 2574 015a 1B68     		ldr	r3, [r3]
 2575 015c 254A     		ldr	r2, .L385+28
 2576 015e 9342     		cmp	r3, r2
 2577 0160 19D0     		beq	.L317
 2578              		.loc 1 617 5 discriminator 61
 2579 0162 7B68     		ldr	r3, [r7, #4]
ARM GAS  /tmp/ccfL2ZiY.s 			page 57


 2580 0164 1B68     		ldr	r3, [r3]
 2581 0166 244A     		ldr	r2, .L385+32
 2582 0168 9342     		cmp	r3, r2
 2583 016a 12D0     		beq	.L318
 2584              		.loc 1 617 5 discriminator 63
 2585 016c 7B68     		ldr	r3, [r7, #4]
 2586 016e 1B68     		ldr	r3, [r3]
 2587 0170 224A     		ldr	r2, .L385+36
 2588 0172 9342     		cmp	r3, r2
 2589 0174 0AD0     		beq	.L319
 2590              		.loc 1 617 5 discriminator 65
 2591 0176 7B68     		ldr	r3, [r7, #4]
 2592 0178 1B68     		ldr	r3, [r3]
 2593 017a 214A     		ldr	r2, .L385+40
 2594 017c 9342     		cmp	r3, r2
 2595 017e 02D1     		bne	.L320
 2596              		.loc 1 617 5 discriminator 67
 2597 0180 4FF48043 		mov	r3, #16384
 2598 0184 1BE0     		b	.L331
 2599              	.L320:
 2600              		.loc 1 617 5 discriminator 68
 2601 0186 4FF48023 		mov	r3, #262144
 2602 018a 18E0     		b	.L331
 2603              	.L319:
 2604              		.loc 1 617 5 discriminator 66
 2605 018c 4FF48063 		mov	r3, #1024
 2606 0190 15E0     		b	.L331
 2607              	.L318:
 2608              		.loc 1 617 5 discriminator 64
 2609 0192 4023     		movs	r3, #64
 2610 0194 13E0     		b	.L331
 2611              	.L317:
 2612              		.loc 1 617 5 discriminator 62
 2613 0196 0423     		movs	r3, #4
 2614 0198 11E0     		b	.L331
 2615              	.L316:
 2616              		.loc 1 617 5 discriminator 60
 2617 019a 4FF08063 		mov	r3, #67108864
 2618 019e 0EE0     		b	.L331
 2619              	.L315:
 2620              		.loc 1 617 5 discriminator 58
 2621 01a0 4FF48003 		mov	r3, #4194304
 2622 01a4 0BE0     		b	.L331
 2623              	.L314:
 2624              		.loc 1 617 5 discriminator 56
 2625 01a6 4FF48023 		mov	r3, #262144
 2626 01aa 08E0     		b	.L331
 2627              	.L313:
 2628              		.loc 1 617 5 discriminator 54
 2629 01ac 4FF48043 		mov	r3, #16384
 2630 01b0 05E0     		b	.L331
 2631              	.L312:
 2632              		.loc 1 617 5 discriminator 52
 2633 01b2 4FF48063 		mov	r3, #1024
 2634 01b6 02E0     		b	.L331
 2635              	.L311:
 2636              		.loc 1 617 5 discriminator 50
ARM GAS  /tmp/ccfL2ZiY.s 			page 58


 2637 01b8 4023     		movs	r3, #64
 2638 01ba 00E0     		b	.L331
 2639              	.L310:
 2640              		.loc 1 617 5 discriminator 48
 2641 01bc 0423     		movs	r3, #4
 2642              	.L331:
 2643              		.loc 1 617 5 discriminator 90
 2644 01be 124A     		ldr	r2, .L385+48
 2645 01c0 5360     		str	r3, [r2, #4]
 2646              	.L309:
 618:Drivers/STM32F1xx_HAL_Driver/Src/stm32f1xx_hal_dma.c **** 
 619:Drivers/STM32F1xx_HAL_Driver/Src/stm32f1xx_hal_dma.c ****     /* DMA peripheral state is not updated in Half Transfer */
 620:Drivers/STM32F1xx_HAL_Driver/Src/stm32f1xx_hal_dma.c ****     /* but in Transfer Complete case */
 621:Drivers/STM32F1xx_HAL_Driver/Src/stm32f1xx_hal_dma.c **** 
 622:Drivers/STM32F1xx_HAL_Driver/Src/stm32f1xx_hal_dma.c ****     if(hdma->XferHalfCpltCallback != NULL)
 2647              		.loc 1 622 12 is_stmt 1
 2648 01c2 7B68     		ldr	r3, [r7, #4]
 2649 01c4 DB6A     		ldr	r3, [r3, #44]
 2650              		.loc 1 622 7
 2651 01c6 002B     		cmp	r3, #0
 2652 01c8 00F03681 		beq	.L333
 623:Drivers/STM32F1xx_HAL_Driver/Src/stm32f1xx_hal_dma.c ****     {
 624:Drivers/STM32F1xx_HAL_Driver/Src/stm32f1xx_hal_dma.c ****       /* Half transfer callback */
 625:Drivers/STM32F1xx_HAL_Driver/Src/stm32f1xx_hal_dma.c ****       hdma->XferHalfCpltCallback(hdma);
 2653              		.loc 1 625 11
 2654 01cc 7B68     		ldr	r3, [r7, #4]
 2655 01ce DB6A     		ldr	r3, [r3, #44]
 2656              		.loc 1 625 7
 2657 01d0 7868     		ldr	r0, [r7, #4]
 2658 01d2 9847     		blx	r3
 2659              	.LVL1:
 622:Drivers/STM32F1xx_HAL_Driver/Src/stm32f1xx_hal_dma.c ****     {
 2660              		.loc 1 622 7
 2661 01d4 30E1     		b	.L333
 2662              	.L386:
 2663 01d6 00BF     		.align	2
 2664              	.L385:
 2665 01d8 80000240 		.word	1073873024
 2666 01dc 08000240 		.word	1073872904
 2667 01e0 1C000240 		.word	1073872924
 2668 01e4 30000240 		.word	1073872944
 2669 01e8 44000240 		.word	1073872964
 2670 01ec 58000240 		.word	1073872984
 2671 01f0 6C000240 		.word	1073873004
 2672 01f4 08040240 		.word	1073873928
 2673 01f8 1C040240 		.word	1073873948
 2674 01fc 30040240 		.word	1073873968
 2675 0200 44040240 		.word	1073873988
 2676 0204 00040240 		.word	1073873920
 2677 0208 00000240 		.word	1073872896
 2678              	.L284:
 626:Drivers/STM32F1xx_HAL_Driver/Src/stm32f1xx_hal_dma.c ****     }
 627:Drivers/STM32F1xx_HAL_Driver/Src/stm32f1xx_hal_dma.c ****   }
 628:Drivers/STM32F1xx_HAL_Driver/Src/stm32f1xx_hal_dma.c **** 
 629:Drivers/STM32F1xx_HAL_Driver/Src/stm32f1xx_hal_dma.c ****   /* Transfer Complete Interrupt management ***********************************/
 630:Drivers/STM32F1xx_HAL_Driver/Src/stm32f1xx_hal_dma.c ****   else if (((flag_it & (DMA_FLAG_TC1 << hdma->ChannelIndex)) != RESET) && ((source_it & DMA_IT_TC) 
 2679              		.loc 1 630 45
ARM GAS  /tmp/ccfL2ZiY.s 			page 59


 2680 020c 7B68     		ldr	r3, [r7, #4]
 2681 020e 1B6C     		ldr	r3, [r3, #64]
 2682              		.loc 1 630 38
 2683 0210 0222     		movs	r2, #2
 2684 0212 9A40     		lsls	r2, r2, r3
 2685              		.loc 1 630 22
 2686 0214 FB68     		ldr	r3, [r7, #12]
 2687 0216 1340     		ands	r3, r3, r2
 2688              		.loc 1 630 11
 2689 0218 002B     		cmp	r3, #0
 2690 021a 00F0DD80 		beq	.L334
 2691              		.loc 1 630 87 discriminator 1
 2692 021e BB68     		ldr	r3, [r7, #8]
 2693 0220 03F00203 		and	r3, r3, #2
 2694              		.loc 1 630 72 discriminator 1
 2695 0224 002B     		cmp	r3, #0
 2696 0226 00F0D780 		beq	.L334
 631:Drivers/STM32F1xx_HAL_Driver/Src/stm32f1xx_hal_dma.c ****   {
 632:Drivers/STM32F1xx_HAL_Driver/Src/stm32f1xx_hal_dma.c ****     if((hdma->Instance->CCR & DMA_CCR_CIRC) == 0U)
 2697              		.loc 1 632 13
 2698 022a 7B68     		ldr	r3, [r7, #4]
 2699 022c 1B68     		ldr	r3, [r3]
 2700              		.loc 1 632 23
 2701 022e 1B68     		ldr	r3, [r3]
 2702              		.loc 1 632 29
 2703 0230 03F02003 		and	r3, r3, #32
 2704              		.loc 1 632 7
 2705 0234 002B     		cmp	r3, #0
 2706 0236 0BD1     		bne	.L335
 633:Drivers/STM32F1xx_HAL_Driver/Src/stm32f1xx_hal_dma.c ****     {
 634:Drivers/STM32F1xx_HAL_Driver/Src/stm32f1xx_hal_dma.c ****       /* Disable the transfer complete and error interrupt */
 635:Drivers/STM32F1xx_HAL_Driver/Src/stm32f1xx_hal_dma.c ****       __HAL_DMA_DISABLE_IT(hdma, DMA_IT_TE | DMA_IT_TC);  
 2707              		.loc 1 635 7
 2708 0238 7B68     		ldr	r3, [r7, #4]
 2709 023a 1B68     		ldr	r3, [r3]
 2710 023c 1A68     		ldr	r2, [r3]
 2711 023e 7B68     		ldr	r3, [r7, #4]
 2712 0240 1B68     		ldr	r3, [r3]
 2713 0242 22F00A02 		bic	r2, r2, #10
 2714 0246 1A60     		str	r2, [r3]
 636:Drivers/STM32F1xx_HAL_Driver/Src/stm32f1xx_hal_dma.c **** 
 637:Drivers/STM32F1xx_HAL_Driver/Src/stm32f1xx_hal_dma.c ****       /* Change the DMA state */
 638:Drivers/STM32F1xx_HAL_Driver/Src/stm32f1xx_hal_dma.c ****       hdma->State = HAL_DMA_STATE_READY;
 2715              		.loc 1 638 19
 2716 0248 7B68     		ldr	r3, [r7, #4]
 2717 024a 0122     		movs	r2, #1
 2718 024c 83F82120 		strb	r2, [r3, #33]
 2719              	.L335:
 639:Drivers/STM32F1xx_HAL_Driver/Src/stm32f1xx_hal_dma.c ****     }
 640:Drivers/STM32F1xx_HAL_Driver/Src/stm32f1xx_hal_dma.c ****     /* Clear the transfer complete flag */
 641:Drivers/STM32F1xx_HAL_Driver/Src/stm32f1xx_hal_dma.c ****       __HAL_DMA_CLEAR_FLAG(hdma, __HAL_DMA_GET_TC_FLAG_INDEX(hdma));
 2720              		.loc 1 641 7
 2721 0250 7B68     		ldr	r3, [r7, #4]
 2722 0252 1B68     		ldr	r3, [r3]
 2723 0254 1A46     		mov	r2, r3
 2724 0256 7B4B     		ldr	r3, .L387
 2725 0258 9A42     		cmp	r2, r3
ARM GAS  /tmp/ccfL2ZiY.s 			page 60


 2726 025a 58D9     		bls	.L336
 2727              		.loc 1 641 7 is_stmt 0 discriminator 1
 2728 025c 7B68     		ldr	r3, [r7, #4]
 2729 025e 1B68     		ldr	r3, [r3]
 2730 0260 794A     		ldr	r2, .L387+4
 2731 0262 9342     		cmp	r3, r2
 2732 0264 4FD0     		beq	.L337
 2733              		.loc 1 641 7 discriminator 3
 2734 0266 7B68     		ldr	r3, [r7, #4]
 2735 0268 1B68     		ldr	r3, [r3]
 2736 026a 784A     		ldr	r2, .L387+8
 2737 026c 9342     		cmp	r3, r2
 2738 026e 48D0     		beq	.L338
 2739              		.loc 1 641 7 discriminator 5
 2740 0270 7B68     		ldr	r3, [r7, #4]
 2741 0272 1B68     		ldr	r3, [r3]
 2742 0274 764A     		ldr	r2, .L387+12
 2743 0276 9342     		cmp	r3, r2
 2744 0278 40D0     		beq	.L339
 2745              		.loc 1 641 7 discriminator 7
 2746 027a 7B68     		ldr	r3, [r7, #4]
 2747 027c 1B68     		ldr	r3, [r3]
 2748 027e 754A     		ldr	r2, .L387+16
 2749 0280 9342     		cmp	r3, r2
 2750 0282 38D0     		beq	.L340
 2751              		.loc 1 641 7 discriminator 9
 2752 0284 7B68     		ldr	r3, [r7, #4]
 2753 0286 1B68     		ldr	r3, [r3]
 2754 0288 734A     		ldr	r2, .L387+20
 2755 028a 9342     		cmp	r3, r2
 2756 028c 30D0     		beq	.L341
 2757              		.loc 1 641 7 discriminator 11
 2758 028e 7B68     		ldr	r3, [r7, #4]
 2759 0290 1B68     		ldr	r3, [r3]
 2760 0292 724A     		ldr	r2, .L387+24
 2761 0294 9342     		cmp	r3, r2
 2762 0296 28D0     		beq	.L342
 2763              		.loc 1 641 7 discriminator 13
 2764 0298 7B68     		ldr	r3, [r7, #4]
 2765 029a 1B68     		ldr	r3, [r3]
 2766 029c 694A     		ldr	r2, .L387
 2767 029e 9342     		cmp	r3, r2
 2768 02a0 20D0     		beq	.L343
 2769              		.loc 1 641 7 discriminator 15
 2770 02a2 7B68     		ldr	r3, [r7, #4]
 2771 02a4 1B68     		ldr	r3, [r3]
 2772 02a6 6E4A     		ldr	r2, .L387+28
 2773 02a8 9342     		cmp	r3, r2
 2774 02aa 19D0     		beq	.L344
 2775              		.loc 1 641 7 discriminator 17
 2776 02ac 7B68     		ldr	r3, [r7, #4]
 2777 02ae 1B68     		ldr	r3, [r3]
 2778 02b0 6C4A     		ldr	r2, .L387+32
 2779 02b2 9342     		cmp	r3, r2
 2780 02b4 12D0     		beq	.L345
 2781              		.loc 1 641 7 discriminator 19
 2782 02b6 7B68     		ldr	r3, [r7, #4]
ARM GAS  /tmp/ccfL2ZiY.s 			page 61


 2783 02b8 1B68     		ldr	r3, [r3]
 2784 02ba 6B4A     		ldr	r2, .L387+36
 2785 02bc 9342     		cmp	r3, r2
 2786 02be 0AD0     		beq	.L346
 2787              		.loc 1 641 7 discriminator 21
 2788 02c0 7B68     		ldr	r3, [r7, #4]
 2789 02c2 1B68     		ldr	r3, [r3]
 2790 02c4 694A     		ldr	r2, .L387+40
 2791 02c6 9342     		cmp	r3, r2
 2792 02c8 02D1     		bne	.L347
 2793              		.loc 1 641 7 discriminator 23
 2794 02ca 4FF40053 		mov	r3, #8192
 2795 02ce 1BE0     		b	.L358
 2796              	.L347:
 2797              		.loc 1 641 7 discriminator 24
 2798 02d0 4FF40033 		mov	r3, #131072
 2799 02d4 18E0     		b	.L358
 2800              	.L346:
 2801              		.loc 1 641 7 discriminator 22
 2802 02d6 4FF40073 		mov	r3, #512
 2803 02da 15E0     		b	.L358
 2804              	.L345:
 2805              		.loc 1 641 7 discriminator 20
 2806 02dc 2023     		movs	r3, #32
 2807 02de 13E0     		b	.L358
 2808              	.L344:
 2809              		.loc 1 641 7 discriminator 18
 2810 02e0 0223     		movs	r3, #2
 2811 02e2 11E0     		b	.L358
 2812              	.L343:
 2813              		.loc 1 641 7 discriminator 16
 2814 02e4 4FF00073 		mov	r3, #33554432
 2815 02e8 0EE0     		b	.L358
 2816              	.L342:
 2817              		.loc 1 641 7 discriminator 14
 2818 02ea 4FF40013 		mov	r3, #2097152
 2819 02ee 0BE0     		b	.L358
 2820              	.L341:
 2821              		.loc 1 641 7 discriminator 12
 2822 02f0 4FF40033 		mov	r3, #131072
 2823 02f4 08E0     		b	.L358
 2824              	.L340:
 2825              		.loc 1 641 7 discriminator 10
 2826 02f6 4FF40053 		mov	r3, #8192
 2827 02fa 05E0     		b	.L358
 2828              	.L339:
 2829              		.loc 1 641 7 discriminator 8
 2830 02fc 4FF40073 		mov	r3, #512
 2831 0300 02E0     		b	.L358
 2832              	.L338:
 2833              		.loc 1 641 7 discriminator 6
 2834 0302 2023     		movs	r3, #32
 2835 0304 00E0     		b	.L358
 2836              	.L337:
 2837              		.loc 1 641 7 discriminator 4
 2838 0306 0223     		movs	r3, #2
 2839              	.L358:
ARM GAS  /tmp/ccfL2ZiY.s 			page 62


 2840              		.loc 1 641 7 discriminator 46
 2841 0308 594A     		ldr	r2, .L387+44
 2842 030a 5360     		str	r3, [r2, #4]
 2843 030c 57E0     		b	.L359
 2844              	.L336:
 2845              		.loc 1 641 7 discriminator 2
 2846 030e 7B68     		ldr	r3, [r7, #4]
 2847 0310 1B68     		ldr	r3, [r3]
 2848 0312 4D4A     		ldr	r2, .L387+4
 2849 0314 9342     		cmp	r3, r2
 2850 0316 4FD0     		beq	.L360
 2851              		.loc 1 641 7 discriminator 47
 2852 0318 7B68     		ldr	r3, [r7, #4]
 2853 031a 1B68     		ldr	r3, [r3]
 2854 031c 4B4A     		ldr	r2, .L387+8
 2855 031e 9342     		cmp	r3, r2
 2856 0320 48D0     		beq	.L361
 2857              		.loc 1 641 7 discriminator 49
 2858 0322 7B68     		ldr	r3, [r7, #4]
 2859 0324 1B68     		ldr	r3, [r3]
 2860 0326 4A4A     		ldr	r2, .L387+12
 2861 0328 9342     		cmp	r3, r2
 2862 032a 40D0     		beq	.L362
 2863              		.loc 1 641 7 discriminator 51
 2864 032c 7B68     		ldr	r3, [r7, #4]
 2865 032e 1B68     		ldr	r3, [r3]
 2866 0330 484A     		ldr	r2, .L387+16
 2867 0332 9342     		cmp	r3, r2
 2868 0334 38D0     		beq	.L363
 2869              		.loc 1 641 7 discriminator 53
 2870 0336 7B68     		ldr	r3, [r7, #4]
 2871 0338 1B68     		ldr	r3, [r3]
 2872 033a 474A     		ldr	r2, .L387+20
 2873 033c 9342     		cmp	r3, r2
 2874 033e 30D0     		beq	.L364
 2875              		.loc 1 641 7 discriminator 55
 2876 0340 7B68     		ldr	r3, [r7, #4]
 2877 0342 1B68     		ldr	r3, [r3]
 2878 0344 454A     		ldr	r2, .L387+24
 2879 0346 9342     		cmp	r3, r2
 2880 0348 28D0     		beq	.L365
 2881              		.loc 1 641 7 discriminator 57
 2882 034a 7B68     		ldr	r3, [r7, #4]
 2883 034c 1B68     		ldr	r3, [r3]
 2884 034e 3D4A     		ldr	r2, .L387
 2885 0350 9342     		cmp	r3, r2
 2886 0352 20D0     		beq	.L366
 2887              		.loc 1 641 7 discriminator 59
 2888 0354 7B68     		ldr	r3, [r7, #4]
 2889 0356 1B68     		ldr	r3, [r3]
 2890 0358 414A     		ldr	r2, .L387+28
 2891 035a 9342     		cmp	r3, r2
 2892 035c 19D0     		beq	.L367
 2893              		.loc 1 641 7 discriminator 61
 2894 035e 7B68     		ldr	r3, [r7, #4]
 2895 0360 1B68     		ldr	r3, [r3]
 2896 0362 404A     		ldr	r2, .L387+32
ARM GAS  /tmp/ccfL2ZiY.s 			page 63


 2897 0364 9342     		cmp	r3, r2
 2898 0366 12D0     		beq	.L368
 2899              		.loc 1 641 7 discriminator 63
 2900 0368 7B68     		ldr	r3, [r7, #4]
 2901 036a 1B68     		ldr	r3, [r3]
 2902 036c 3E4A     		ldr	r2, .L387+36
 2903 036e 9342     		cmp	r3, r2
 2904 0370 0AD0     		beq	.L369
 2905              		.loc 1 641 7 discriminator 65
 2906 0372 7B68     		ldr	r3, [r7, #4]
 2907 0374 1B68     		ldr	r3, [r3]
 2908 0376 3D4A     		ldr	r2, .L387+40
 2909 0378 9342     		cmp	r3, r2
 2910 037a 02D1     		bne	.L370
 2911              		.loc 1 641 7 discriminator 67
 2912 037c 4FF40053 		mov	r3, #8192
 2913 0380 1BE0     		b	.L381
 2914              	.L370:
 2915              		.loc 1 641 7 discriminator 68
 2916 0382 4FF40033 		mov	r3, #131072
 2917 0386 18E0     		b	.L381
 2918              	.L369:
 2919              		.loc 1 641 7 discriminator 66
 2920 0388 4FF40073 		mov	r3, #512
 2921 038c 15E0     		b	.L381
 2922              	.L368:
 2923              		.loc 1 641 7 discriminator 64
 2924 038e 2023     		movs	r3, #32
 2925 0390 13E0     		b	.L381
 2926              	.L367:
 2927              		.loc 1 641 7 discriminator 62
 2928 0392 0223     		movs	r3, #2
 2929 0394 11E0     		b	.L381
 2930              	.L366:
 2931              		.loc 1 641 7 discriminator 60
 2932 0396 4FF00073 		mov	r3, #33554432
 2933 039a 0EE0     		b	.L381
 2934              	.L365:
 2935              		.loc 1 641 7 discriminator 58
 2936 039c 4FF40013 		mov	r3, #2097152
 2937 03a0 0BE0     		b	.L381
 2938              	.L364:
 2939              		.loc 1 641 7 discriminator 56
 2940 03a2 4FF40033 		mov	r3, #131072
 2941 03a6 08E0     		b	.L381
 2942              	.L363:
 2943              		.loc 1 641 7 discriminator 54
 2944 03a8 4FF40053 		mov	r3, #8192
 2945 03ac 05E0     		b	.L381
 2946              	.L362:
 2947              		.loc 1 641 7 discriminator 52
 2948 03ae 4FF40073 		mov	r3, #512
 2949 03b2 02E0     		b	.L381
 2950              	.L361:
 2951              		.loc 1 641 7 discriminator 50
 2952 03b4 2023     		movs	r3, #32
 2953 03b6 00E0     		b	.L381
ARM GAS  /tmp/ccfL2ZiY.s 			page 64


 2954              	.L360:
 2955              		.loc 1 641 7 discriminator 48
 2956 03b8 0223     		movs	r3, #2
 2957              	.L381:
 2958              		.loc 1 641 7 discriminator 90
 2959 03ba 2E4A     		ldr	r2, .L387+48
 2960 03bc 5360     		str	r3, [r2, #4]
 2961              	.L359:
 642:Drivers/STM32F1xx_HAL_Driver/Src/stm32f1xx_hal_dma.c **** 
 643:Drivers/STM32F1xx_HAL_Driver/Src/stm32f1xx_hal_dma.c ****     /* Process Unlocked */
 644:Drivers/STM32F1xx_HAL_Driver/Src/stm32f1xx_hal_dma.c ****     __HAL_UNLOCK(hdma);
 2962              		.loc 1 644 5 is_stmt 1
 2963 03be 7B68     		ldr	r3, [r7, #4]
 2964 03c0 0022     		movs	r2, #0
 2965 03c2 83F82020 		strb	r2, [r3, #32]
 645:Drivers/STM32F1xx_HAL_Driver/Src/stm32f1xx_hal_dma.c **** 
 646:Drivers/STM32F1xx_HAL_Driver/Src/stm32f1xx_hal_dma.c ****     if(hdma->XferCpltCallback != NULL)
 2966              		.loc 1 646 12
 2967 03c6 7B68     		ldr	r3, [r7, #4]
 2968 03c8 9B6A     		ldr	r3, [r3, #40]
 2969              		.loc 1 646 7
 2970 03ca 002B     		cmp	r3, #0
 2971 03cc 34D0     		beq	.L333
 647:Drivers/STM32F1xx_HAL_Driver/Src/stm32f1xx_hal_dma.c ****     {
 648:Drivers/STM32F1xx_HAL_Driver/Src/stm32f1xx_hal_dma.c ****       /* Transfer complete callback */
 649:Drivers/STM32F1xx_HAL_Driver/Src/stm32f1xx_hal_dma.c ****       hdma->XferCpltCallback(hdma);
 2972              		.loc 1 649 11
 2973 03ce 7B68     		ldr	r3, [r7, #4]
 2974 03d0 9B6A     		ldr	r3, [r3, #40]
 2975              		.loc 1 649 7
 2976 03d2 7868     		ldr	r0, [r7, #4]
 2977 03d4 9847     		blx	r3
 2978              	.LVL2:
 646:Drivers/STM32F1xx_HAL_Driver/Src/stm32f1xx_hal_dma.c ****     {
 2979              		.loc 1 646 7
 2980 03d6 2FE0     		b	.L333
 2981              	.L334:
 650:Drivers/STM32F1xx_HAL_Driver/Src/stm32f1xx_hal_dma.c ****     }
 651:Drivers/STM32F1xx_HAL_Driver/Src/stm32f1xx_hal_dma.c ****   }
 652:Drivers/STM32F1xx_HAL_Driver/Src/stm32f1xx_hal_dma.c **** 
 653:Drivers/STM32F1xx_HAL_Driver/Src/stm32f1xx_hal_dma.c ****   /* Transfer Error Interrupt management **************************************/
 654:Drivers/STM32F1xx_HAL_Driver/Src/stm32f1xx_hal_dma.c ****   else if (( RESET != (flag_it & (DMA_FLAG_TE1 << hdma->ChannelIndex))) && (RESET != (source_it & D
 2982              		.loc 1 654 55
 2983 03d8 7B68     		ldr	r3, [r7, #4]
 2984 03da 1B6C     		ldr	r3, [r3, #64]
 2985              		.loc 1 654 48
 2986 03dc 0822     		movs	r2, #8
 2987 03de 9A40     		lsls	r2, r2, r3
 2988              		.loc 1 654 32
 2989 03e0 FB68     		ldr	r3, [r7, #12]
 2990 03e2 1340     		ands	r3, r3, r2
 2991              		.loc 1 654 11
 2992 03e4 002B     		cmp	r3, #0
 2993 03e6 28D0     		beq	.L384
 2994              		.loc 1 654 97 discriminator 1
 2995 03e8 BB68     		ldr	r3, [r7, #8]
 2996 03ea 03F00803 		and	r3, r3, #8
ARM GAS  /tmp/ccfL2ZiY.s 			page 65


 2997              		.loc 1 654 73 discriminator 1
 2998 03ee 002B     		cmp	r3, #0
 2999 03f0 23D0     		beq	.L384
 655:Drivers/STM32F1xx_HAL_Driver/Src/stm32f1xx_hal_dma.c ****   {
 656:Drivers/STM32F1xx_HAL_Driver/Src/stm32f1xx_hal_dma.c ****     /* When a DMA transfer error occurs */
 657:Drivers/STM32F1xx_HAL_Driver/Src/stm32f1xx_hal_dma.c ****     /* A hardware clear of its EN bits is performed */
 658:Drivers/STM32F1xx_HAL_Driver/Src/stm32f1xx_hal_dma.c ****     /* Disable ALL DMA IT */
 659:Drivers/STM32F1xx_HAL_Driver/Src/stm32f1xx_hal_dma.c ****     __HAL_DMA_DISABLE_IT(hdma, (DMA_IT_TC | DMA_IT_HT | DMA_IT_TE));
 3000              		.loc 1 659 5
 3001 03f2 7B68     		ldr	r3, [r7, #4]
 3002 03f4 1B68     		ldr	r3, [r3]
 3003 03f6 1A68     		ldr	r2, [r3]
 3004 03f8 7B68     		ldr	r3, [r7, #4]
 3005 03fa 1B68     		ldr	r3, [r3]
 3006 03fc 22F00E02 		bic	r2, r2, #14
 3007 0400 1A60     		str	r2, [r3]
 660:Drivers/STM32F1xx_HAL_Driver/Src/stm32f1xx_hal_dma.c **** 
 661:Drivers/STM32F1xx_HAL_Driver/Src/stm32f1xx_hal_dma.c ****     /* Clear all flags */
 662:Drivers/STM32F1xx_HAL_Driver/Src/stm32f1xx_hal_dma.c ****     hdma->DmaBaseAddress->IFCR = (DMA_ISR_GIF1 << hdma->ChannelIndex);
 3008              		.loc 1 662 55
 3009 0402 7B68     		ldr	r3, [r7, #4]
 3010 0404 1A6C     		ldr	r2, [r3, #64]
 3011              		.loc 1 662 9
 3012 0406 7B68     		ldr	r3, [r7, #4]
 3013 0408 DB6B     		ldr	r3, [r3, #60]
 3014              		.loc 1 662 48
 3015 040a 0121     		movs	r1, #1
 3016 040c 01FA02F2 		lsl	r2, r1, r2
 3017              		.loc 1 662 32
 3018 0410 5A60     		str	r2, [r3, #4]
 663:Drivers/STM32F1xx_HAL_Driver/Src/stm32f1xx_hal_dma.c **** 
 664:Drivers/STM32F1xx_HAL_Driver/Src/stm32f1xx_hal_dma.c ****     /* Update error code */
 665:Drivers/STM32F1xx_HAL_Driver/Src/stm32f1xx_hal_dma.c ****     hdma->ErrorCode = HAL_DMA_ERROR_TE;
 3019              		.loc 1 665 21
 3020 0412 7B68     		ldr	r3, [r7, #4]
 3021 0414 0122     		movs	r2, #1
 3022 0416 9A63     		str	r2, [r3, #56]
 666:Drivers/STM32F1xx_HAL_Driver/Src/stm32f1xx_hal_dma.c **** 
 667:Drivers/STM32F1xx_HAL_Driver/Src/stm32f1xx_hal_dma.c ****     /* Change the DMA state */
 668:Drivers/STM32F1xx_HAL_Driver/Src/stm32f1xx_hal_dma.c ****     hdma->State = HAL_DMA_STATE_READY;
 3023              		.loc 1 668 17
 3024 0418 7B68     		ldr	r3, [r7, #4]
 3025 041a 0122     		movs	r2, #1
 3026 041c 83F82120 		strb	r2, [r3, #33]
 669:Drivers/STM32F1xx_HAL_Driver/Src/stm32f1xx_hal_dma.c **** 
 670:Drivers/STM32F1xx_HAL_Driver/Src/stm32f1xx_hal_dma.c ****     /* Process Unlocked */
 671:Drivers/STM32F1xx_HAL_Driver/Src/stm32f1xx_hal_dma.c ****     __HAL_UNLOCK(hdma);
 3027              		.loc 1 671 5
 3028 0420 7B68     		ldr	r3, [r7, #4]
 3029 0422 0022     		movs	r2, #0
 3030 0424 83F82020 		strb	r2, [r3, #32]
 672:Drivers/STM32F1xx_HAL_Driver/Src/stm32f1xx_hal_dma.c **** 
 673:Drivers/STM32F1xx_HAL_Driver/Src/stm32f1xx_hal_dma.c ****     if (hdma->XferErrorCallback != NULL)
 3031              		.loc 1 673 13
 3032 0428 7B68     		ldr	r3, [r7, #4]
 3033 042a 1B6B     		ldr	r3, [r3, #48]
 3034              		.loc 1 673 8
ARM GAS  /tmp/ccfL2ZiY.s 			page 66


 3035 042c 002B     		cmp	r3, #0
 3036 042e 04D0     		beq	.L384
 674:Drivers/STM32F1xx_HAL_Driver/Src/stm32f1xx_hal_dma.c ****     {
 675:Drivers/STM32F1xx_HAL_Driver/Src/stm32f1xx_hal_dma.c ****       /* Transfer error callback */
 676:Drivers/STM32F1xx_HAL_Driver/Src/stm32f1xx_hal_dma.c ****       hdma->XferErrorCallback(hdma);
 3037              		.loc 1 676 11
 3038 0430 7B68     		ldr	r3, [r7, #4]
 3039 0432 1B6B     		ldr	r3, [r3, #48]
 3040              		.loc 1 676 7
 3041 0434 7868     		ldr	r0, [r7, #4]
 3042 0436 9847     		blx	r3
 3043              	.LVL3:
 3044              	.L333:
 677:Drivers/STM32F1xx_HAL_Driver/Src/stm32f1xx_hal_dma.c ****     }
 678:Drivers/STM32F1xx_HAL_Driver/Src/stm32f1xx_hal_dma.c ****   }
 679:Drivers/STM32F1xx_HAL_Driver/Src/stm32f1xx_hal_dma.c ****   return;
 3045              		.loc 1 679 3 discriminator 1
 3046 0438 00BF     		nop
 3047              	.L384:
 3048              		.loc 1 679 3 is_stmt 0
 3049 043a 00BF     		nop
 680:Drivers/STM32F1xx_HAL_Driver/Src/stm32f1xx_hal_dma.c **** }
 3050              		.loc 1 680 1 is_stmt 1
 3051 043c 1037     		adds	r7, r7, #16
 3052              	.LCFI41:
 3053              		.cfi_def_cfa_offset 8
 3054 043e BD46     		mov	sp, r7
 3055              	.LCFI42:
 3056              		.cfi_def_cfa_register 13
 3057              		@ sp needed
 3058 0440 80BD     		pop	{r7, pc}
 3059              	.L388:
 3060 0442 00BF     		.align	2
 3061              	.L387:
 3062 0444 80000240 		.word	1073873024
 3063 0448 08000240 		.word	1073872904
 3064 044c 1C000240 		.word	1073872924
 3065 0450 30000240 		.word	1073872944
 3066 0454 44000240 		.word	1073872964
 3067 0458 58000240 		.word	1073872984
 3068 045c 6C000240 		.word	1073873004
 3069 0460 08040240 		.word	1073873928
 3070 0464 1C040240 		.word	1073873948
 3071 0468 30040240 		.word	1073873968
 3072 046c 44040240 		.word	1073873988
 3073 0470 00040240 		.word	1073873920
 3074 0474 00000240 		.word	1073872896
 3075              		.cfi_endproc
 3076              	.LFE72:
 3078              		.section	.text.HAL_DMA_RegisterCallback,"ax",%progbits
 3079              		.align	1
 3080              		.global	HAL_DMA_RegisterCallback
 3081              		.syntax unified
 3082              		.thumb
 3083              		.thumb_func
 3085              	HAL_DMA_RegisterCallback:
 3086              	.LFB73:
ARM GAS  /tmp/ccfL2ZiY.s 			page 67


 681:Drivers/STM32F1xx_HAL_Driver/Src/stm32f1xx_hal_dma.c **** 
 682:Drivers/STM32F1xx_HAL_Driver/Src/stm32f1xx_hal_dma.c **** /**
 683:Drivers/STM32F1xx_HAL_Driver/Src/stm32f1xx_hal_dma.c ****   * @brief Register callbacks
 684:Drivers/STM32F1xx_HAL_Driver/Src/stm32f1xx_hal_dma.c ****   * @param hdma: pointer to a DMA_HandleTypeDef structure that contains
 685:Drivers/STM32F1xx_HAL_Driver/Src/stm32f1xx_hal_dma.c ****   *              the configuration information for the specified DMA Channel.
 686:Drivers/STM32F1xx_HAL_Driver/Src/stm32f1xx_hal_dma.c ****   * @param CallbackID: User Callback identifier
 687:Drivers/STM32F1xx_HAL_Driver/Src/stm32f1xx_hal_dma.c ****   *                    a HAL_DMA_CallbackIDTypeDef ENUM as parameter.
 688:Drivers/STM32F1xx_HAL_Driver/Src/stm32f1xx_hal_dma.c ****   * @param pCallback: pointer to private callback function which has pointer to 
 689:Drivers/STM32F1xx_HAL_Driver/Src/stm32f1xx_hal_dma.c ****   *                   a DMA_HandleTypeDef structure as parameter.
 690:Drivers/STM32F1xx_HAL_Driver/Src/stm32f1xx_hal_dma.c ****   * @retval HAL status
 691:Drivers/STM32F1xx_HAL_Driver/Src/stm32f1xx_hal_dma.c ****   */                          
 692:Drivers/STM32F1xx_HAL_Driver/Src/stm32f1xx_hal_dma.c **** HAL_StatusTypeDef HAL_DMA_RegisterCallback(DMA_HandleTypeDef *hdma, HAL_DMA_CallbackIDTypeDef Callb
 693:Drivers/STM32F1xx_HAL_Driver/Src/stm32f1xx_hal_dma.c **** {
 3087              		.loc 1 693 1
 3088              		.cfi_startproc
 3089              		@ args = 0, pretend = 0, frame = 24
 3090              		@ frame_needed = 1, uses_anonymous_args = 0
 3091              		@ link register save eliminated.
 3092 0000 80B4     		push	{r7}
 3093              	.LCFI43:
 3094              		.cfi_def_cfa_offset 4
 3095              		.cfi_offset 7, -4
 3096 0002 87B0     		sub	sp, sp, #28
 3097              	.LCFI44:
 3098              		.cfi_def_cfa_offset 32
 3099 0004 00AF     		add	r7, sp, #0
 3100              	.LCFI45:
 3101              		.cfi_def_cfa_register 7
 3102 0006 F860     		str	r0, [r7, #12]
 3103 0008 0B46     		mov	r3, r1
 3104 000a 7A60     		str	r2, [r7, #4]
 3105 000c FB72     		strb	r3, [r7, #11]
 694:Drivers/STM32F1xx_HAL_Driver/Src/stm32f1xx_hal_dma.c ****   HAL_StatusTypeDef status = HAL_OK;
 3106              		.loc 1 694 21
 3107 000e 0023     		movs	r3, #0
 3108 0010 FB75     		strb	r3, [r7, #23]
 695:Drivers/STM32F1xx_HAL_Driver/Src/stm32f1xx_hal_dma.c ****   
 696:Drivers/STM32F1xx_HAL_Driver/Src/stm32f1xx_hal_dma.c ****   /* Process locked */
 697:Drivers/STM32F1xx_HAL_Driver/Src/stm32f1xx_hal_dma.c ****   __HAL_LOCK(hdma);
 3109              		.loc 1 697 3
 3110 0012 FB68     		ldr	r3, [r7, #12]
 3111 0014 93F82030 		ldrb	r3, [r3, #32]	@ zero_extendqisi2
 3112 0018 012B     		cmp	r3, #1
 3113 001a 01D1     		bne	.L390
 3114              		.loc 1 697 3 is_stmt 0 discriminator 1
 3115 001c 0223     		movs	r3, #2
 3116 001e 31E0     		b	.L391
 3117              	.L390:
 3118              		.loc 1 697 3 discriminator 2
 3119 0020 FB68     		ldr	r3, [r7, #12]
 3120 0022 0122     		movs	r2, #1
 3121 0024 83F82020 		strb	r2, [r3, #32]
 698:Drivers/STM32F1xx_HAL_Driver/Src/stm32f1xx_hal_dma.c ****   
 699:Drivers/STM32F1xx_HAL_Driver/Src/stm32f1xx_hal_dma.c ****   if(HAL_DMA_STATE_READY == hdma->State)
 3122              		.loc 1 699 33 is_stmt 1 discriminator 2
 3123 0028 FB68     		ldr	r3, [r7, #12]
 3124 002a 93F82130 		ldrb	r3, [r3, #33]
ARM GAS  /tmp/ccfL2ZiY.s 			page 68


 3125 002e DBB2     		uxtb	r3, r3
 3126              		.loc 1 699 5 discriminator 2
 3127 0030 012B     		cmp	r3, #1
 3128 0032 20D1     		bne	.L392
 700:Drivers/STM32F1xx_HAL_Driver/Src/stm32f1xx_hal_dma.c ****   {
 701:Drivers/STM32F1xx_HAL_Driver/Src/stm32f1xx_hal_dma.c ****     switch (CallbackID)
 3129              		.loc 1 701 5
 3130 0034 FB7A     		ldrb	r3, [r7, #11]	@ zero_extendqisi2
 3131 0036 032B     		cmp	r3, #3
 3132 0038 1AD8     		bhi	.L393
 3133 003a 01A2     		adr	r2, .L395
 3134 003c 52F823F0 		ldr	pc, [r2, r3, lsl #2]
 3135              		.p2align 2
 3136              	.L395:
 3137 0040 51000000 		.word	.L398+1
 3138 0044 59000000 		.word	.L397+1
 3139 0048 61000000 		.word	.L396+1
 3140 004c 69000000 		.word	.L394+1
 3141              		.p2align 1
 3142              	.L398:
 702:Drivers/STM32F1xx_HAL_Driver/Src/stm32f1xx_hal_dma.c ****     {
 703:Drivers/STM32F1xx_HAL_Driver/Src/stm32f1xx_hal_dma.c ****     case  HAL_DMA_XFER_CPLT_CB_ID:
 704:Drivers/STM32F1xx_HAL_Driver/Src/stm32f1xx_hal_dma.c ****       hdma->XferCpltCallback = pCallback;
 3143              		.loc 1 704 30
 3144 0050 FB68     		ldr	r3, [r7, #12]
 3145 0052 7A68     		ldr	r2, [r7, #4]
 3146 0054 9A62     		str	r2, [r3, #40]
 705:Drivers/STM32F1xx_HAL_Driver/Src/stm32f1xx_hal_dma.c ****       break;
 3147              		.loc 1 705 7
 3148 0056 10E0     		b	.L400
 3149              	.L397:
 706:Drivers/STM32F1xx_HAL_Driver/Src/stm32f1xx_hal_dma.c ****       
 707:Drivers/STM32F1xx_HAL_Driver/Src/stm32f1xx_hal_dma.c ****     case  HAL_DMA_XFER_HALFCPLT_CB_ID:
 708:Drivers/STM32F1xx_HAL_Driver/Src/stm32f1xx_hal_dma.c ****       hdma->XferHalfCpltCallback = pCallback;
 3150              		.loc 1 708 34
 3151 0058 FB68     		ldr	r3, [r7, #12]
 3152 005a 7A68     		ldr	r2, [r7, #4]
 3153 005c DA62     		str	r2, [r3, #44]
 709:Drivers/STM32F1xx_HAL_Driver/Src/stm32f1xx_hal_dma.c ****       break;         
 3154              		.loc 1 709 7
 3155 005e 0CE0     		b	.L400
 3156              	.L396:
 710:Drivers/STM32F1xx_HAL_Driver/Src/stm32f1xx_hal_dma.c **** 
 711:Drivers/STM32F1xx_HAL_Driver/Src/stm32f1xx_hal_dma.c ****     case  HAL_DMA_XFER_ERROR_CB_ID:
 712:Drivers/STM32F1xx_HAL_Driver/Src/stm32f1xx_hal_dma.c ****       hdma->XferErrorCallback = pCallback;
 3157              		.loc 1 712 31
 3158 0060 FB68     		ldr	r3, [r7, #12]
 3159 0062 7A68     		ldr	r2, [r7, #4]
 3160 0064 1A63     		str	r2, [r3, #48]
 713:Drivers/STM32F1xx_HAL_Driver/Src/stm32f1xx_hal_dma.c ****       break;         
 3161              		.loc 1 713 7
 3162 0066 08E0     		b	.L400
 3163              	.L394:
 714:Drivers/STM32F1xx_HAL_Driver/Src/stm32f1xx_hal_dma.c ****       
 715:Drivers/STM32F1xx_HAL_Driver/Src/stm32f1xx_hal_dma.c ****     case  HAL_DMA_XFER_ABORT_CB_ID:
 716:Drivers/STM32F1xx_HAL_Driver/Src/stm32f1xx_hal_dma.c ****       hdma->XferAbortCallback = pCallback;
 3164              		.loc 1 716 31
ARM GAS  /tmp/ccfL2ZiY.s 			page 69


 3165 0068 FB68     		ldr	r3, [r7, #12]
 3166 006a 7A68     		ldr	r2, [r7, #4]
 3167 006c 5A63     		str	r2, [r3, #52]
 717:Drivers/STM32F1xx_HAL_Driver/Src/stm32f1xx_hal_dma.c ****       break; 
 3168              		.loc 1 717 7
 3169 006e 04E0     		b	.L400
 3170              	.L393:
 718:Drivers/STM32F1xx_HAL_Driver/Src/stm32f1xx_hal_dma.c ****       
 719:Drivers/STM32F1xx_HAL_Driver/Src/stm32f1xx_hal_dma.c ****     default:
 720:Drivers/STM32F1xx_HAL_Driver/Src/stm32f1xx_hal_dma.c ****       status = HAL_ERROR;
 3171              		.loc 1 720 14
 3172 0070 0123     		movs	r3, #1
 3173 0072 FB75     		strb	r3, [r7, #23]
 721:Drivers/STM32F1xx_HAL_Driver/Src/stm32f1xx_hal_dma.c ****       break;                                                            
 3174              		.loc 1 721 7
 3175 0074 01E0     		b	.L400
 3176              	.L392:
 722:Drivers/STM32F1xx_HAL_Driver/Src/stm32f1xx_hal_dma.c ****     }
 723:Drivers/STM32F1xx_HAL_Driver/Src/stm32f1xx_hal_dma.c ****   }
 724:Drivers/STM32F1xx_HAL_Driver/Src/stm32f1xx_hal_dma.c ****   else
 725:Drivers/STM32F1xx_HAL_Driver/Src/stm32f1xx_hal_dma.c ****   {
 726:Drivers/STM32F1xx_HAL_Driver/Src/stm32f1xx_hal_dma.c ****     status = HAL_ERROR;
 3177              		.loc 1 726 12
 3178 0076 0123     		movs	r3, #1
 3179 0078 FB75     		strb	r3, [r7, #23]
 3180              	.L400:
 727:Drivers/STM32F1xx_HAL_Driver/Src/stm32f1xx_hal_dma.c ****   } 
 728:Drivers/STM32F1xx_HAL_Driver/Src/stm32f1xx_hal_dma.c ****   
 729:Drivers/STM32F1xx_HAL_Driver/Src/stm32f1xx_hal_dma.c ****   /* Release Lock */
 730:Drivers/STM32F1xx_HAL_Driver/Src/stm32f1xx_hal_dma.c ****   __HAL_UNLOCK(hdma);
 3181              		.loc 1 730 3
 3182 007a FB68     		ldr	r3, [r7, #12]
 3183 007c 0022     		movs	r2, #0
 3184 007e 83F82020 		strb	r2, [r3, #32]
 731:Drivers/STM32F1xx_HAL_Driver/Src/stm32f1xx_hal_dma.c ****   
 732:Drivers/STM32F1xx_HAL_Driver/Src/stm32f1xx_hal_dma.c ****   return status;
 3185              		.loc 1 732 10
 3186 0082 FB7D     		ldrb	r3, [r7, #23]	@ zero_extendqisi2
 3187              	.L391:
 733:Drivers/STM32F1xx_HAL_Driver/Src/stm32f1xx_hal_dma.c **** }
 3188              		.loc 1 733 1
 3189 0084 1846     		mov	r0, r3
 3190 0086 1C37     		adds	r7, r7, #28
 3191              	.LCFI46:
 3192              		.cfi_def_cfa_offset 4
 3193 0088 BD46     		mov	sp, r7
 3194              	.LCFI47:
 3195              		.cfi_def_cfa_register 13
 3196              		@ sp needed
 3197 008a 80BC     		pop	{r7}
 3198              	.LCFI48:
 3199              		.cfi_restore 7
 3200              		.cfi_def_cfa_offset 0
 3201 008c 7047     		bx	lr
 3202              		.cfi_endproc
 3203              	.LFE73:
 3205 008e 00BF     		.section	.text.HAL_DMA_UnRegisterCallback,"ax",%progbits
ARM GAS  /tmp/ccfL2ZiY.s 			page 70


 3206              		.align	1
 3207              		.global	HAL_DMA_UnRegisterCallback
 3208              		.syntax unified
 3209              		.thumb
 3210              		.thumb_func
 3212              	HAL_DMA_UnRegisterCallback:
 3213              	.LFB74:
 734:Drivers/STM32F1xx_HAL_Driver/Src/stm32f1xx_hal_dma.c **** 
 735:Drivers/STM32F1xx_HAL_Driver/Src/stm32f1xx_hal_dma.c **** /**
 736:Drivers/STM32F1xx_HAL_Driver/Src/stm32f1xx_hal_dma.c ****   * @brief UnRegister callbacks
 737:Drivers/STM32F1xx_HAL_Driver/Src/stm32f1xx_hal_dma.c ****   * @param hdma: pointer to a DMA_HandleTypeDef structure that contains
 738:Drivers/STM32F1xx_HAL_Driver/Src/stm32f1xx_hal_dma.c ****   *              the configuration information for the specified DMA Channel.
 739:Drivers/STM32F1xx_HAL_Driver/Src/stm32f1xx_hal_dma.c ****   * @param CallbackID: User Callback identifier
 740:Drivers/STM32F1xx_HAL_Driver/Src/stm32f1xx_hal_dma.c ****   *                    a HAL_DMA_CallbackIDTypeDef ENUM as parameter.
 741:Drivers/STM32F1xx_HAL_Driver/Src/stm32f1xx_hal_dma.c ****   * @retval HAL status
 742:Drivers/STM32F1xx_HAL_Driver/Src/stm32f1xx_hal_dma.c ****   */              
 743:Drivers/STM32F1xx_HAL_Driver/Src/stm32f1xx_hal_dma.c **** HAL_StatusTypeDef HAL_DMA_UnRegisterCallback(DMA_HandleTypeDef *hdma, HAL_DMA_CallbackIDTypeDef Cal
 744:Drivers/STM32F1xx_HAL_Driver/Src/stm32f1xx_hal_dma.c **** {
 3214              		.loc 1 744 1
 3215              		.cfi_startproc
 3216              		@ args = 0, pretend = 0, frame = 16
 3217              		@ frame_needed = 1, uses_anonymous_args = 0
 3218              		@ link register save eliminated.
 3219 0000 80B4     		push	{r7}
 3220              	.LCFI49:
 3221              		.cfi_def_cfa_offset 4
 3222              		.cfi_offset 7, -4
 3223 0002 85B0     		sub	sp, sp, #20
 3224              	.LCFI50:
 3225              		.cfi_def_cfa_offset 24
 3226 0004 00AF     		add	r7, sp, #0
 3227              	.LCFI51:
 3228              		.cfi_def_cfa_register 7
 3229 0006 7860     		str	r0, [r7, #4]
 3230 0008 0B46     		mov	r3, r1
 3231 000a FB70     		strb	r3, [r7, #3]
 745:Drivers/STM32F1xx_HAL_Driver/Src/stm32f1xx_hal_dma.c ****   HAL_StatusTypeDef status = HAL_OK;
 3232              		.loc 1 745 21
 3233 000c 0023     		movs	r3, #0
 3234 000e FB73     		strb	r3, [r7, #15]
 746:Drivers/STM32F1xx_HAL_Driver/Src/stm32f1xx_hal_dma.c **** 
 747:Drivers/STM32F1xx_HAL_Driver/Src/stm32f1xx_hal_dma.c ****   /* Process locked */
 748:Drivers/STM32F1xx_HAL_Driver/Src/stm32f1xx_hal_dma.c ****   __HAL_LOCK(hdma);
 3235              		.loc 1 748 3
 3236 0010 7B68     		ldr	r3, [r7, #4]
 3237 0012 93F82030 		ldrb	r3, [r3, #32]	@ zero_extendqisi2
 3238 0016 012B     		cmp	r3, #1
 3239 0018 01D1     		bne	.L402
 3240              		.loc 1 748 3 is_stmt 0 discriminator 1
 3241 001a 0223     		movs	r3, #2
 3242 001c 41E0     		b	.L403
 3243              	.L402:
 3244              		.loc 1 748 3 discriminator 2
 3245 001e 7B68     		ldr	r3, [r7, #4]
 3246 0020 0122     		movs	r2, #1
 3247 0022 83F82020 		strb	r2, [r3, #32]
 749:Drivers/STM32F1xx_HAL_Driver/Src/stm32f1xx_hal_dma.c ****   
ARM GAS  /tmp/ccfL2ZiY.s 			page 71


 750:Drivers/STM32F1xx_HAL_Driver/Src/stm32f1xx_hal_dma.c ****   if(HAL_DMA_STATE_READY == hdma->State)
 3248              		.loc 1 750 33 is_stmt 1 discriminator 2
 3249 0026 7B68     		ldr	r3, [r7, #4]
 3250 0028 93F82130 		ldrb	r3, [r3, #33]
 3251 002c DBB2     		uxtb	r3, r3
 3252              		.loc 1 750 5 discriminator 2
 3253 002e 012B     		cmp	r3, #1
 3254 0030 30D1     		bne	.L404
 751:Drivers/STM32F1xx_HAL_Driver/Src/stm32f1xx_hal_dma.c ****   {
 752:Drivers/STM32F1xx_HAL_Driver/Src/stm32f1xx_hal_dma.c ****     switch (CallbackID)
 3255              		.loc 1 752 5
 3256 0032 FB78     		ldrb	r3, [r7, #3]	@ zero_extendqisi2
 3257 0034 042B     		cmp	r3, #4
 3258 0036 2AD8     		bhi	.L405
 3259 0038 01A2     		adr	r2, .L407
 3260 003a 52F823F0 		ldr	pc, [r2, r3, lsl #2]
 3261 003e 00BF     		.p2align 2
 3262              	.L407:
 3263 0040 55000000 		.word	.L411+1
 3264 0044 5D000000 		.word	.L410+1
 3265 0048 65000000 		.word	.L409+1
 3266 004c 6D000000 		.word	.L408+1
 3267 0050 75000000 		.word	.L406+1
 3268              		.p2align 1
 3269              	.L411:
 753:Drivers/STM32F1xx_HAL_Driver/Src/stm32f1xx_hal_dma.c ****     {
 754:Drivers/STM32F1xx_HAL_Driver/Src/stm32f1xx_hal_dma.c ****     case  HAL_DMA_XFER_CPLT_CB_ID:
 755:Drivers/STM32F1xx_HAL_Driver/Src/stm32f1xx_hal_dma.c ****       hdma->XferCpltCallback = NULL;
 3270              		.loc 1 755 30
 3271 0054 7B68     		ldr	r3, [r7, #4]
 3272 0056 0022     		movs	r2, #0
 3273 0058 9A62     		str	r2, [r3, #40]
 756:Drivers/STM32F1xx_HAL_Driver/Src/stm32f1xx_hal_dma.c ****       break;
 3274              		.loc 1 756 7
 3275 005a 1DE0     		b	.L413
 3276              	.L410:
 757:Drivers/STM32F1xx_HAL_Driver/Src/stm32f1xx_hal_dma.c **** 
 758:Drivers/STM32F1xx_HAL_Driver/Src/stm32f1xx_hal_dma.c ****     case  HAL_DMA_XFER_HALFCPLT_CB_ID:
 759:Drivers/STM32F1xx_HAL_Driver/Src/stm32f1xx_hal_dma.c ****       hdma->XferHalfCpltCallback = NULL;
 3277              		.loc 1 759 34
 3278 005c 7B68     		ldr	r3, [r7, #4]
 3279 005e 0022     		movs	r2, #0
 3280 0060 DA62     		str	r2, [r3, #44]
 760:Drivers/STM32F1xx_HAL_Driver/Src/stm32f1xx_hal_dma.c ****       break;         
 3281              		.loc 1 760 7
 3282 0062 19E0     		b	.L413
 3283              	.L409:
 761:Drivers/STM32F1xx_HAL_Driver/Src/stm32f1xx_hal_dma.c **** 
 762:Drivers/STM32F1xx_HAL_Driver/Src/stm32f1xx_hal_dma.c ****     case  HAL_DMA_XFER_ERROR_CB_ID:
 763:Drivers/STM32F1xx_HAL_Driver/Src/stm32f1xx_hal_dma.c ****       hdma->XferErrorCallback = NULL;
 3284              		.loc 1 763 31
 3285 0064 7B68     		ldr	r3, [r7, #4]
 3286 0066 0022     		movs	r2, #0
 3287 0068 1A63     		str	r2, [r3, #48]
 764:Drivers/STM32F1xx_HAL_Driver/Src/stm32f1xx_hal_dma.c ****       break;         
 3288              		.loc 1 764 7
 3289 006a 15E0     		b	.L413
ARM GAS  /tmp/ccfL2ZiY.s 			page 72


 3290              	.L408:
 765:Drivers/STM32F1xx_HAL_Driver/Src/stm32f1xx_hal_dma.c **** 
 766:Drivers/STM32F1xx_HAL_Driver/Src/stm32f1xx_hal_dma.c ****     case  HAL_DMA_XFER_ABORT_CB_ID:
 767:Drivers/STM32F1xx_HAL_Driver/Src/stm32f1xx_hal_dma.c ****       hdma->XferAbortCallback = NULL;
 3291              		.loc 1 767 31
 3292 006c 7B68     		ldr	r3, [r7, #4]
 3293 006e 0022     		movs	r2, #0
 3294 0070 5A63     		str	r2, [r3, #52]
 768:Drivers/STM32F1xx_HAL_Driver/Src/stm32f1xx_hal_dma.c ****       break; 
 3295              		.loc 1 768 7
 3296 0072 11E0     		b	.L413
 3297              	.L406:
 769:Drivers/STM32F1xx_HAL_Driver/Src/stm32f1xx_hal_dma.c **** 
 770:Drivers/STM32F1xx_HAL_Driver/Src/stm32f1xx_hal_dma.c ****     case   HAL_DMA_XFER_ALL_CB_ID:
 771:Drivers/STM32F1xx_HAL_Driver/Src/stm32f1xx_hal_dma.c ****       hdma->XferCpltCallback = NULL;
 3298              		.loc 1 771 30
 3299 0074 7B68     		ldr	r3, [r7, #4]
 3300 0076 0022     		movs	r2, #0
 3301 0078 9A62     		str	r2, [r3, #40]
 772:Drivers/STM32F1xx_HAL_Driver/Src/stm32f1xx_hal_dma.c ****       hdma->XferHalfCpltCallback = NULL;
 3302              		.loc 1 772 34
 3303 007a 7B68     		ldr	r3, [r7, #4]
 3304 007c 0022     		movs	r2, #0
 3305 007e DA62     		str	r2, [r3, #44]
 773:Drivers/STM32F1xx_HAL_Driver/Src/stm32f1xx_hal_dma.c ****       hdma->XferErrorCallback = NULL;
 3306              		.loc 1 773 31
 3307 0080 7B68     		ldr	r3, [r7, #4]
 3308 0082 0022     		movs	r2, #0
 3309 0084 1A63     		str	r2, [r3, #48]
 774:Drivers/STM32F1xx_HAL_Driver/Src/stm32f1xx_hal_dma.c ****       hdma->XferAbortCallback = NULL;
 3310              		.loc 1 774 31
 3311 0086 7B68     		ldr	r3, [r7, #4]
 3312 0088 0022     		movs	r2, #0
 3313 008a 5A63     		str	r2, [r3, #52]
 775:Drivers/STM32F1xx_HAL_Driver/Src/stm32f1xx_hal_dma.c ****       break; 
 3314              		.loc 1 775 7
 3315 008c 04E0     		b	.L413
 3316              	.L405:
 776:Drivers/STM32F1xx_HAL_Driver/Src/stm32f1xx_hal_dma.c **** 
 777:Drivers/STM32F1xx_HAL_Driver/Src/stm32f1xx_hal_dma.c ****     default:
 778:Drivers/STM32F1xx_HAL_Driver/Src/stm32f1xx_hal_dma.c ****       status = HAL_ERROR;
 3317              		.loc 1 778 14
 3318 008e 0123     		movs	r3, #1
 3319 0090 FB73     		strb	r3, [r7, #15]
 779:Drivers/STM32F1xx_HAL_Driver/Src/stm32f1xx_hal_dma.c ****       break;
 3320              		.loc 1 779 7
 3321 0092 01E0     		b	.L413
 3322              	.L404:
 780:Drivers/STM32F1xx_HAL_Driver/Src/stm32f1xx_hal_dma.c ****     }
 781:Drivers/STM32F1xx_HAL_Driver/Src/stm32f1xx_hal_dma.c ****   }
 782:Drivers/STM32F1xx_HAL_Driver/Src/stm32f1xx_hal_dma.c ****   else
 783:Drivers/STM32F1xx_HAL_Driver/Src/stm32f1xx_hal_dma.c ****   {
 784:Drivers/STM32F1xx_HAL_Driver/Src/stm32f1xx_hal_dma.c ****     status = HAL_ERROR;
 3323              		.loc 1 784 12
 3324 0094 0123     		movs	r3, #1
 3325 0096 FB73     		strb	r3, [r7, #15]
 3326              	.L413:
ARM GAS  /tmp/ccfL2ZiY.s 			page 73


 785:Drivers/STM32F1xx_HAL_Driver/Src/stm32f1xx_hal_dma.c ****   } 
 786:Drivers/STM32F1xx_HAL_Driver/Src/stm32f1xx_hal_dma.c ****   
 787:Drivers/STM32F1xx_HAL_Driver/Src/stm32f1xx_hal_dma.c ****   /* Release Lock */
 788:Drivers/STM32F1xx_HAL_Driver/Src/stm32f1xx_hal_dma.c ****   __HAL_UNLOCK(hdma);
 3327              		.loc 1 788 3
 3328 0098 7B68     		ldr	r3, [r7, #4]
 3329 009a 0022     		movs	r2, #0
 3330 009c 83F82020 		strb	r2, [r3, #32]
 789:Drivers/STM32F1xx_HAL_Driver/Src/stm32f1xx_hal_dma.c ****   
 790:Drivers/STM32F1xx_HAL_Driver/Src/stm32f1xx_hal_dma.c ****   return status;
 3331              		.loc 1 790 10
 3332 00a0 FB7B     		ldrb	r3, [r7, #15]	@ zero_extendqisi2
 3333              	.L403:
 791:Drivers/STM32F1xx_HAL_Driver/Src/stm32f1xx_hal_dma.c **** }
 3334              		.loc 1 791 1
 3335 00a2 1846     		mov	r0, r3
 3336 00a4 1437     		adds	r7, r7, #20
 3337              	.LCFI52:
 3338              		.cfi_def_cfa_offset 4
 3339 00a6 BD46     		mov	sp, r7
 3340              	.LCFI53:
 3341              		.cfi_def_cfa_register 13
 3342              		@ sp needed
 3343 00a8 80BC     		pop	{r7}
 3344              	.LCFI54:
 3345              		.cfi_restore 7
 3346              		.cfi_def_cfa_offset 0
 3347 00aa 7047     		bx	lr
 3348              		.cfi_endproc
 3349              	.LFE74:
 3351              		.section	.text.HAL_DMA_GetState,"ax",%progbits
 3352              		.align	1
 3353              		.global	HAL_DMA_GetState
 3354              		.syntax unified
 3355              		.thumb
 3356              		.thumb_func
 3358              	HAL_DMA_GetState:
 3359              	.LFB75:
 792:Drivers/STM32F1xx_HAL_Driver/Src/stm32f1xx_hal_dma.c ****   
 793:Drivers/STM32F1xx_HAL_Driver/Src/stm32f1xx_hal_dma.c **** /**
 794:Drivers/STM32F1xx_HAL_Driver/Src/stm32f1xx_hal_dma.c ****   * @}
 795:Drivers/STM32F1xx_HAL_Driver/Src/stm32f1xx_hal_dma.c ****   */
 796:Drivers/STM32F1xx_HAL_Driver/Src/stm32f1xx_hal_dma.c **** 
 797:Drivers/STM32F1xx_HAL_Driver/Src/stm32f1xx_hal_dma.c **** /** @defgroup DMA_Exported_Functions_Group3 Peripheral State and Errors functions
 798:Drivers/STM32F1xx_HAL_Driver/Src/stm32f1xx_hal_dma.c ****   *  @brief    Peripheral State and Errors functions
 799:Drivers/STM32F1xx_HAL_Driver/Src/stm32f1xx_hal_dma.c ****   *
 800:Drivers/STM32F1xx_HAL_Driver/Src/stm32f1xx_hal_dma.c **** @verbatim
 801:Drivers/STM32F1xx_HAL_Driver/Src/stm32f1xx_hal_dma.c ****  ===============================================================================
 802:Drivers/STM32F1xx_HAL_Driver/Src/stm32f1xx_hal_dma.c ****             ##### Peripheral State and Errors functions #####
 803:Drivers/STM32F1xx_HAL_Driver/Src/stm32f1xx_hal_dma.c ****  ===============================================================================  
 804:Drivers/STM32F1xx_HAL_Driver/Src/stm32f1xx_hal_dma.c ****     [..]
 805:Drivers/STM32F1xx_HAL_Driver/Src/stm32f1xx_hal_dma.c ****     This subsection provides functions allowing to
 806:Drivers/STM32F1xx_HAL_Driver/Src/stm32f1xx_hal_dma.c ****       (+) Check the DMA state
 807:Drivers/STM32F1xx_HAL_Driver/Src/stm32f1xx_hal_dma.c ****       (+) Get error code
 808:Drivers/STM32F1xx_HAL_Driver/Src/stm32f1xx_hal_dma.c **** 
 809:Drivers/STM32F1xx_HAL_Driver/Src/stm32f1xx_hal_dma.c **** @endverbatim
 810:Drivers/STM32F1xx_HAL_Driver/Src/stm32f1xx_hal_dma.c ****   * @{
ARM GAS  /tmp/ccfL2ZiY.s 			page 74


 811:Drivers/STM32F1xx_HAL_Driver/Src/stm32f1xx_hal_dma.c ****   */
 812:Drivers/STM32F1xx_HAL_Driver/Src/stm32f1xx_hal_dma.c **** 
 813:Drivers/STM32F1xx_HAL_Driver/Src/stm32f1xx_hal_dma.c **** /**
 814:Drivers/STM32F1xx_HAL_Driver/Src/stm32f1xx_hal_dma.c ****   * @brief  Return the DMA handle state.
 815:Drivers/STM32F1xx_HAL_Driver/Src/stm32f1xx_hal_dma.c ****   * @param  hdma: pointer to a DMA_HandleTypeDef structure that contains
 816:Drivers/STM32F1xx_HAL_Driver/Src/stm32f1xx_hal_dma.c ****   *               the configuration information for the specified DMA Channel.
 817:Drivers/STM32F1xx_HAL_Driver/Src/stm32f1xx_hal_dma.c ****   * @retval HAL state
 818:Drivers/STM32F1xx_HAL_Driver/Src/stm32f1xx_hal_dma.c ****   */
 819:Drivers/STM32F1xx_HAL_Driver/Src/stm32f1xx_hal_dma.c **** HAL_DMA_StateTypeDef HAL_DMA_GetState(DMA_HandleTypeDef *hdma)
 820:Drivers/STM32F1xx_HAL_Driver/Src/stm32f1xx_hal_dma.c **** {
 3360              		.loc 1 820 1
 3361              		.cfi_startproc
 3362              		@ args = 0, pretend = 0, frame = 8
 3363              		@ frame_needed = 1, uses_anonymous_args = 0
 3364              		@ link register save eliminated.
 3365 0000 80B4     		push	{r7}
 3366              	.LCFI55:
 3367              		.cfi_def_cfa_offset 4
 3368              		.cfi_offset 7, -4
 3369 0002 83B0     		sub	sp, sp, #12
 3370              	.LCFI56:
 3371              		.cfi_def_cfa_offset 16
 3372 0004 00AF     		add	r7, sp, #0
 3373              	.LCFI57:
 3374              		.cfi_def_cfa_register 7
 3375 0006 7860     		str	r0, [r7, #4]
 821:Drivers/STM32F1xx_HAL_Driver/Src/stm32f1xx_hal_dma.c ****   /* Return DMA handle state */
 822:Drivers/STM32F1xx_HAL_Driver/Src/stm32f1xx_hal_dma.c ****   return hdma->State;
 3376              		.loc 1 822 14
 3377 0008 7B68     		ldr	r3, [r7, #4]
 3378 000a 93F82130 		ldrb	r3, [r3, #33]
 3379 000e DBB2     		uxtb	r3, r3
 823:Drivers/STM32F1xx_HAL_Driver/Src/stm32f1xx_hal_dma.c **** }
 3380              		.loc 1 823 1
 3381 0010 1846     		mov	r0, r3
 3382 0012 0C37     		adds	r7, r7, #12
 3383              	.LCFI58:
 3384              		.cfi_def_cfa_offset 4
 3385 0014 BD46     		mov	sp, r7
 3386              	.LCFI59:
 3387              		.cfi_def_cfa_register 13
 3388              		@ sp needed
 3389 0016 80BC     		pop	{r7}
 3390              	.LCFI60:
 3391              		.cfi_restore 7
 3392              		.cfi_def_cfa_offset 0
 3393 0018 7047     		bx	lr
 3394              		.cfi_endproc
 3395              	.LFE75:
 3397              		.section	.text.HAL_DMA_GetError,"ax",%progbits
 3398              		.align	1
 3399              		.global	HAL_DMA_GetError
 3400              		.syntax unified
 3401              		.thumb
 3402              		.thumb_func
 3404              	HAL_DMA_GetError:
 3405              	.LFB76:
ARM GAS  /tmp/ccfL2ZiY.s 			page 75


 824:Drivers/STM32F1xx_HAL_Driver/Src/stm32f1xx_hal_dma.c **** 
 825:Drivers/STM32F1xx_HAL_Driver/Src/stm32f1xx_hal_dma.c **** /**
 826:Drivers/STM32F1xx_HAL_Driver/Src/stm32f1xx_hal_dma.c ****   * @brief  Return the DMA error code.
 827:Drivers/STM32F1xx_HAL_Driver/Src/stm32f1xx_hal_dma.c ****   * @param  hdma : pointer to a DMA_HandleTypeDef structure that contains
 828:Drivers/STM32F1xx_HAL_Driver/Src/stm32f1xx_hal_dma.c ****   *              the configuration information for the specified DMA Channel.
 829:Drivers/STM32F1xx_HAL_Driver/Src/stm32f1xx_hal_dma.c ****   * @retval DMA Error Code
 830:Drivers/STM32F1xx_HAL_Driver/Src/stm32f1xx_hal_dma.c ****   */
 831:Drivers/STM32F1xx_HAL_Driver/Src/stm32f1xx_hal_dma.c **** uint32_t HAL_DMA_GetError(DMA_HandleTypeDef *hdma)
 832:Drivers/STM32F1xx_HAL_Driver/Src/stm32f1xx_hal_dma.c **** {
 3406              		.loc 1 832 1
 3407              		.cfi_startproc
 3408              		@ args = 0, pretend = 0, frame = 8
 3409              		@ frame_needed = 1, uses_anonymous_args = 0
 3410              		@ link register save eliminated.
 3411 0000 80B4     		push	{r7}
 3412              	.LCFI61:
 3413              		.cfi_def_cfa_offset 4
 3414              		.cfi_offset 7, -4
 3415 0002 83B0     		sub	sp, sp, #12
 3416              	.LCFI62:
 3417              		.cfi_def_cfa_offset 16
 3418 0004 00AF     		add	r7, sp, #0
 3419              	.LCFI63:
 3420              		.cfi_def_cfa_register 7
 3421 0006 7860     		str	r0, [r7, #4]
 833:Drivers/STM32F1xx_HAL_Driver/Src/stm32f1xx_hal_dma.c ****   return hdma->ErrorCode;
 3422              		.loc 1 833 14
 3423 0008 7B68     		ldr	r3, [r7, #4]
 3424 000a 9B6B     		ldr	r3, [r3, #56]
 834:Drivers/STM32F1xx_HAL_Driver/Src/stm32f1xx_hal_dma.c **** }
 3425              		.loc 1 834 1
 3426 000c 1846     		mov	r0, r3
 3427 000e 0C37     		adds	r7, r7, #12
 3428              	.LCFI64:
 3429              		.cfi_def_cfa_offset 4
 3430 0010 BD46     		mov	sp, r7
 3431              	.LCFI65:
 3432              		.cfi_def_cfa_register 13
 3433              		@ sp needed
 3434 0012 80BC     		pop	{r7}
 3435              	.LCFI66:
 3436              		.cfi_restore 7
 3437              		.cfi_def_cfa_offset 0
 3438 0014 7047     		bx	lr
 3439              		.cfi_endproc
 3440              	.LFE76:
 3442              		.section	.text.DMA_SetConfig,"ax",%progbits
 3443              		.align	1
 3444              		.syntax unified
 3445              		.thumb
 3446              		.thumb_func
 3448              	DMA_SetConfig:
 3449              	.LFB77:
 835:Drivers/STM32F1xx_HAL_Driver/Src/stm32f1xx_hal_dma.c **** 
 836:Drivers/STM32F1xx_HAL_Driver/Src/stm32f1xx_hal_dma.c **** /**
 837:Drivers/STM32F1xx_HAL_Driver/Src/stm32f1xx_hal_dma.c ****   * @}
 838:Drivers/STM32F1xx_HAL_Driver/Src/stm32f1xx_hal_dma.c ****   */
ARM GAS  /tmp/ccfL2ZiY.s 			page 76


 839:Drivers/STM32F1xx_HAL_Driver/Src/stm32f1xx_hal_dma.c **** 
 840:Drivers/STM32F1xx_HAL_Driver/Src/stm32f1xx_hal_dma.c **** /**
 841:Drivers/STM32F1xx_HAL_Driver/Src/stm32f1xx_hal_dma.c ****   * @}
 842:Drivers/STM32F1xx_HAL_Driver/Src/stm32f1xx_hal_dma.c ****   */
 843:Drivers/STM32F1xx_HAL_Driver/Src/stm32f1xx_hal_dma.c **** 
 844:Drivers/STM32F1xx_HAL_Driver/Src/stm32f1xx_hal_dma.c **** /** @addtogroup DMA_Private_Functions
 845:Drivers/STM32F1xx_HAL_Driver/Src/stm32f1xx_hal_dma.c ****   * @{
 846:Drivers/STM32F1xx_HAL_Driver/Src/stm32f1xx_hal_dma.c ****   */
 847:Drivers/STM32F1xx_HAL_Driver/Src/stm32f1xx_hal_dma.c **** 
 848:Drivers/STM32F1xx_HAL_Driver/Src/stm32f1xx_hal_dma.c **** /**
 849:Drivers/STM32F1xx_HAL_Driver/Src/stm32f1xx_hal_dma.c ****   * @brief  Sets the DMA Transfer parameter.
 850:Drivers/STM32F1xx_HAL_Driver/Src/stm32f1xx_hal_dma.c ****   * @param  hdma:       pointer to a DMA_HandleTypeDef structure that contains
 851:Drivers/STM32F1xx_HAL_Driver/Src/stm32f1xx_hal_dma.c ****   *                     the configuration information for the specified DMA Channel.
 852:Drivers/STM32F1xx_HAL_Driver/Src/stm32f1xx_hal_dma.c ****   * @param  SrcAddress: The source memory Buffer address
 853:Drivers/STM32F1xx_HAL_Driver/Src/stm32f1xx_hal_dma.c ****   * @param  DstAddress: The destination memory Buffer address
 854:Drivers/STM32F1xx_HAL_Driver/Src/stm32f1xx_hal_dma.c ****   * @param  DataLength: The length of data to be transferred from source to destination
 855:Drivers/STM32F1xx_HAL_Driver/Src/stm32f1xx_hal_dma.c ****   * @retval HAL status
 856:Drivers/STM32F1xx_HAL_Driver/Src/stm32f1xx_hal_dma.c ****   */
 857:Drivers/STM32F1xx_HAL_Driver/Src/stm32f1xx_hal_dma.c **** static void DMA_SetConfig(DMA_HandleTypeDef *hdma, uint32_t SrcAddress, uint32_t DstAddress, uint32
 858:Drivers/STM32F1xx_HAL_Driver/Src/stm32f1xx_hal_dma.c **** {
 3450              		.loc 1 858 1
 3451              		.cfi_startproc
 3452              		@ args = 0, pretend = 0, frame = 16
 3453              		@ frame_needed = 1, uses_anonymous_args = 0
 3454              		@ link register save eliminated.
 3455 0000 80B4     		push	{r7}
 3456              	.LCFI67:
 3457              		.cfi_def_cfa_offset 4
 3458              		.cfi_offset 7, -4
 3459 0002 85B0     		sub	sp, sp, #20
 3460              	.LCFI68:
 3461              		.cfi_def_cfa_offset 24
 3462 0004 00AF     		add	r7, sp, #0
 3463              	.LCFI69:
 3464              		.cfi_def_cfa_register 7
 3465 0006 F860     		str	r0, [r7, #12]
 3466 0008 B960     		str	r1, [r7, #8]
 3467 000a 7A60     		str	r2, [r7, #4]
 3468 000c 3B60     		str	r3, [r7]
 859:Drivers/STM32F1xx_HAL_Driver/Src/stm32f1xx_hal_dma.c ****   /* Clear all flags */
 860:Drivers/STM32F1xx_HAL_Driver/Src/stm32f1xx_hal_dma.c ****   hdma->DmaBaseAddress->IFCR = (DMA_ISR_GIF1 << hdma->ChannelIndex);
 3469              		.loc 1 860 53
 3470 000e FB68     		ldr	r3, [r7, #12]
 3471 0010 1A6C     		ldr	r2, [r3, #64]
 3472              		.loc 1 860 7
 3473 0012 FB68     		ldr	r3, [r7, #12]
 3474 0014 DB6B     		ldr	r3, [r3, #60]
 3475              		.loc 1 860 46
 3476 0016 0121     		movs	r1, #1
 3477 0018 01FA02F2 		lsl	r2, r1, r2
 3478              		.loc 1 860 30
 3479 001c 5A60     		str	r2, [r3, #4]
 861:Drivers/STM32F1xx_HAL_Driver/Src/stm32f1xx_hal_dma.c **** 
 862:Drivers/STM32F1xx_HAL_Driver/Src/stm32f1xx_hal_dma.c ****   /* Configure DMA Channel data length */
 863:Drivers/STM32F1xx_HAL_Driver/Src/stm32f1xx_hal_dma.c ****   hdma->Instance->CNDTR = DataLength;
 3480              		.loc 1 863 7
 3481 001e FB68     		ldr	r3, [r7, #12]
ARM GAS  /tmp/ccfL2ZiY.s 			page 77


 3482 0020 1B68     		ldr	r3, [r3]
 3483              		.loc 1 863 25
 3484 0022 3A68     		ldr	r2, [r7]
 3485 0024 5A60     		str	r2, [r3, #4]
 864:Drivers/STM32F1xx_HAL_Driver/Src/stm32f1xx_hal_dma.c **** 
 865:Drivers/STM32F1xx_HAL_Driver/Src/stm32f1xx_hal_dma.c ****   /* Memory to Peripheral */
 866:Drivers/STM32F1xx_HAL_Driver/Src/stm32f1xx_hal_dma.c ****   if((hdma->Init.Direction) == DMA_MEMORY_TO_PERIPH)
 3486              		.loc 1 866 17
 3487 0026 FB68     		ldr	r3, [r7, #12]
 3488 0028 5B68     		ldr	r3, [r3, #4]
 3489              		.loc 1 866 5
 3490 002a 102B     		cmp	r3, #16
 3491 002c 08D1     		bne	.L419
 867:Drivers/STM32F1xx_HAL_Driver/Src/stm32f1xx_hal_dma.c ****   {
 868:Drivers/STM32F1xx_HAL_Driver/Src/stm32f1xx_hal_dma.c ****     /* Configure DMA Channel destination address */
 869:Drivers/STM32F1xx_HAL_Driver/Src/stm32f1xx_hal_dma.c ****     hdma->Instance->CPAR = DstAddress;
 3492              		.loc 1 869 9
 3493 002e FB68     		ldr	r3, [r7, #12]
 3494 0030 1B68     		ldr	r3, [r3]
 3495              		.loc 1 869 26
 3496 0032 7A68     		ldr	r2, [r7, #4]
 3497 0034 9A60     		str	r2, [r3, #8]
 870:Drivers/STM32F1xx_HAL_Driver/Src/stm32f1xx_hal_dma.c **** 
 871:Drivers/STM32F1xx_HAL_Driver/Src/stm32f1xx_hal_dma.c ****     /* Configure DMA Channel source address */
 872:Drivers/STM32F1xx_HAL_Driver/Src/stm32f1xx_hal_dma.c ****     hdma->Instance->CMAR = SrcAddress;
 3498              		.loc 1 872 9
 3499 0036 FB68     		ldr	r3, [r7, #12]
 3500 0038 1B68     		ldr	r3, [r3]
 3501              		.loc 1 872 26
 3502 003a BA68     		ldr	r2, [r7, #8]
 3503 003c DA60     		str	r2, [r3, #12]
 873:Drivers/STM32F1xx_HAL_Driver/Src/stm32f1xx_hal_dma.c ****   }
 874:Drivers/STM32F1xx_HAL_Driver/Src/stm32f1xx_hal_dma.c ****   /* Peripheral to Memory */
 875:Drivers/STM32F1xx_HAL_Driver/Src/stm32f1xx_hal_dma.c ****   else
 876:Drivers/STM32F1xx_HAL_Driver/Src/stm32f1xx_hal_dma.c ****   {
 877:Drivers/STM32F1xx_HAL_Driver/Src/stm32f1xx_hal_dma.c ****     /* Configure DMA Channel source address */
 878:Drivers/STM32F1xx_HAL_Driver/Src/stm32f1xx_hal_dma.c ****     hdma->Instance->CPAR = SrcAddress;
 879:Drivers/STM32F1xx_HAL_Driver/Src/stm32f1xx_hal_dma.c **** 
 880:Drivers/STM32F1xx_HAL_Driver/Src/stm32f1xx_hal_dma.c ****     /* Configure DMA Channel destination address */
 881:Drivers/STM32F1xx_HAL_Driver/Src/stm32f1xx_hal_dma.c ****     hdma->Instance->CMAR = DstAddress;
 882:Drivers/STM32F1xx_HAL_Driver/Src/stm32f1xx_hal_dma.c ****   }
 883:Drivers/STM32F1xx_HAL_Driver/Src/stm32f1xx_hal_dma.c **** }
 3504              		.loc 1 883 1
 3505 003e 07E0     		b	.L421
 3506              	.L419:
 878:Drivers/STM32F1xx_HAL_Driver/Src/stm32f1xx_hal_dma.c **** 
 3507              		.loc 1 878 9
 3508 0040 FB68     		ldr	r3, [r7, #12]
 3509 0042 1B68     		ldr	r3, [r3]
 878:Drivers/STM32F1xx_HAL_Driver/Src/stm32f1xx_hal_dma.c **** 
 3510              		.loc 1 878 26
 3511 0044 BA68     		ldr	r2, [r7, #8]
 3512 0046 9A60     		str	r2, [r3, #8]
 881:Drivers/STM32F1xx_HAL_Driver/Src/stm32f1xx_hal_dma.c ****   }
 3513              		.loc 1 881 9
 3514 0048 FB68     		ldr	r3, [r7, #12]
 3515 004a 1B68     		ldr	r3, [r3]
ARM GAS  /tmp/ccfL2ZiY.s 			page 78


 881:Drivers/STM32F1xx_HAL_Driver/Src/stm32f1xx_hal_dma.c ****   }
 3516              		.loc 1 881 26
 3517 004c 7A68     		ldr	r2, [r7, #4]
 3518 004e DA60     		str	r2, [r3, #12]
 3519              	.L421:
 3520              		.loc 1 883 1
 3521 0050 00BF     		nop
 3522 0052 1437     		adds	r7, r7, #20
 3523              	.LCFI70:
 3524              		.cfi_def_cfa_offset 4
 3525 0054 BD46     		mov	sp, r7
 3526              	.LCFI71:
 3527              		.cfi_def_cfa_register 13
 3528              		@ sp needed
 3529 0056 80BC     		pop	{r7}
 3530              	.LCFI72:
 3531              		.cfi_restore 7
 3532              		.cfi_def_cfa_offset 0
 3533 0058 7047     		bx	lr
 3534              		.cfi_endproc
 3535              	.LFE77:
 3537              		.text
 3538              	.Letext0:
 3539              		.file 2 "/usr/local/gcc-arm-none-eabi-10.3-2021.10/arm-none-eabi/include/machine/_default_types.h"
 3540              		.file 3 "/usr/local/gcc-arm-none-eabi-10.3-2021.10/arm-none-eabi/include/sys/_stdint.h"
 3541              		.file 4 "Drivers/CMSIS/Device/ST/STM32F1xx/Include/stm32f103xe.h"
 3542              		.file 5 "Drivers/CMSIS/Device/ST/STM32F1xx/Include/stm32f1xx.h"
 3543              		.file 6 "Drivers/STM32F1xx_HAL_Driver/Inc/stm32f1xx_hal_def.h"
 3544              		.file 7 "Drivers/STM32F1xx_HAL_Driver/Inc/stm32f1xx_hal_dma.h"
ARM GAS  /tmp/ccfL2ZiY.s 			page 79

