ARM GAS  /tmp/ccmpGAeh.s 			page 1


   1              		.cpu cortex-m3
   2              		.arch armv7-m
   3              		.fpu softvfp
   4              		.eabi_attribute 20, 1
   5              		.eabi_attribute 21, 1
   6              		.eabi_attribute 23, 3
   7              		.eabi_attribute 24, 1
   8              		.eabi_attribute 25, 1
   9              		.eabi_attribute 26, 1
  10              		.eabi_attribute 30, 6
  11              		.eabi_attribute 34, 1
  12              		.eabi_attribute 18, 4
  13              		.file	"stm32f1xx_ll_utils.c"
  14              		.text
  15              	.Ltext0:
  16              		.cfi_sections	.debug_frame
  17              		.section	.text.LL_RCC_HSE_EnableBypass,"ax",%progbits
  18              		.align	1
  19              		.syntax unified
  20              		.thumb
  21              		.thumb_func
  23              	LL_RCC_HSE_EnableBypass:
  24              	.LFB66:
  25              		.file 1 "Drivers/STM32F1xx_HAL_Driver/Inc/stm32f1xx_ll_rcc.h"
   1:Drivers/STM32F1xx_HAL_Driver/Inc/stm32f1xx_ll_rcc.h **** /**
   2:Drivers/STM32F1xx_HAL_Driver/Inc/stm32f1xx_ll_rcc.h ****   ******************************************************************************
   3:Drivers/STM32F1xx_HAL_Driver/Inc/stm32f1xx_ll_rcc.h ****   * @file    stm32f1xx_ll_rcc.h
   4:Drivers/STM32F1xx_HAL_Driver/Inc/stm32f1xx_ll_rcc.h ****   * @author  MCD Application Team
   5:Drivers/STM32F1xx_HAL_Driver/Inc/stm32f1xx_ll_rcc.h ****   * @brief   Header file of RCC LL module.
   6:Drivers/STM32F1xx_HAL_Driver/Inc/stm32f1xx_ll_rcc.h ****   ******************************************************************************
   7:Drivers/STM32F1xx_HAL_Driver/Inc/stm32f1xx_ll_rcc.h ****   * @attention
   8:Drivers/STM32F1xx_HAL_Driver/Inc/stm32f1xx_ll_rcc.h ****   *
   9:Drivers/STM32F1xx_HAL_Driver/Inc/stm32f1xx_ll_rcc.h ****   * Copyright (c) 2016 STMicroelectronics.
  10:Drivers/STM32F1xx_HAL_Driver/Inc/stm32f1xx_ll_rcc.h ****   * All rights reserved.
  11:Drivers/STM32F1xx_HAL_Driver/Inc/stm32f1xx_ll_rcc.h ****   *
  12:Drivers/STM32F1xx_HAL_Driver/Inc/stm32f1xx_ll_rcc.h ****   * This software is licensed under terms that can be found in the LICENSE file in
  13:Drivers/STM32F1xx_HAL_Driver/Inc/stm32f1xx_ll_rcc.h ****   * the root directory of this software component.
  14:Drivers/STM32F1xx_HAL_Driver/Inc/stm32f1xx_ll_rcc.h ****   * If no LICENSE file comes with this software, it is provided AS-IS.
  15:Drivers/STM32F1xx_HAL_Driver/Inc/stm32f1xx_ll_rcc.h ****   ******************************************************************************
  16:Drivers/STM32F1xx_HAL_Driver/Inc/stm32f1xx_ll_rcc.h ****   */
  17:Drivers/STM32F1xx_HAL_Driver/Inc/stm32f1xx_ll_rcc.h **** 
  18:Drivers/STM32F1xx_HAL_Driver/Inc/stm32f1xx_ll_rcc.h **** /* Define to prevent recursive inclusion -------------------------------------*/
  19:Drivers/STM32F1xx_HAL_Driver/Inc/stm32f1xx_ll_rcc.h **** #ifndef __STM32F1xx_LL_RCC_H
  20:Drivers/STM32F1xx_HAL_Driver/Inc/stm32f1xx_ll_rcc.h **** #define __STM32F1xx_LL_RCC_H
  21:Drivers/STM32F1xx_HAL_Driver/Inc/stm32f1xx_ll_rcc.h **** 
  22:Drivers/STM32F1xx_HAL_Driver/Inc/stm32f1xx_ll_rcc.h **** #ifdef __cplusplus
  23:Drivers/STM32F1xx_HAL_Driver/Inc/stm32f1xx_ll_rcc.h **** extern "C" {
  24:Drivers/STM32F1xx_HAL_Driver/Inc/stm32f1xx_ll_rcc.h **** #endif
  25:Drivers/STM32F1xx_HAL_Driver/Inc/stm32f1xx_ll_rcc.h **** 
  26:Drivers/STM32F1xx_HAL_Driver/Inc/stm32f1xx_ll_rcc.h **** /* Includes ------------------------------------------------------------------*/
  27:Drivers/STM32F1xx_HAL_Driver/Inc/stm32f1xx_ll_rcc.h **** #include "stm32f1xx.h"
  28:Drivers/STM32F1xx_HAL_Driver/Inc/stm32f1xx_ll_rcc.h **** 
  29:Drivers/STM32F1xx_HAL_Driver/Inc/stm32f1xx_ll_rcc.h **** /** @addtogroup STM32F1xx_LL_Driver
  30:Drivers/STM32F1xx_HAL_Driver/Inc/stm32f1xx_ll_rcc.h ****   * @{
  31:Drivers/STM32F1xx_HAL_Driver/Inc/stm32f1xx_ll_rcc.h ****   */
  32:Drivers/STM32F1xx_HAL_Driver/Inc/stm32f1xx_ll_rcc.h **** 
  33:Drivers/STM32F1xx_HAL_Driver/Inc/stm32f1xx_ll_rcc.h **** #if defined(RCC)
ARM GAS  /tmp/ccmpGAeh.s 			page 2


  34:Drivers/STM32F1xx_HAL_Driver/Inc/stm32f1xx_ll_rcc.h **** 
  35:Drivers/STM32F1xx_HAL_Driver/Inc/stm32f1xx_ll_rcc.h **** /** @defgroup RCC_LL RCC
  36:Drivers/STM32F1xx_HAL_Driver/Inc/stm32f1xx_ll_rcc.h ****   * @{
  37:Drivers/STM32F1xx_HAL_Driver/Inc/stm32f1xx_ll_rcc.h ****   */
  38:Drivers/STM32F1xx_HAL_Driver/Inc/stm32f1xx_ll_rcc.h **** 
  39:Drivers/STM32F1xx_HAL_Driver/Inc/stm32f1xx_ll_rcc.h **** /* Private types -------------------------------------------------------------*/
  40:Drivers/STM32F1xx_HAL_Driver/Inc/stm32f1xx_ll_rcc.h **** /* Private variables ---------------------------------------------------------*/
  41:Drivers/STM32F1xx_HAL_Driver/Inc/stm32f1xx_ll_rcc.h **** /* Private constants ---------------------------------------------------------*/
  42:Drivers/STM32F1xx_HAL_Driver/Inc/stm32f1xx_ll_rcc.h **** /* Private macros ------------------------------------------------------------*/
  43:Drivers/STM32F1xx_HAL_Driver/Inc/stm32f1xx_ll_rcc.h **** #if defined(USE_FULL_LL_DRIVER)
  44:Drivers/STM32F1xx_HAL_Driver/Inc/stm32f1xx_ll_rcc.h **** /** @defgroup RCC_LL_Private_Macros RCC Private Macros
  45:Drivers/STM32F1xx_HAL_Driver/Inc/stm32f1xx_ll_rcc.h ****   * @{
  46:Drivers/STM32F1xx_HAL_Driver/Inc/stm32f1xx_ll_rcc.h ****   */
  47:Drivers/STM32F1xx_HAL_Driver/Inc/stm32f1xx_ll_rcc.h **** /**
  48:Drivers/STM32F1xx_HAL_Driver/Inc/stm32f1xx_ll_rcc.h ****   * @}
  49:Drivers/STM32F1xx_HAL_Driver/Inc/stm32f1xx_ll_rcc.h ****   */
  50:Drivers/STM32F1xx_HAL_Driver/Inc/stm32f1xx_ll_rcc.h **** #endif /*USE_FULL_LL_DRIVER*/
  51:Drivers/STM32F1xx_HAL_Driver/Inc/stm32f1xx_ll_rcc.h **** /* Exported types ------------------------------------------------------------*/
  52:Drivers/STM32F1xx_HAL_Driver/Inc/stm32f1xx_ll_rcc.h **** #if defined(USE_FULL_LL_DRIVER)
  53:Drivers/STM32F1xx_HAL_Driver/Inc/stm32f1xx_ll_rcc.h **** /** @defgroup RCC_LL_Exported_Types RCC Exported Types
  54:Drivers/STM32F1xx_HAL_Driver/Inc/stm32f1xx_ll_rcc.h ****   * @{
  55:Drivers/STM32F1xx_HAL_Driver/Inc/stm32f1xx_ll_rcc.h ****   */
  56:Drivers/STM32F1xx_HAL_Driver/Inc/stm32f1xx_ll_rcc.h **** 
  57:Drivers/STM32F1xx_HAL_Driver/Inc/stm32f1xx_ll_rcc.h **** /** @defgroup LL_ES_CLOCK_FREQ Clocks Frequency Structure
  58:Drivers/STM32F1xx_HAL_Driver/Inc/stm32f1xx_ll_rcc.h ****   * @{
  59:Drivers/STM32F1xx_HAL_Driver/Inc/stm32f1xx_ll_rcc.h ****   */
  60:Drivers/STM32F1xx_HAL_Driver/Inc/stm32f1xx_ll_rcc.h **** 
  61:Drivers/STM32F1xx_HAL_Driver/Inc/stm32f1xx_ll_rcc.h **** /**
  62:Drivers/STM32F1xx_HAL_Driver/Inc/stm32f1xx_ll_rcc.h ****   * @brief  RCC Clocks Frequency Structure
  63:Drivers/STM32F1xx_HAL_Driver/Inc/stm32f1xx_ll_rcc.h ****   */
  64:Drivers/STM32F1xx_HAL_Driver/Inc/stm32f1xx_ll_rcc.h **** typedef struct
  65:Drivers/STM32F1xx_HAL_Driver/Inc/stm32f1xx_ll_rcc.h **** {
  66:Drivers/STM32F1xx_HAL_Driver/Inc/stm32f1xx_ll_rcc.h ****   uint32_t SYSCLK_Frequency;        /*!< SYSCLK clock frequency */
  67:Drivers/STM32F1xx_HAL_Driver/Inc/stm32f1xx_ll_rcc.h ****   uint32_t HCLK_Frequency;          /*!< HCLK clock frequency */
  68:Drivers/STM32F1xx_HAL_Driver/Inc/stm32f1xx_ll_rcc.h ****   uint32_t PCLK1_Frequency;         /*!< PCLK1 clock frequency */
  69:Drivers/STM32F1xx_HAL_Driver/Inc/stm32f1xx_ll_rcc.h ****   uint32_t PCLK2_Frequency;         /*!< PCLK2 clock frequency */
  70:Drivers/STM32F1xx_HAL_Driver/Inc/stm32f1xx_ll_rcc.h **** } LL_RCC_ClocksTypeDef;
  71:Drivers/STM32F1xx_HAL_Driver/Inc/stm32f1xx_ll_rcc.h **** 
  72:Drivers/STM32F1xx_HAL_Driver/Inc/stm32f1xx_ll_rcc.h **** /**
  73:Drivers/STM32F1xx_HAL_Driver/Inc/stm32f1xx_ll_rcc.h ****   * @}
  74:Drivers/STM32F1xx_HAL_Driver/Inc/stm32f1xx_ll_rcc.h ****   */
  75:Drivers/STM32F1xx_HAL_Driver/Inc/stm32f1xx_ll_rcc.h **** 
  76:Drivers/STM32F1xx_HAL_Driver/Inc/stm32f1xx_ll_rcc.h **** /**
  77:Drivers/STM32F1xx_HAL_Driver/Inc/stm32f1xx_ll_rcc.h ****   * @}
  78:Drivers/STM32F1xx_HAL_Driver/Inc/stm32f1xx_ll_rcc.h ****   */
  79:Drivers/STM32F1xx_HAL_Driver/Inc/stm32f1xx_ll_rcc.h **** #endif /* USE_FULL_LL_DRIVER */
  80:Drivers/STM32F1xx_HAL_Driver/Inc/stm32f1xx_ll_rcc.h **** 
  81:Drivers/STM32F1xx_HAL_Driver/Inc/stm32f1xx_ll_rcc.h **** /* Exported constants --------------------------------------------------------*/
  82:Drivers/STM32F1xx_HAL_Driver/Inc/stm32f1xx_ll_rcc.h **** /** @defgroup RCC_LL_Exported_Constants RCC Exported Constants
  83:Drivers/STM32F1xx_HAL_Driver/Inc/stm32f1xx_ll_rcc.h ****   * @{
  84:Drivers/STM32F1xx_HAL_Driver/Inc/stm32f1xx_ll_rcc.h ****   */
  85:Drivers/STM32F1xx_HAL_Driver/Inc/stm32f1xx_ll_rcc.h **** 
  86:Drivers/STM32F1xx_HAL_Driver/Inc/stm32f1xx_ll_rcc.h **** /** @defgroup RCC_LL_EC_OSC_VALUES Oscillator Values adaptation
  87:Drivers/STM32F1xx_HAL_Driver/Inc/stm32f1xx_ll_rcc.h ****   * @brief    Defines used to adapt values of different oscillators
  88:Drivers/STM32F1xx_HAL_Driver/Inc/stm32f1xx_ll_rcc.h ****   * @note     These values could be modified in the user environment according to
  89:Drivers/STM32F1xx_HAL_Driver/Inc/stm32f1xx_ll_rcc.h ****   *           HW set-up.
  90:Drivers/STM32F1xx_HAL_Driver/Inc/stm32f1xx_ll_rcc.h ****   * @{
ARM GAS  /tmp/ccmpGAeh.s 			page 3


  91:Drivers/STM32F1xx_HAL_Driver/Inc/stm32f1xx_ll_rcc.h ****   */
  92:Drivers/STM32F1xx_HAL_Driver/Inc/stm32f1xx_ll_rcc.h **** #if !defined  (HSE_VALUE)
  93:Drivers/STM32F1xx_HAL_Driver/Inc/stm32f1xx_ll_rcc.h **** #define HSE_VALUE    8000000U  /*!< Value of the HSE oscillator in Hz */
  94:Drivers/STM32F1xx_HAL_Driver/Inc/stm32f1xx_ll_rcc.h **** #endif /* HSE_VALUE */
  95:Drivers/STM32F1xx_HAL_Driver/Inc/stm32f1xx_ll_rcc.h **** 
  96:Drivers/STM32F1xx_HAL_Driver/Inc/stm32f1xx_ll_rcc.h **** #if !defined  (HSI_VALUE)
  97:Drivers/STM32F1xx_HAL_Driver/Inc/stm32f1xx_ll_rcc.h **** #define HSI_VALUE    8000000U  /*!< Value of the HSI oscillator in Hz */
  98:Drivers/STM32F1xx_HAL_Driver/Inc/stm32f1xx_ll_rcc.h **** #endif /* HSI_VALUE */
  99:Drivers/STM32F1xx_HAL_Driver/Inc/stm32f1xx_ll_rcc.h **** 
 100:Drivers/STM32F1xx_HAL_Driver/Inc/stm32f1xx_ll_rcc.h **** #if !defined  (LSE_VALUE)
 101:Drivers/STM32F1xx_HAL_Driver/Inc/stm32f1xx_ll_rcc.h **** #define LSE_VALUE    32768U    /*!< Value of the LSE oscillator in Hz */
 102:Drivers/STM32F1xx_HAL_Driver/Inc/stm32f1xx_ll_rcc.h **** #endif /* LSE_VALUE */
 103:Drivers/STM32F1xx_HAL_Driver/Inc/stm32f1xx_ll_rcc.h **** 
 104:Drivers/STM32F1xx_HAL_Driver/Inc/stm32f1xx_ll_rcc.h **** #if !defined  (LSI_VALUE)
 105:Drivers/STM32F1xx_HAL_Driver/Inc/stm32f1xx_ll_rcc.h **** #define LSI_VALUE    40000U    /*!< Value of the LSI oscillator in Hz */
 106:Drivers/STM32F1xx_HAL_Driver/Inc/stm32f1xx_ll_rcc.h **** #endif /* LSI_VALUE */
 107:Drivers/STM32F1xx_HAL_Driver/Inc/stm32f1xx_ll_rcc.h **** /**
 108:Drivers/STM32F1xx_HAL_Driver/Inc/stm32f1xx_ll_rcc.h ****   * @}
 109:Drivers/STM32F1xx_HAL_Driver/Inc/stm32f1xx_ll_rcc.h ****   */
 110:Drivers/STM32F1xx_HAL_Driver/Inc/stm32f1xx_ll_rcc.h **** 
 111:Drivers/STM32F1xx_HAL_Driver/Inc/stm32f1xx_ll_rcc.h **** /** @defgroup RCC_LL_EC_CLEAR_FLAG Clear Flags Defines
 112:Drivers/STM32F1xx_HAL_Driver/Inc/stm32f1xx_ll_rcc.h ****   * @brief    Flags defines which can be used with LL_RCC_WriteReg function
 113:Drivers/STM32F1xx_HAL_Driver/Inc/stm32f1xx_ll_rcc.h ****   * @{
 114:Drivers/STM32F1xx_HAL_Driver/Inc/stm32f1xx_ll_rcc.h ****   */
 115:Drivers/STM32F1xx_HAL_Driver/Inc/stm32f1xx_ll_rcc.h **** #define LL_RCC_CIR_LSIRDYC                RCC_CIR_LSIRDYC     /*!< LSI Ready Interrupt Clear */
 116:Drivers/STM32F1xx_HAL_Driver/Inc/stm32f1xx_ll_rcc.h **** #define LL_RCC_CIR_LSERDYC                RCC_CIR_LSERDYC     /*!< LSE Ready Interrupt Clear */
 117:Drivers/STM32F1xx_HAL_Driver/Inc/stm32f1xx_ll_rcc.h **** #define LL_RCC_CIR_HSIRDYC                RCC_CIR_HSIRDYC     /*!< HSI Ready Interrupt Clear */
 118:Drivers/STM32F1xx_HAL_Driver/Inc/stm32f1xx_ll_rcc.h **** #define LL_RCC_CIR_HSERDYC                RCC_CIR_HSERDYC     /*!< HSE Ready Interrupt Clear */
 119:Drivers/STM32F1xx_HAL_Driver/Inc/stm32f1xx_ll_rcc.h **** #define LL_RCC_CIR_PLLRDYC                RCC_CIR_PLLRDYC     /*!< PLL Ready Interrupt Clear */
 120:Drivers/STM32F1xx_HAL_Driver/Inc/stm32f1xx_ll_rcc.h **** #define LL_RCC_CIR_PLL3RDYC               RCC_CIR_PLL3RDYC    /*!< PLL3(PLLI2S) Ready Interrupt Cle
 121:Drivers/STM32F1xx_HAL_Driver/Inc/stm32f1xx_ll_rcc.h **** #define LL_RCC_CIR_PLL2RDYC               RCC_CIR_PLL2RDYC    /*!< PLL2 Ready Interrupt Clear */
 122:Drivers/STM32F1xx_HAL_Driver/Inc/stm32f1xx_ll_rcc.h **** #define LL_RCC_CIR_CSSC                   RCC_CIR_CSSC        /*!< Clock Security System Interrupt 
 123:Drivers/STM32F1xx_HAL_Driver/Inc/stm32f1xx_ll_rcc.h **** /**
 124:Drivers/STM32F1xx_HAL_Driver/Inc/stm32f1xx_ll_rcc.h ****   * @}
 125:Drivers/STM32F1xx_HAL_Driver/Inc/stm32f1xx_ll_rcc.h ****   */
 126:Drivers/STM32F1xx_HAL_Driver/Inc/stm32f1xx_ll_rcc.h **** 
 127:Drivers/STM32F1xx_HAL_Driver/Inc/stm32f1xx_ll_rcc.h **** /** @defgroup RCC_LL_EC_GET_FLAG Get Flags Defines
 128:Drivers/STM32F1xx_HAL_Driver/Inc/stm32f1xx_ll_rcc.h ****   * @brief    Flags defines which can be used with LL_RCC_ReadReg function
 129:Drivers/STM32F1xx_HAL_Driver/Inc/stm32f1xx_ll_rcc.h ****   * @{
 130:Drivers/STM32F1xx_HAL_Driver/Inc/stm32f1xx_ll_rcc.h ****   */
 131:Drivers/STM32F1xx_HAL_Driver/Inc/stm32f1xx_ll_rcc.h **** #define LL_RCC_CIR_LSIRDYF                RCC_CIR_LSIRDYF     /*!< LSI Ready Interrupt flag */
 132:Drivers/STM32F1xx_HAL_Driver/Inc/stm32f1xx_ll_rcc.h **** #define LL_RCC_CIR_LSERDYF                RCC_CIR_LSERDYF     /*!< LSE Ready Interrupt flag */
 133:Drivers/STM32F1xx_HAL_Driver/Inc/stm32f1xx_ll_rcc.h **** #define LL_RCC_CIR_HSIRDYF                RCC_CIR_HSIRDYF     /*!< HSI Ready Interrupt flag */
 134:Drivers/STM32F1xx_HAL_Driver/Inc/stm32f1xx_ll_rcc.h **** #define LL_RCC_CIR_HSERDYF                RCC_CIR_HSERDYF     /*!< HSE Ready Interrupt flag */
 135:Drivers/STM32F1xx_HAL_Driver/Inc/stm32f1xx_ll_rcc.h **** #define LL_RCC_CIR_PLLRDYF                RCC_CIR_PLLRDYF     /*!< PLL Ready Interrupt flag */
 136:Drivers/STM32F1xx_HAL_Driver/Inc/stm32f1xx_ll_rcc.h **** #define LL_RCC_CIR_PLL3RDYF               RCC_CIR_PLL3RDYF    /*!< PLL3(PLLI2S) Ready Interrupt fla
 137:Drivers/STM32F1xx_HAL_Driver/Inc/stm32f1xx_ll_rcc.h **** #define LL_RCC_CIR_PLL2RDYF               RCC_CIR_PLL2RDYF    /*!< PLL2 Ready Interrupt flag */
 138:Drivers/STM32F1xx_HAL_Driver/Inc/stm32f1xx_ll_rcc.h **** #define LL_RCC_CIR_CSSF                   RCC_CIR_CSSF        /*!< Clock Security System Interrupt 
 139:Drivers/STM32F1xx_HAL_Driver/Inc/stm32f1xx_ll_rcc.h **** #define LL_RCC_CSR_PINRSTF                RCC_CSR_PINRSTF     /*!< PIN reset flag */
 140:Drivers/STM32F1xx_HAL_Driver/Inc/stm32f1xx_ll_rcc.h **** #define LL_RCC_CSR_PORRSTF                RCC_CSR_PORRSTF     /*!< POR/PDR reset flag */
 141:Drivers/STM32F1xx_HAL_Driver/Inc/stm32f1xx_ll_rcc.h **** #define LL_RCC_CSR_SFTRSTF                RCC_CSR_SFTRSTF     /*!< Software Reset flag */
 142:Drivers/STM32F1xx_HAL_Driver/Inc/stm32f1xx_ll_rcc.h **** #define LL_RCC_CSR_IWDGRSTF               RCC_CSR_IWDGRSTF    /*!< Independent Watchdog reset flag 
 143:Drivers/STM32F1xx_HAL_Driver/Inc/stm32f1xx_ll_rcc.h **** #define LL_RCC_CSR_WWDGRSTF               RCC_CSR_WWDGRSTF    /*!< Window watchdog reset flag */
 144:Drivers/STM32F1xx_HAL_Driver/Inc/stm32f1xx_ll_rcc.h **** #define LL_RCC_CSR_LPWRRSTF               RCC_CSR_LPWRRSTF    /*!< Low-Power reset flag */
 145:Drivers/STM32F1xx_HAL_Driver/Inc/stm32f1xx_ll_rcc.h **** /**
 146:Drivers/STM32F1xx_HAL_Driver/Inc/stm32f1xx_ll_rcc.h ****   * @}
 147:Drivers/STM32F1xx_HAL_Driver/Inc/stm32f1xx_ll_rcc.h ****   */
ARM GAS  /tmp/ccmpGAeh.s 			page 4


 148:Drivers/STM32F1xx_HAL_Driver/Inc/stm32f1xx_ll_rcc.h **** 
 149:Drivers/STM32F1xx_HAL_Driver/Inc/stm32f1xx_ll_rcc.h **** /** @defgroup RCC_LL_EC_IT IT Defines
 150:Drivers/STM32F1xx_HAL_Driver/Inc/stm32f1xx_ll_rcc.h ****   * @brief    IT defines which can be used with LL_RCC_ReadReg and  LL_RCC_WriteReg functions
 151:Drivers/STM32F1xx_HAL_Driver/Inc/stm32f1xx_ll_rcc.h ****   * @{
 152:Drivers/STM32F1xx_HAL_Driver/Inc/stm32f1xx_ll_rcc.h ****   */
 153:Drivers/STM32F1xx_HAL_Driver/Inc/stm32f1xx_ll_rcc.h **** #define LL_RCC_CIR_LSIRDYIE               RCC_CIR_LSIRDYIE      /*!< LSI Ready Interrupt Enable */
 154:Drivers/STM32F1xx_HAL_Driver/Inc/stm32f1xx_ll_rcc.h **** #define LL_RCC_CIR_LSERDYIE               RCC_CIR_LSERDYIE      /*!< LSE Ready Interrupt Enable */
 155:Drivers/STM32F1xx_HAL_Driver/Inc/stm32f1xx_ll_rcc.h **** #define LL_RCC_CIR_HSIRDYIE               RCC_CIR_HSIRDYIE      /*!< HSI Ready Interrupt Enable */
 156:Drivers/STM32F1xx_HAL_Driver/Inc/stm32f1xx_ll_rcc.h **** #define LL_RCC_CIR_HSERDYIE               RCC_CIR_HSERDYIE      /*!< HSE Ready Interrupt Enable */
 157:Drivers/STM32F1xx_HAL_Driver/Inc/stm32f1xx_ll_rcc.h **** #define LL_RCC_CIR_PLLRDYIE               RCC_CIR_PLLRDYIE      /*!< PLL Ready Interrupt Enable */
 158:Drivers/STM32F1xx_HAL_Driver/Inc/stm32f1xx_ll_rcc.h **** #define LL_RCC_CIR_PLL3RDYIE              RCC_CIR_PLL3RDYIE     /*!< PLL3(PLLI2S) Ready Interrupt E
 159:Drivers/STM32F1xx_HAL_Driver/Inc/stm32f1xx_ll_rcc.h **** #define LL_RCC_CIR_PLL2RDYIE              RCC_CIR_PLL2RDYIE     /*!< PLL2 Ready Interrupt Enable */
 160:Drivers/STM32F1xx_HAL_Driver/Inc/stm32f1xx_ll_rcc.h **** /**
 161:Drivers/STM32F1xx_HAL_Driver/Inc/stm32f1xx_ll_rcc.h ****   * @}
 162:Drivers/STM32F1xx_HAL_Driver/Inc/stm32f1xx_ll_rcc.h ****   */
 163:Drivers/STM32F1xx_HAL_Driver/Inc/stm32f1xx_ll_rcc.h **** 
 164:Drivers/STM32F1xx_HAL_Driver/Inc/stm32f1xx_ll_rcc.h **** #if defined(RCC_CFGR2_PREDIV2)
 165:Drivers/STM32F1xx_HAL_Driver/Inc/stm32f1xx_ll_rcc.h **** /** @defgroup RCC_LL_EC_HSE_PREDIV2_DIV HSE PREDIV2 Division factor
 166:Drivers/STM32F1xx_HAL_Driver/Inc/stm32f1xx_ll_rcc.h ****   * @{
 167:Drivers/STM32F1xx_HAL_Driver/Inc/stm32f1xx_ll_rcc.h ****   */
 168:Drivers/STM32F1xx_HAL_Driver/Inc/stm32f1xx_ll_rcc.h **** #define LL_RCC_HSE_PREDIV2_DIV_1           RCC_CFGR2_PREDIV2_DIV1   /*!< PREDIV2 input clock not di
 169:Drivers/STM32F1xx_HAL_Driver/Inc/stm32f1xx_ll_rcc.h **** #define LL_RCC_HSE_PREDIV2_DIV_2           RCC_CFGR2_PREDIV2_DIV2   /*!< PREDIV2 input clock divide
 170:Drivers/STM32F1xx_HAL_Driver/Inc/stm32f1xx_ll_rcc.h **** #define LL_RCC_HSE_PREDIV2_DIV_3           RCC_CFGR2_PREDIV2_DIV3   /*!< PREDIV2 input clock divide
 171:Drivers/STM32F1xx_HAL_Driver/Inc/stm32f1xx_ll_rcc.h **** #define LL_RCC_HSE_PREDIV2_DIV_4           RCC_CFGR2_PREDIV2_DIV4   /*!< PREDIV2 input clock divide
 172:Drivers/STM32F1xx_HAL_Driver/Inc/stm32f1xx_ll_rcc.h **** #define LL_RCC_HSE_PREDIV2_DIV_5           RCC_CFGR2_PREDIV2_DIV5   /*!< PREDIV2 input clock divide
 173:Drivers/STM32F1xx_HAL_Driver/Inc/stm32f1xx_ll_rcc.h **** #define LL_RCC_HSE_PREDIV2_DIV_6           RCC_CFGR2_PREDIV2_DIV6   /*!< PREDIV2 input clock divide
 174:Drivers/STM32F1xx_HAL_Driver/Inc/stm32f1xx_ll_rcc.h **** #define LL_RCC_HSE_PREDIV2_DIV_7           RCC_CFGR2_PREDIV2_DIV7   /*!< PREDIV2 input clock divide
 175:Drivers/STM32F1xx_HAL_Driver/Inc/stm32f1xx_ll_rcc.h **** #define LL_RCC_HSE_PREDIV2_DIV_8           RCC_CFGR2_PREDIV2_DIV8   /*!< PREDIV2 input clock divide
 176:Drivers/STM32F1xx_HAL_Driver/Inc/stm32f1xx_ll_rcc.h **** #define LL_RCC_HSE_PREDIV2_DIV_9           RCC_CFGR2_PREDIV2_DIV9   /*!< PREDIV2 input clock divide
 177:Drivers/STM32F1xx_HAL_Driver/Inc/stm32f1xx_ll_rcc.h **** #define LL_RCC_HSE_PREDIV2_DIV_10          RCC_CFGR2_PREDIV2_DIV10  /*!< PREDIV2 input clock divide
 178:Drivers/STM32F1xx_HAL_Driver/Inc/stm32f1xx_ll_rcc.h **** #define LL_RCC_HSE_PREDIV2_DIV_11          RCC_CFGR2_PREDIV2_DIV11  /*!< PREDIV2 input clock divide
 179:Drivers/STM32F1xx_HAL_Driver/Inc/stm32f1xx_ll_rcc.h **** #define LL_RCC_HSE_PREDIV2_DIV_12          RCC_CFGR2_PREDIV2_DIV12  /*!< PREDIV2 input clock divide
 180:Drivers/STM32F1xx_HAL_Driver/Inc/stm32f1xx_ll_rcc.h **** #define LL_RCC_HSE_PREDIV2_DIV_13          RCC_CFGR2_PREDIV2_DIV13  /*!< PREDIV2 input clock divide
 181:Drivers/STM32F1xx_HAL_Driver/Inc/stm32f1xx_ll_rcc.h **** #define LL_RCC_HSE_PREDIV2_DIV_14          RCC_CFGR2_PREDIV2_DIV14  /*!< PREDIV2 input clock divide
 182:Drivers/STM32F1xx_HAL_Driver/Inc/stm32f1xx_ll_rcc.h **** #define LL_RCC_HSE_PREDIV2_DIV_15          RCC_CFGR2_PREDIV2_DIV15  /*!< PREDIV2 input clock divide
 183:Drivers/STM32F1xx_HAL_Driver/Inc/stm32f1xx_ll_rcc.h **** #define LL_RCC_HSE_PREDIV2_DIV_16          RCC_CFGR2_PREDIV2_DIV16  /*!< PREDIV2 input clock divide
 184:Drivers/STM32F1xx_HAL_Driver/Inc/stm32f1xx_ll_rcc.h **** /**
 185:Drivers/STM32F1xx_HAL_Driver/Inc/stm32f1xx_ll_rcc.h ****   * @}
 186:Drivers/STM32F1xx_HAL_Driver/Inc/stm32f1xx_ll_rcc.h ****   */
 187:Drivers/STM32F1xx_HAL_Driver/Inc/stm32f1xx_ll_rcc.h **** 
 188:Drivers/STM32F1xx_HAL_Driver/Inc/stm32f1xx_ll_rcc.h **** #endif /* RCC_CFGR2_PREDIV2 */
 189:Drivers/STM32F1xx_HAL_Driver/Inc/stm32f1xx_ll_rcc.h **** 
 190:Drivers/STM32F1xx_HAL_Driver/Inc/stm32f1xx_ll_rcc.h **** /** @defgroup RCC_LL_EC_SYS_CLKSOURCE  System clock switch
 191:Drivers/STM32F1xx_HAL_Driver/Inc/stm32f1xx_ll_rcc.h ****   * @{
 192:Drivers/STM32F1xx_HAL_Driver/Inc/stm32f1xx_ll_rcc.h ****   */
 193:Drivers/STM32F1xx_HAL_Driver/Inc/stm32f1xx_ll_rcc.h **** #define LL_RCC_SYS_CLKSOURCE_HSI           RCC_CFGR_SW_HSI    /*!< HSI selection as system clock */
 194:Drivers/STM32F1xx_HAL_Driver/Inc/stm32f1xx_ll_rcc.h **** #define LL_RCC_SYS_CLKSOURCE_HSE           RCC_CFGR_SW_HSE    /*!< HSE selection as system clock */
 195:Drivers/STM32F1xx_HAL_Driver/Inc/stm32f1xx_ll_rcc.h **** #define LL_RCC_SYS_CLKSOURCE_PLL           RCC_CFGR_SW_PLL    /*!< PLL selection as system clock */
 196:Drivers/STM32F1xx_HAL_Driver/Inc/stm32f1xx_ll_rcc.h **** /**
 197:Drivers/STM32F1xx_HAL_Driver/Inc/stm32f1xx_ll_rcc.h ****   * @}
 198:Drivers/STM32F1xx_HAL_Driver/Inc/stm32f1xx_ll_rcc.h ****   */
 199:Drivers/STM32F1xx_HAL_Driver/Inc/stm32f1xx_ll_rcc.h **** 
 200:Drivers/STM32F1xx_HAL_Driver/Inc/stm32f1xx_ll_rcc.h **** /** @defgroup RCC_LL_EC_SYS_CLKSOURCE_STATUS  System clock switch status
 201:Drivers/STM32F1xx_HAL_Driver/Inc/stm32f1xx_ll_rcc.h ****   * @{
 202:Drivers/STM32F1xx_HAL_Driver/Inc/stm32f1xx_ll_rcc.h ****   */
 203:Drivers/STM32F1xx_HAL_Driver/Inc/stm32f1xx_ll_rcc.h **** #define LL_RCC_SYS_CLKSOURCE_STATUS_HSI    RCC_CFGR_SWS_HSI   /*!< HSI used as system clock */
 204:Drivers/STM32F1xx_HAL_Driver/Inc/stm32f1xx_ll_rcc.h **** #define LL_RCC_SYS_CLKSOURCE_STATUS_HSE    RCC_CFGR_SWS_HSE   /*!< HSE used as system clock */
ARM GAS  /tmp/ccmpGAeh.s 			page 5


 205:Drivers/STM32F1xx_HAL_Driver/Inc/stm32f1xx_ll_rcc.h **** #define LL_RCC_SYS_CLKSOURCE_STATUS_PLL    RCC_CFGR_SWS_PLL   /*!< PLL used as system clock */
 206:Drivers/STM32F1xx_HAL_Driver/Inc/stm32f1xx_ll_rcc.h **** /**
 207:Drivers/STM32F1xx_HAL_Driver/Inc/stm32f1xx_ll_rcc.h ****   * @}
 208:Drivers/STM32F1xx_HAL_Driver/Inc/stm32f1xx_ll_rcc.h ****   */
 209:Drivers/STM32F1xx_HAL_Driver/Inc/stm32f1xx_ll_rcc.h **** 
 210:Drivers/STM32F1xx_HAL_Driver/Inc/stm32f1xx_ll_rcc.h **** /** @defgroup RCC_LL_EC_SYSCLK_DIV  AHB prescaler
 211:Drivers/STM32F1xx_HAL_Driver/Inc/stm32f1xx_ll_rcc.h ****   * @{
 212:Drivers/STM32F1xx_HAL_Driver/Inc/stm32f1xx_ll_rcc.h ****   */
 213:Drivers/STM32F1xx_HAL_Driver/Inc/stm32f1xx_ll_rcc.h **** #define LL_RCC_SYSCLK_DIV_1                RCC_CFGR_HPRE_DIV1   /*!< SYSCLK not divided */
 214:Drivers/STM32F1xx_HAL_Driver/Inc/stm32f1xx_ll_rcc.h **** #define LL_RCC_SYSCLK_DIV_2                RCC_CFGR_HPRE_DIV2   /*!< SYSCLK divided by 2 */
 215:Drivers/STM32F1xx_HAL_Driver/Inc/stm32f1xx_ll_rcc.h **** #define LL_RCC_SYSCLK_DIV_4                RCC_CFGR_HPRE_DIV4   /*!< SYSCLK divided by 4 */
 216:Drivers/STM32F1xx_HAL_Driver/Inc/stm32f1xx_ll_rcc.h **** #define LL_RCC_SYSCLK_DIV_8                RCC_CFGR_HPRE_DIV8   /*!< SYSCLK divided by 8 */
 217:Drivers/STM32F1xx_HAL_Driver/Inc/stm32f1xx_ll_rcc.h **** #define LL_RCC_SYSCLK_DIV_16               RCC_CFGR_HPRE_DIV16  /*!< SYSCLK divided by 16 */
 218:Drivers/STM32F1xx_HAL_Driver/Inc/stm32f1xx_ll_rcc.h **** #define LL_RCC_SYSCLK_DIV_64               RCC_CFGR_HPRE_DIV64  /*!< SYSCLK divided by 64 */
 219:Drivers/STM32F1xx_HAL_Driver/Inc/stm32f1xx_ll_rcc.h **** #define LL_RCC_SYSCLK_DIV_128              RCC_CFGR_HPRE_DIV128 /*!< SYSCLK divided by 128 */
 220:Drivers/STM32F1xx_HAL_Driver/Inc/stm32f1xx_ll_rcc.h **** #define LL_RCC_SYSCLK_DIV_256              RCC_CFGR_HPRE_DIV256 /*!< SYSCLK divided by 256 */
 221:Drivers/STM32F1xx_HAL_Driver/Inc/stm32f1xx_ll_rcc.h **** #define LL_RCC_SYSCLK_DIV_512              RCC_CFGR_HPRE_DIV512 /*!< SYSCLK divided by 512 */
 222:Drivers/STM32F1xx_HAL_Driver/Inc/stm32f1xx_ll_rcc.h **** /**
 223:Drivers/STM32F1xx_HAL_Driver/Inc/stm32f1xx_ll_rcc.h ****   * @}
 224:Drivers/STM32F1xx_HAL_Driver/Inc/stm32f1xx_ll_rcc.h ****   */
 225:Drivers/STM32F1xx_HAL_Driver/Inc/stm32f1xx_ll_rcc.h **** 
 226:Drivers/STM32F1xx_HAL_Driver/Inc/stm32f1xx_ll_rcc.h **** /** @defgroup RCC_LL_EC_APB1_DIV  APB low-speed prescaler (APB1)
 227:Drivers/STM32F1xx_HAL_Driver/Inc/stm32f1xx_ll_rcc.h ****   * @{
 228:Drivers/STM32F1xx_HAL_Driver/Inc/stm32f1xx_ll_rcc.h ****   */
 229:Drivers/STM32F1xx_HAL_Driver/Inc/stm32f1xx_ll_rcc.h **** #define LL_RCC_APB1_DIV_1                  RCC_CFGR_PPRE1_DIV1  /*!< HCLK not divided */
 230:Drivers/STM32F1xx_HAL_Driver/Inc/stm32f1xx_ll_rcc.h **** #define LL_RCC_APB1_DIV_2                  RCC_CFGR_PPRE1_DIV2  /*!< HCLK divided by 2 */
 231:Drivers/STM32F1xx_HAL_Driver/Inc/stm32f1xx_ll_rcc.h **** #define LL_RCC_APB1_DIV_4                  RCC_CFGR_PPRE1_DIV4  /*!< HCLK divided by 4 */
 232:Drivers/STM32F1xx_HAL_Driver/Inc/stm32f1xx_ll_rcc.h **** #define LL_RCC_APB1_DIV_8                  RCC_CFGR_PPRE1_DIV8  /*!< HCLK divided by 8 */
 233:Drivers/STM32F1xx_HAL_Driver/Inc/stm32f1xx_ll_rcc.h **** #define LL_RCC_APB1_DIV_16                 RCC_CFGR_PPRE1_DIV16 /*!< HCLK divided by 16 */
 234:Drivers/STM32F1xx_HAL_Driver/Inc/stm32f1xx_ll_rcc.h **** /**
 235:Drivers/STM32F1xx_HAL_Driver/Inc/stm32f1xx_ll_rcc.h ****   * @}
 236:Drivers/STM32F1xx_HAL_Driver/Inc/stm32f1xx_ll_rcc.h ****   */
 237:Drivers/STM32F1xx_HAL_Driver/Inc/stm32f1xx_ll_rcc.h **** 
 238:Drivers/STM32F1xx_HAL_Driver/Inc/stm32f1xx_ll_rcc.h **** /** @defgroup RCC_LL_EC_APB2_DIV  APB high-speed prescaler (APB2)
 239:Drivers/STM32F1xx_HAL_Driver/Inc/stm32f1xx_ll_rcc.h ****   * @{
 240:Drivers/STM32F1xx_HAL_Driver/Inc/stm32f1xx_ll_rcc.h ****   */
 241:Drivers/STM32F1xx_HAL_Driver/Inc/stm32f1xx_ll_rcc.h **** #define LL_RCC_APB2_DIV_1                  RCC_CFGR_PPRE2_DIV1  /*!< HCLK not divided */
 242:Drivers/STM32F1xx_HAL_Driver/Inc/stm32f1xx_ll_rcc.h **** #define LL_RCC_APB2_DIV_2                  RCC_CFGR_PPRE2_DIV2  /*!< HCLK divided by 2 */
 243:Drivers/STM32F1xx_HAL_Driver/Inc/stm32f1xx_ll_rcc.h **** #define LL_RCC_APB2_DIV_4                  RCC_CFGR_PPRE2_DIV4  /*!< HCLK divided by 4 */
 244:Drivers/STM32F1xx_HAL_Driver/Inc/stm32f1xx_ll_rcc.h **** #define LL_RCC_APB2_DIV_8                  RCC_CFGR_PPRE2_DIV8  /*!< HCLK divided by 8 */
 245:Drivers/STM32F1xx_HAL_Driver/Inc/stm32f1xx_ll_rcc.h **** #define LL_RCC_APB2_DIV_16                 RCC_CFGR_PPRE2_DIV16 /*!< HCLK divided by 16 */
 246:Drivers/STM32F1xx_HAL_Driver/Inc/stm32f1xx_ll_rcc.h **** /**
 247:Drivers/STM32F1xx_HAL_Driver/Inc/stm32f1xx_ll_rcc.h ****   * @}
 248:Drivers/STM32F1xx_HAL_Driver/Inc/stm32f1xx_ll_rcc.h ****   */
 249:Drivers/STM32F1xx_HAL_Driver/Inc/stm32f1xx_ll_rcc.h **** 
 250:Drivers/STM32F1xx_HAL_Driver/Inc/stm32f1xx_ll_rcc.h **** /** @defgroup RCC_LL_EC_MCO1SOURCE  MCO1 SOURCE selection
 251:Drivers/STM32F1xx_HAL_Driver/Inc/stm32f1xx_ll_rcc.h ****   * @{
 252:Drivers/STM32F1xx_HAL_Driver/Inc/stm32f1xx_ll_rcc.h ****   */
 253:Drivers/STM32F1xx_HAL_Driver/Inc/stm32f1xx_ll_rcc.h **** #define LL_RCC_MCO1SOURCE_NOCLOCK          RCC_CFGR_MCO_NOCLOCK      /*!< MCO output disabled, no c
 254:Drivers/STM32F1xx_HAL_Driver/Inc/stm32f1xx_ll_rcc.h **** #define LL_RCC_MCO1SOURCE_SYSCLK           RCC_CFGR_MCO_SYSCLK       /*!< SYSCLK selection as MCO s
 255:Drivers/STM32F1xx_HAL_Driver/Inc/stm32f1xx_ll_rcc.h **** #define LL_RCC_MCO1SOURCE_HSI              RCC_CFGR_MCO_HSI          /*!< HSI selection as MCO sour
 256:Drivers/STM32F1xx_HAL_Driver/Inc/stm32f1xx_ll_rcc.h **** #define LL_RCC_MCO1SOURCE_HSE              RCC_CFGR_MCO_HSE          /*!< HSE selection as MCO sour
 257:Drivers/STM32F1xx_HAL_Driver/Inc/stm32f1xx_ll_rcc.h **** #define LL_RCC_MCO1SOURCE_PLLCLK_DIV_2     RCC_CFGR_MCO_PLLCLK_DIV2  /*!< PLL clock divided by 2*/
 258:Drivers/STM32F1xx_HAL_Driver/Inc/stm32f1xx_ll_rcc.h **** #if defined(RCC_CFGR_MCO_PLL2CLK)
 259:Drivers/STM32F1xx_HAL_Driver/Inc/stm32f1xx_ll_rcc.h **** #define LL_RCC_MCO1SOURCE_PLL2CLK          RCC_CFGR_MCO_PLL2CLK      /*!< PLL2 clock selected as MC
 260:Drivers/STM32F1xx_HAL_Driver/Inc/stm32f1xx_ll_rcc.h **** #endif /* RCC_CFGR_MCO_PLL2CLK */
 261:Drivers/STM32F1xx_HAL_Driver/Inc/stm32f1xx_ll_rcc.h **** #if defined(RCC_CFGR_MCO_PLL3CLK_DIV2)
ARM GAS  /tmp/ccmpGAeh.s 			page 6


 262:Drivers/STM32F1xx_HAL_Driver/Inc/stm32f1xx_ll_rcc.h **** #define LL_RCC_MCO1SOURCE_PLLI2SCLK_DIV2   RCC_CFGR_MCO_PLL3CLK_DIV2 /*!< PLLI2S clock divided by 2
 263:Drivers/STM32F1xx_HAL_Driver/Inc/stm32f1xx_ll_rcc.h **** #endif /* RCC_CFGR_MCO_PLL3CLK_DIV2 */
 264:Drivers/STM32F1xx_HAL_Driver/Inc/stm32f1xx_ll_rcc.h **** #if defined(RCC_CFGR_MCO_EXT_HSE)
 265:Drivers/STM32F1xx_HAL_Driver/Inc/stm32f1xx_ll_rcc.h **** #define LL_RCC_MCO1SOURCE_EXT_HSE          RCC_CFGR_MCO_EXT_HSE      /*!< XT1 external 3-25 MHz osc
 266:Drivers/STM32F1xx_HAL_Driver/Inc/stm32f1xx_ll_rcc.h **** #endif /* RCC_CFGR_MCO_EXT_HSE */
 267:Drivers/STM32F1xx_HAL_Driver/Inc/stm32f1xx_ll_rcc.h **** #if defined(RCC_CFGR_MCO_PLL3CLK)
 268:Drivers/STM32F1xx_HAL_Driver/Inc/stm32f1xx_ll_rcc.h **** #define LL_RCC_MCO1SOURCE_PLLI2SCLK        RCC_CFGR_MCO_PLL3CLK      /*!< PLLI2S clock selected as 
 269:Drivers/STM32F1xx_HAL_Driver/Inc/stm32f1xx_ll_rcc.h **** #endif /* RCC_CFGR_MCO_PLL3CLK */
 270:Drivers/STM32F1xx_HAL_Driver/Inc/stm32f1xx_ll_rcc.h **** /**
 271:Drivers/STM32F1xx_HAL_Driver/Inc/stm32f1xx_ll_rcc.h ****   * @}
 272:Drivers/STM32F1xx_HAL_Driver/Inc/stm32f1xx_ll_rcc.h ****   */
 273:Drivers/STM32F1xx_HAL_Driver/Inc/stm32f1xx_ll_rcc.h **** 
 274:Drivers/STM32F1xx_HAL_Driver/Inc/stm32f1xx_ll_rcc.h **** #if defined(USE_FULL_LL_DRIVER)
 275:Drivers/STM32F1xx_HAL_Driver/Inc/stm32f1xx_ll_rcc.h **** /** @defgroup RCC_LL_EC_PERIPH_FREQUENCY Peripheral clock frequency
 276:Drivers/STM32F1xx_HAL_Driver/Inc/stm32f1xx_ll_rcc.h ****   * @{
 277:Drivers/STM32F1xx_HAL_Driver/Inc/stm32f1xx_ll_rcc.h ****   */
 278:Drivers/STM32F1xx_HAL_Driver/Inc/stm32f1xx_ll_rcc.h **** #define LL_RCC_PERIPH_FREQUENCY_NO         0x00000000U      /*!< No clock enabled for the periphera
 279:Drivers/STM32F1xx_HAL_Driver/Inc/stm32f1xx_ll_rcc.h **** #define LL_RCC_PERIPH_FREQUENCY_NA         0xFFFFFFFFU      /*!< Frequency cannot be provided as ex
 280:Drivers/STM32F1xx_HAL_Driver/Inc/stm32f1xx_ll_rcc.h **** /**
 281:Drivers/STM32F1xx_HAL_Driver/Inc/stm32f1xx_ll_rcc.h ****   * @}
 282:Drivers/STM32F1xx_HAL_Driver/Inc/stm32f1xx_ll_rcc.h ****   */
 283:Drivers/STM32F1xx_HAL_Driver/Inc/stm32f1xx_ll_rcc.h **** #endif /* USE_FULL_LL_DRIVER */
 284:Drivers/STM32F1xx_HAL_Driver/Inc/stm32f1xx_ll_rcc.h **** 
 285:Drivers/STM32F1xx_HAL_Driver/Inc/stm32f1xx_ll_rcc.h **** #if defined(RCC_CFGR2_I2S2SRC)
 286:Drivers/STM32F1xx_HAL_Driver/Inc/stm32f1xx_ll_rcc.h **** /** @defgroup RCC_LL_EC_I2S2CLKSOURCE Peripheral I2S clock source selection
 287:Drivers/STM32F1xx_HAL_Driver/Inc/stm32f1xx_ll_rcc.h ****   * @{
 288:Drivers/STM32F1xx_HAL_Driver/Inc/stm32f1xx_ll_rcc.h ****   */
 289:Drivers/STM32F1xx_HAL_Driver/Inc/stm32f1xx_ll_rcc.h **** #define LL_RCC_I2S2_CLKSOURCE_SYSCLK        RCC_CFGR2_I2S2SRC                                      
 290:Drivers/STM32F1xx_HAL_Driver/Inc/stm32f1xx_ll_rcc.h **** #define LL_RCC_I2S2_CLKSOURCE_PLLI2S_VCO    (uint32_t)(RCC_CFGR2_I2S2SRC | (RCC_CFGR2_I2S2SRC >> 16
 291:Drivers/STM32F1xx_HAL_Driver/Inc/stm32f1xx_ll_rcc.h **** #define LL_RCC_I2S3_CLKSOURCE_SYSCLK        RCC_CFGR2_I2S3SRC                                      
 292:Drivers/STM32F1xx_HAL_Driver/Inc/stm32f1xx_ll_rcc.h **** #define LL_RCC_I2S3_CLKSOURCE_PLLI2S_VCO    (uint32_t)(RCC_CFGR2_I2S3SRC | (RCC_CFGR2_I2S3SRC >> 16
 293:Drivers/STM32F1xx_HAL_Driver/Inc/stm32f1xx_ll_rcc.h **** /**
 294:Drivers/STM32F1xx_HAL_Driver/Inc/stm32f1xx_ll_rcc.h ****   * @}
 295:Drivers/STM32F1xx_HAL_Driver/Inc/stm32f1xx_ll_rcc.h ****   */
 296:Drivers/STM32F1xx_HAL_Driver/Inc/stm32f1xx_ll_rcc.h **** #endif /* RCC_CFGR2_I2S2SRC */
 297:Drivers/STM32F1xx_HAL_Driver/Inc/stm32f1xx_ll_rcc.h **** 
 298:Drivers/STM32F1xx_HAL_Driver/Inc/stm32f1xx_ll_rcc.h **** #if defined(USB_OTG_FS) || defined(USB)
 299:Drivers/STM32F1xx_HAL_Driver/Inc/stm32f1xx_ll_rcc.h **** /** @defgroup RCC_LL_EC_USB_CLKSOURCE Peripheral USB clock source selection
 300:Drivers/STM32F1xx_HAL_Driver/Inc/stm32f1xx_ll_rcc.h ****   * @{
 301:Drivers/STM32F1xx_HAL_Driver/Inc/stm32f1xx_ll_rcc.h ****   */
 302:Drivers/STM32F1xx_HAL_Driver/Inc/stm32f1xx_ll_rcc.h **** #if defined(RCC_CFGR_USBPRE)
 303:Drivers/STM32F1xx_HAL_Driver/Inc/stm32f1xx_ll_rcc.h **** #define LL_RCC_USB_CLKSOURCE_PLL             RCC_CFGR_USBPRE        /*!< PLL clock is not divided *
 304:Drivers/STM32F1xx_HAL_Driver/Inc/stm32f1xx_ll_rcc.h **** #define LL_RCC_USB_CLKSOURCE_PLL_DIV_1_5     0x00000000U            /*!< PLL clock is divided by 1.
 305:Drivers/STM32F1xx_HAL_Driver/Inc/stm32f1xx_ll_rcc.h **** #endif /*RCC_CFGR_USBPRE*/
 306:Drivers/STM32F1xx_HAL_Driver/Inc/stm32f1xx_ll_rcc.h **** #if defined(RCC_CFGR_OTGFSPRE)
 307:Drivers/STM32F1xx_HAL_Driver/Inc/stm32f1xx_ll_rcc.h **** #define LL_RCC_USB_CLKSOURCE_PLL_DIV_2       RCC_CFGR_OTGFSPRE      /*!< PLL clock is divided by 2 
 308:Drivers/STM32F1xx_HAL_Driver/Inc/stm32f1xx_ll_rcc.h **** #define LL_RCC_USB_CLKSOURCE_PLL_DIV_3       0x00000000U            /*!< PLL clock is divided by 3 
 309:Drivers/STM32F1xx_HAL_Driver/Inc/stm32f1xx_ll_rcc.h **** #endif /*RCC_CFGR_OTGFSPRE*/
 310:Drivers/STM32F1xx_HAL_Driver/Inc/stm32f1xx_ll_rcc.h **** /**
 311:Drivers/STM32F1xx_HAL_Driver/Inc/stm32f1xx_ll_rcc.h ****   * @}
 312:Drivers/STM32F1xx_HAL_Driver/Inc/stm32f1xx_ll_rcc.h ****   */
 313:Drivers/STM32F1xx_HAL_Driver/Inc/stm32f1xx_ll_rcc.h **** #endif /* USB_OTG_FS || USB */
 314:Drivers/STM32F1xx_HAL_Driver/Inc/stm32f1xx_ll_rcc.h **** 
 315:Drivers/STM32F1xx_HAL_Driver/Inc/stm32f1xx_ll_rcc.h **** /** @defgroup RCC_LL_EC_ADC_CLKSOURCE_PCLK2 Peripheral ADC clock source selection
 316:Drivers/STM32F1xx_HAL_Driver/Inc/stm32f1xx_ll_rcc.h ****   * @{
 317:Drivers/STM32F1xx_HAL_Driver/Inc/stm32f1xx_ll_rcc.h ****   */
 318:Drivers/STM32F1xx_HAL_Driver/Inc/stm32f1xx_ll_rcc.h **** #define LL_RCC_ADC_CLKSRC_PCLK2_DIV_2    RCC_CFGR_ADCPRE_DIV2 /*ADC prescaler PCLK2 divided by 2*/
ARM GAS  /tmp/ccmpGAeh.s 			page 7


 319:Drivers/STM32F1xx_HAL_Driver/Inc/stm32f1xx_ll_rcc.h **** #define LL_RCC_ADC_CLKSRC_PCLK2_DIV_4    RCC_CFGR_ADCPRE_DIV4 /*ADC prescaler PCLK2 divided by 4*/
 320:Drivers/STM32F1xx_HAL_Driver/Inc/stm32f1xx_ll_rcc.h **** #define LL_RCC_ADC_CLKSRC_PCLK2_DIV_6    RCC_CFGR_ADCPRE_DIV6 /*ADC prescaler PCLK2 divided by 6*/
 321:Drivers/STM32F1xx_HAL_Driver/Inc/stm32f1xx_ll_rcc.h **** #define LL_RCC_ADC_CLKSRC_PCLK2_DIV_8    RCC_CFGR_ADCPRE_DIV8 /*ADC prescaler PCLK2 divided by 8*/
 322:Drivers/STM32F1xx_HAL_Driver/Inc/stm32f1xx_ll_rcc.h **** /**
 323:Drivers/STM32F1xx_HAL_Driver/Inc/stm32f1xx_ll_rcc.h ****   * @}
 324:Drivers/STM32F1xx_HAL_Driver/Inc/stm32f1xx_ll_rcc.h ****   */
 325:Drivers/STM32F1xx_HAL_Driver/Inc/stm32f1xx_ll_rcc.h **** 
 326:Drivers/STM32F1xx_HAL_Driver/Inc/stm32f1xx_ll_rcc.h **** #if defined(RCC_CFGR2_I2S2SRC)
 327:Drivers/STM32F1xx_HAL_Driver/Inc/stm32f1xx_ll_rcc.h **** /** @defgroup RCC_LL_EC_I2S2 Peripheral I2S get clock source
 328:Drivers/STM32F1xx_HAL_Driver/Inc/stm32f1xx_ll_rcc.h ****   * @{
 329:Drivers/STM32F1xx_HAL_Driver/Inc/stm32f1xx_ll_rcc.h ****   */
 330:Drivers/STM32F1xx_HAL_Driver/Inc/stm32f1xx_ll_rcc.h **** #define LL_RCC_I2S2_CLKSOURCE              RCC_CFGR2_I2S2SRC       /*!< I2S2 Clock source selection
 331:Drivers/STM32F1xx_HAL_Driver/Inc/stm32f1xx_ll_rcc.h **** #define LL_RCC_I2S3_CLKSOURCE              RCC_CFGR2_I2S3SRC       /*!< I2S3 Clock source selection
 332:Drivers/STM32F1xx_HAL_Driver/Inc/stm32f1xx_ll_rcc.h **** /**
 333:Drivers/STM32F1xx_HAL_Driver/Inc/stm32f1xx_ll_rcc.h ****   * @}
 334:Drivers/STM32F1xx_HAL_Driver/Inc/stm32f1xx_ll_rcc.h ****   */
 335:Drivers/STM32F1xx_HAL_Driver/Inc/stm32f1xx_ll_rcc.h **** 
 336:Drivers/STM32F1xx_HAL_Driver/Inc/stm32f1xx_ll_rcc.h **** #endif /* RCC_CFGR2_I2S2SRC */
 337:Drivers/STM32F1xx_HAL_Driver/Inc/stm32f1xx_ll_rcc.h **** 
 338:Drivers/STM32F1xx_HAL_Driver/Inc/stm32f1xx_ll_rcc.h **** #if defined(USB_OTG_FS) || defined(USB)
 339:Drivers/STM32F1xx_HAL_Driver/Inc/stm32f1xx_ll_rcc.h **** /** @defgroup RCC_LL_EC_USB Peripheral USB get clock source
 340:Drivers/STM32F1xx_HAL_Driver/Inc/stm32f1xx_ll_rcc.h ****   * @{
 341:Drivers/STM32F1xx_HAL_Driver/Inc/stm32f1xx_ll_rcc.h ****   */
 342:Drivers/STM32F1xx_HAL_Driver/Inc/stm32f1xx_ll_rcc.h **** #define LL_RCC_USB_CLKSOURCE               0x00400000U     /*!< USB Clock source selection */
 343:Drivers/STM32F1xx_HAL_Driver/Inc/stm32f1xx_ll_rcc.h **** /**
 344:Drivers/STM32F1xx_HAL_Driver/Inc/stm32f1xx_ll_rcc.h ****   * @}
 345:Drivers/STM32F1xx_HAL_Driver/Inc/stm32f1xx_ll_rcc.h ****   */
 346:Drivers/STM32F1xx_HAL_Driver/Inc/stm32f1xx_ll_rcc.h **** 
 347:Drivers/STM32F1xx_HAL_Driver/Inc/stm32f1xx_ll_rcc.h **** #endif /* USB_OTG_FS || USB */
 348:Drivers/STM32F1xx_HAL_Driver/Inc/stm32f1xx_ll_rcc.h **** 
 349:Drivers/STM32F1xx_HAL_Driver/Inc/stm32f1xx_ll_rcc.h **** /** @defgroup RCC_LL_EC_ADC Peripheral ADC get clock source
 350:Drivers/STM32F1xx_HAL_Driver/Inc/stm32f1xx_ll_rcc.h ****   * @{
 351:Drivers/STM32F1xx_HAL_Driver/Inc/stm32f1xx_ll_rcc.h ****   */
 352:Drivers/STM32F1xx_HAL_Driver/Inc/stm32f1xx_ll_rcc.h **** #define LL_RCC_ADC_CLKSOURCE               RCC_CFGR_ADCPRE /*!< ADC Clock source selection */
 353:Drivers/STM32F1xx_HAL_Driver/Inc/stm32f1xx_ll_rcc.h **** /**
 354:Drivers/STM32F1xx_HAL_Driver/Inc/stm32f1xx_ll_rcc.h ****   * @}
 355:Drivers/STM32F1xx_HAL_Driver/Inc/stm32f1xx_ll_rcc.h ****   */
 356:Drivers/STM32F1xx_HAL_Driver/Inc/stm32f1xx_ll_rcc.h **** 
 357:Drivers/STM32F1xx_HAL_Driver/Inc/stm32f1xx_ll_rcc.h **** /** @defgroup RCC_LL_EC_RTC_CLKSOURCE  RTC clock source selection
 358:Drivers/STM32F1xx_HAL_Driver/Inc/stm32f1xx_ll_rcc.h ****   * @{
 359:Drivers/STM32F1xx_HAL_Driver/Inc/stm32f1xx_ll_rcc.h ****   */
 360:Drivers/STM32F1xx_HAL_Driver/Inc/stm32f1xx_ll_rcc.h **** #define LL_RCC_RTC_CLKSOURCE_NONE          0x00000000U             /*!< No clock used as RTC clock 
 361:Drivers/STM32F1xx_HAL_Driver/Inc/stm32f1xx_ll_rcc.h **** #define LL_RCC_RTC_CLKSOURCE_LSE           RCC_BDCR_RTCSEL_0       /*!< LSE oscillator clock used a
 362:Drivers/STM32F1xx_HAL_Driver/Inc/stm32f1xx_ll_rcc.h **** #define LL_RCC_RTC_CLKSOURCE_LSI           RCC_BDCR_RTCSEL_1       /*!< LSI oscillator clock used a
 363:Drivers/STM32F1xx_HAL_Driver/Inc/stm32f1xx_ll_rcc.h **** #define LL_RCC_RTC_CLKSOURCE_HSE_DIV128    RCC_BDCR_RTCSEL         /*!< HSE oscillator clock divide
 364:Drivers/STM32F1xx_HAL_Driver/Inc/stm32f1xx_ll_rcc.h **** /**
 365:Drivers/STM32F1xx_HAL_Driver/Inc/stm32f1xx_ll_rcc.h ****   * @}
 366:Drivers/STM32F1xx_HAL_Driver/Inc/stm32f1xx_ll_rcc.h ****   */
 367:Drivers/STM32F1xx_HAL_Driver/Inc/stm32f1xx_ll_rcc.h **** 
 368:Drivers/STM32F1xx_HAL_Driver/Inc/stm32f1xx_ll_rcc.h **** /** @defgroup RCC_LL_EC_PLL_MUL PLL Multiplicator factor
 369:Drivers/STM32F1xx_HAL_Driver/Inc/stm32f1xx_ll_rcc.h ****   * @{
 370:Drivers/STM32F1xx_HAL_Driver/Inc/stm32f1xx_ll_rcc.h ****   */
 371:Drivers/STM32F1xx_HAL_Driver/Inc/stm32f1xx_ll_rcc.h **** #if defined(RCC_CFGR_PLLMULL2)
 372:Drivers/STM32F1xx_HAL_Driver/Inc/stm32f1xx_ll_rcc.h **** #define LL_RCC_PLL_MUL_2                   RCC_CFGR_PLLMULL2  /*!< PLL input clock*2 */
 373:Drivers/STM32F1xx_HAL_Driver/Inc/stm32f1xx_ll_rcc.h **** #endif /*RCC_CFGR_PLLMULL2*/
 374:Drivers/STM32F1xx_HAL_Driver/Inc/stm32f1xx_ll_rcc.h **** #if defined(RCC_CFGR_PLLMULL3)
 375:Drivers/STM32F1xx_HAL_Driver/Inc/stm32f1xx_ll_rcc.h **** #define LL_RCC_PLL_MUL_3                   RCC_CFGR_PLLMULL3  /*!< PLL input clock*3 */
ARM GAS  /tmp/ccmpGAeh.s 			page 8


 376:Drivers/STM32F1xx_HAL_Driver/Inc/stm32f1xx_ll_rcc.h **** #endif /*RCC_CFGR_PLLMULL3*/
 377:Drivers/STM32F1xx_HAL_Driver/Inc/stm32f1xx_ll_rcc.h **** #define LL_RCC_PLL_MUL_4                   RCC_CFGR_PLLMULL4  /*!< PLL input clock*4 */
 378:Drivers/STM32F1xx_HAL_Driver/Inc/stm32f1xx_ll_rcc.h **** #define LL_RCC_PLL_MUL_5                   RCC_CFGR_PLLMULL5  /*!< PLL input clock*5 */
 379:Drivers/STM32F1xx_HAL_Driver/Inc/stm32f1xx_ll_rcc.h **** #define LL_RCC_PLL_MUL_6                   RCC_CFGR_PLLMULL6  /*!< PLL input clock*6 */
 380:Drivers/STM32F1xx_HAL_Driver/Inc/stm32f1xx_ll_rcc.h **** #define LL_RCC_PLL_MUL_7                   RCC_CFGR_PLLMULL7  /*!< PLL input clock*7 */
 381:Drivers/STM32F1xx_HAL_Driver/Inc/stm32f1xx_ll_rcc.h **** #define LL_RCC_PLL_MUL_8                   RCC_CFGR_PLLMULL8  /*!< PLL input clock*8 */
 382:Drivers/STM32F1xx_HAL_Driver/Inc/stm32f1xx_ll_rcc.h **** #define LL_RCC_PLL_MUL_9                   RCC_CFGR_PLLMULL9  /*!< PLL input clock*9 */
 383:Drivers/STM32F1xx_HAL_Driver/Inc/stm32f1xx_ll_rcc.h **** #if defined(RCC_CFGR_PLLMULL6_5)
 384:Drivers/STM32F1xx_HAL_Driver/Inc/stm32f1xx_ll_rcc.h **** #define LL_RCC_PLL_MUL_6_5                 RCC_CFGR_PLLMULL6_5 /*!< PLL input clock*6 */
 385:Drivers/STM32F1xx_HAL_Driver/Inc/stm32f1xx_ll_rcc.h **** #else
 386:Drivers/STM32F1xx_HAL_Driver/Inc/stm32f1xx_ll_rcc.h **** #define LL_RCC_PLL_MUL_10                  RCC_CFGR_PLLMULL10  /*!< PLL input clock*10 */
 387:Drivers/STM32F1xx_HAL_Driver/Inc/stm32f1xx_ll_rcc.h **** #define LL_RCC_PLL_MUL_11                  RCC_CFGR_PLLMULL11  /*!< PLL input clock*11 */
 388:Drivers/STM32F1xx_HAL_Driver/Inc/stm32f1xx_ll_rcc.h **** #define LL_RCC_PLL_MUL_12                  RCC_CFGR_PLLMULL12  /*!< PLL input clock*12 */
 389:Drivers/STM32F1xx_HAL_Driver/Inc/stm32f1xx_ll_rcc.h **** #define LL_RCC_PLL_MUL_13                  RCC_CFGR_PLLMULL13  /*!< PLL input clock*13 */
 390:Drivers/STM32F1xx_HAL_Driver/Inc/stm32f1xx_ll_rcc.h **** #define LL_RCC_PLL_MUL_14                  RCC_CFGR_PLLMULL14  /*!< PLL input clock*14 */
 391:Drivers/STM32F1xx_HAL_Driver/Inc/stm32f1xx_ll_rcc.h **** #define LL_RCC_PLL_MUL_15                  RCC_CFGR_PLLMULL15  /*!< PLL input clock*15 */
 392:Drivers/STM32F1xx_HAL_Driver/Inc/stm32f1xx_ll_rcc.h **** #define LL_RCC_PLL_MUL_16                  RCC_CFGR_PLLMULL16  /*!< PLL input clock*16 */
 393:Drivers/STM32F1xx_HAL_Driver/Inc/stm32f1xx_ll_rcc.h **** #endif /*RCC_CFGR_PLLMULL6_5*/
 394:Drivers/STM32F1xx_HAL_Driver/Inc/stm32f1xx_ll_rcc.h **** /**
 395:Drivers/STM32F1xx_HAL_Driver/Inc/stm32f1xx_ll_rcc.h ****   * @}
 396:Drivers/STM32F1xx_HAL_Driver/Inc/stm32f1xx_ll_rcc.h ****   */
 397:Drivers/STM32F1xx_HAL_Driver/Inc/stm32f1xx_ll_rcc.h **** 
 398:Drivers/STM32F1xx_HAL_Driver/Inc/stm32f1xx_ll_rcc.h **** /** @defgroup RCC_LL_EC_PLLSOURCE PLL SOURCE
 399:Drivers/STM32F1xx_HAL_Driver/Inc/stm32f1xx_ll_rcc.h ****   * @{
 400:Drivers/STM32F1xx_HAL_Driver/Inc/stm32f1xx_ll_rcc.h ****   */
 401:Drivers/STM32F1xx_HAL_Driver/Inc/stm32f1xx_ll_rcc.h **** #define LL_RCC_PLLSOURCE_HSI_DIV_2         0x00000000U                                    /*!< HSI 
 402:Drivers/STM32F1xx_HAL_Driver/Inc/stm32f1xx_ll_rcc.h **** #define LL_RCC_PLLSOURCE_HSE               RCC_CFGR_PLLSRC                                /*!< HSE/
 403:Drivers/STM32F1xx_HAL_Driver/Inc/stm32f1xx_ll_rcc.h **** #if defined(RCC_CFGR2_PREDIV1SRC)
 404:Drivers/STM32F1xx_HAL_Driver/Inc/stm32f1xx_ll_rcc.h **** #define LL_RCC_PLLSOURCE_PLL2              (RCC_CFGR_PLLSRC | RCC_CFGR2_PREDIV1SRC << 4U) /*!< PLL2
 405:Drivers/STM32F1xx_HAL_Driver/Inc/stm32f1xx_ll_rcc.h **** #endif /*RCC_CFGR2_PREDIV1SRC*/
 406:Drivers/STM32F1xx_HAL_Driver/Inc/stm32f1xx_ll_rcc.h **** 
 407:Drivers/STM32F1xx_HAL_Driver/Inc/stm32f1xx_ll_rcc.h **** #if defined(RCC_CFGR2_PREDIV1)
 408:Drivers/STM32F1xx_HAL_Driver/Inc/stm32f1xx_ll_rcc.h **** #define LL_RCC_PLLSOURCE_HSE_DIV_1         (RCC_CFGR_PLLSRC | RCC_CFGR2_PREDIV1_DIV1)    /*!< HSE/1
 409:Drivers/STM32F1xx_HAL_Driver/Inc/stm32f1xx_ll_rcc.h **** #define LL_RCC_PLLSOURCE_HSE_DIV_2         (RCC_CFGR_PLLSRC | RCC_CFGR2_PREDIV1_DIV2)    /*!< HSE/2
 410:Drivers/STM32F1xx_HAL_Driver/Inc/stm32f1xx_ll_rcc.h **** #define LL_RCC_PLLSOURCE_HSE_DIV_3         (RCC_CFGR_PLLSRC | RCC_CFGR2_PREDIV1_DIV3)    /*!< HSE/3
 411:Drivers/STM32F1xx_HAL_Driver/Inc/stm32f1xx_ll_rcc.h **** #define LL_RCC_PLLSOURCE_HSE_DIV_4         (RCC_CFGR_PLLSRC | RCC_CFGR2_PREDIV1_DIV4)    /*!< HSE/4
 412:Drivers/STM32F1xx_HAL_Driver/Inc/stm32f1xx_ll_rcc.h **** #define LL_RCC_PLLSOURCE_HSE_DIV_5         (RCC_CFGR_PLLSRC | RCC_CFGR2_PREDIV1_DIV5)    /*!< HSE/5
 413:Drivers/STM32F1xx_HAL_Driver/Inc/stm32f1xx_ll_rcc.h **** #define LL_RCC_PLLSOURCE_HSE_DIV_6         (RCC_CFGR_PLLSRC | RCC_CFGR2_PREDIV1_DIV6)    /*!< HSE/6
 414:Drivers/STM32F1xx_HAL_Driver/Inc/stm32f1xx_ll_rcc.h **** #define LL_RCC_PLLSOURCE_HSE_DIV_7         (RCC_CFGR_PLLSRC | RCC_CFGR2_PREDIV1_DIV7)    /*!< HSE/7
 415:Drivers/STM32F1xx_HAL_Driver/Inc/stm32f1xx_ll_rcc.h **** #define LL_RCC_PLLSOURCE_HSE_DIV_8         (RCC_CFGR_PLLSRC | RCC_CFGR2_PREDIV1_DIV8)    /*!< HSE/8
 416:Drivers/STM32F1xx_HAL_Driver/Inc/stm32f1xx_ll_rcc.h **** #define LL_RCC_PLLSOURCE_HSE_DIV_9         (RCC_CFGR_PLLSRC | RCC_CFGR2_PREDIV1_DIV9)    /*!< HSE/9
 417:Drivers/STM32F1xx_HAL_Driver/Inc/stm32f1xx_ll_rcc.h **** #define LL_RCC_PLLSOURCE_HSE_DIV_10        (RCC_CFGR_PLLSRC | RCC_CFGR2_PREDIV1_DIV10)   /*!< HSE/1
 418:Drivers/STM32F1xx_HAL_Driver/Inc/stm32f1xx_ll_rcc.h **** #define LL_RCC_PLLSOURCE_HSE_DIV_11        (RCC_CFGR_PLLSRC | RCC_CFGR2_PREDIV1_DIV11)   /*!< HSE/1
 419:Drivers/STM32F1xx_HAL_Driver/Inc/stm32f1xx_ll_rcc.h **** #define LL_RCC_PLLSOURCE_HSE_DIV_12        (RCC_CFGR_PLLSRC | RCC_CFGR2_PREDIV1_DIV12)   /*!< HSE/1
 420:Drivers/STM32F1xx_HAL_Driver/Inc/stm32f1xx_ll_rcc.h **** #define LL_RCC_PLLSOURCE_HSE_DIV_13        (RCC_CFGR_PLLSRC | RCC_CFGR2_PREDIV1_DIV13)   /*!< HSE/1
 421:Drivers/STM32F1xx_HAL_Driver/Inc/stm32f1xx_ll_rcc.h **** #define LL_RCC_PLLSOURCE_HSE_DIV_14        (RCC_CFGR_PLLSRC | RCC_CFGR2_PREDIV1_DIV14)   /*!< HSE/1
 422:Drivers/STM32F1xx_HAL_Driver/Inc/stm32f1xx_ll_rcc.h **** #define LL_RCC_PLLSOURCE_HSE_DIV_15        (RCC_CFGR_PLLSRC | RCC_CFGR2_PREDIV1_DIV15)   /*!< HSE/1
 423:Drivers/STM32F1xx_HAL_Driver/Inc/stm32f1xx_ll_rcc.h **** #define LL_RCC_PLLSOURCE_HSE_DIV_16        (RCC_CFGR_PLLSRC | RCC_CFGR2_PREDIV1_DIV16)   /*!< HSE/1
 424:Drivers/STM32F1xx_HAL_Driver/Inc/stm32f1xx_ll_rcc.h **** #if defined(RCC_CFGR2_PREDIV1SRC)
 425:Drivers/STM32F1xx_HAL_Driver/Inc/stm32f1xx_ll_rcc.h **** #define LL_RCC_PLLSOURCE_PLL2_DIV_1        (RCC_CFGR_PLLSRC | RCC_CFGR2_PREDIV1_DIV1 | RCC_CFGR2_PR
 426:Drivers/STM32F1xx_HAL_Driver/Inc/stm32f1xx_ll_rcc.h **** #define LL_RCC_PLLSOURCE_PLL2_DIV_2        (RCC_CFGR_PLLSRC | RCC_CFGR2_PREDIV1_DIV2 | RCC_CFGR2_PR
 427:Drivers/STM32F1xx_HAL_Driver/Inc/stm32f1xx_ll_rcc.h **** #define LL_RCC_PLLSOURCE_PLL2_DIV_3        (RCC_CFGR_PLLSRC | RCC_CFGR2_PREDIV1_DIV3 | RCC_CFGR2_PR
 428:Drivers/STM32F1xx_HAL_Driver/Inc/stm32f1xx_ll_rcc.h **** #define LL_RCC_PLLSOURCE_PLL2_DIV_4        (RCC_CFGR_PLLSRC | RCC_CFGR2_PREDIV1_DIV4 | RCC_CFGR2_PR
 429:Drivers/STM32F1xx_HAL_Driver/Inc/stm32f1xx_ll_rcc.h **** #define LL_RCC_PLLSOURCE_PLL2_DIV_5        (RCC_CFGR_PLLSRC | RCC_CFGR2_PREDIV1_DIV5 | RCC_CFGR2_PR
 430:Drivers/STM32F1xx_HAL_Driver/Inc/stm32f1xx_ll_rcc.h **** #define LL_RCC_PLLSOURCE_PLL2_DIV_6        (RCC_CFGR_PLLSRC | RCC_CFGR2_PREDIV1_DIV6 | RCC_CFGR2_PR
 431:Drivers/STM32F1xx_HAL_Driver/Inc/stm32f1xx_ll_rcc.h **** #define LL_RCC_PLLSOURCE_PLL2_DIV_7        (RCC_CFGR_PLLSRC | RCC_CFGR2_PREDIV1_DIV7 | RCC_CFGR2_PR
 432:Drivers/STM32F1xx_HAL_Driver/Inc/stm32f1xx_ll_rcc.h **** #define LL_RCC_PLLSOURCE_PLL2_DIV_8        (RCC_CFGR_PLLSRC | RCC_CFGR2_PREDIV1_DIV8 | RCC_CFGR2_PR
ARM GAS  /tmp/ccmpGAeh.s 			page 9


 433:Drivers/STM32F1xx_HAL_Driver/Inc/stm32f1xx_ll_rcc.h **** #define LL_RCC_PLLSOURCE_PLL2_DIV_9        (RCC_CFGR_PLLSRC | RCC_CFGR2_PREDIV1_DIV9 | RCC_CFGR2_PR
 434:Drivers/STM32F1xx_HAL_Driver/Inc/stm32f1xx_ll_rcc.h **** #define LL_RCC_PLLSOURCE_PLL2_DIV_10       (RCC_CFGR_PLLSRC | RCC_CFGR2_PREDIV1_DIV10 | RCC_CFGR2_P
 435:Drivers/STM32F1xx_HAL_Driver/Inc/stm32f1xx_ll_rcc.h **** #define LL_RCC_PLLSOURCE_PLL2_DIV_11       (RCC_CFGR_PLLSRC | RCC_CFGR2_PREDIV1_DIV11 | RCC_CFGR2_P
 436:Drivers/STM32F1xx_HAL_Driver/Inc/stm32f1xx_ll_rcc.h **** #define LL_RCC_PLLSOURCE_PLL2_DIV_12       (RCC_CFGR_PLLSRC | RCC_CFGR2_PREDIV1_DIV12 | RCC_CFGR2_P
 437:Drivers/STM32F1xx_HAL_Driver/Inc/stm32f1xx_ll_rcc.h **** #define LL_RCC_PLLSOURCE_PLL2_DIV_13       (RCC_CFGR_PLLSRC | RCC_CFGR2_PREDIV1_DIV13 | RCC_CFGR2_P
 438:Drivers/STM32F1xx_HAL_Driver/Inc/stm32f1xx_ll_rcc.h **** #define LL_RCC_PLLSOURCE_PLL2_DIV_14       (RCC_CFGR_PLLSRC | RCC_CFGR2_PREDIV1_DIV14 | RCC_CFGR2_P
 439:Drivers/STM32F1xx_HAL_Driver/Inc/stm32f1xx_ll_rcc.h **** #define LL_RCC_PLLSOURCE_PLL2_DIV_15       (RCC_CFGR_PLLSRC | RCC_CFGR2_PREDIV1_DIV15 | RCC_CFGR2_P
 440:Drivers/STM32F1xx_HAL_Driver/Inc/stm32f1xx_ll_rcc.h **** #define LL_RCC_PLLSOURCE_PLL2_DIV_16       (RCC_CFGR_PLLSRC | RCC_CFGR2_PREDIV1_DIV16 | RCC_CFGR2_P
 441:Drivers/STM32F1xx_HAL_Driver/Inc/stm32f1xx_ll_rcc.h **** #endif /*RCC_CFGR2_PREDIV1SRC*/
 442:Drivers/STM32F1xx_HAL_Driver/Inc/stm32f1xx_ll_rcc.h **** #else
 443:Drivers/STM32F1xx_HAL_Driver/Inc/stm32f1xx_ll_rcc.h **** #define LL_RCC_PLLSOURCE_HSE_DIV_1         (RCC_CFGR_PLLSRC | 0x00000000U)               /*!< HSE/1
 444:Drivers/STM32F1xx_HAL_Driver/Inc/stm32f1xx_ll_rcc.h **** #define LL_RCC_PLLSOURCE_HSE_DIV_2         (RCC_CFGR_PLLSRC | RCC_CFGR_PLLXTPRE)         /*!< HSE/2
 445:Drivers/STM32F1xx_HAL_Driver/Inc/stm32f1xx_ll_rcc.h **** #endif /*RCC_CFGR2_PREDIV1*/
 446:Drivers/STM32F1xx_HAL_Driver/Inc/stm32f1xx_ll_rcc.h **** /**
 447:Drivers/STM32F1xx_HAL_Driver/Inc/stm32f1xx_ll_rcc.h ****   * @}
 448:Drivers/STM32F1xx_HAL_Driver/Inc/stm32f1xx_ll_rcc.h ****   */
 449:Drivers/STM32F1xx_HAL_Driver/Inc/stm32f1xx_ll_rcc.h **** 
 450:Drivers/STM32F1xx_HAL_Driver/Inc/stm32f1xx_ll_rcc.h **** /** @defgroup RCC_LL_EC_PREDIV_DIV PREDIV Division factor
 451:Drivers/STM32F1xx_HAL_Driver/Inc/stm32f1xx_ll_rcc.h ****   * @{
 452:Drivers/STM32F1xx_HAL_Driver/Inc/stm32f1xx_ll_rcc.h ****   */
 453:Drivers/STM32F1xx_HAL_Driver/Inc/stm32f1xx_ll_rcc.h **** #if defined(RCC_CFGR2_PREDIV1)
 454:Drivers/STM32F1xx_HAL_Driver/Inc/stm32f1xx_ll_rcc.h **** #define LL_RCC_PREDIV_DIV_1                RCC_CFGR2_PREDIV1_DIV1   /*!< PREDIV1 input clock not di
 455:Drivers/STM32F1xx_HAL_Driver/Inc/stm32f1xx_ll_rcc.h **** #define LL_RCC_PREDIV_DIV_2                RCC_CFGR2_PREDIV1_DIV2   /*!< PREDIV1 input clock divide
 456:Drivers/STM32F1xx_HAL_Driver/Inc/stm32f1xx_ll_rcc.h **** #define LL_RCC_PREDIV_DIV_3                RCC_CFGR2_PREDIV1_DIV3   /*!< PREDIV1 input clock divide
 457:Drivers/STM32F1xx_HAL_Driver/Inc/stm32f1xx_ll_rcc.h **** #define LL_RCC_PREDIV_DIV_4                RCC_CFGR2_PREDIV1_DIV4   /*!< PREDIV1 input clock divide
 458:Drivers/STM32F1xx_HAL_Driver/Inc/stm32f1xx_ll_rcc.h **** #define LL_RCC_PREDIV_DIV_5                RCC_CFGR2_PREDIV1_DIV5   /*!< PREDIV1 input clock divide
 459:Drivers/STM32F1xx_HAL_Driver/Inc/stm32f1xx_ll_rcc.h **** #define LL_RCC_PREDIV_DIV_6                RCC_CFGR2_PREDIV1_DIV6   /*!< PREDIV1 input clock divide
 460:Drivers/STM32F1xx_HAL_Driver/Inc/stm32f1xx_ll_rcc.h **** #define LL_RCC_PREDIV_DIV_7                RCC_CFGR2_PREDIV1_DIV7   /*!< PREDIV1 input clock divide
 461:Drivers/STM32F1xx_HAL_Driver/Inc/stm32f1xx_ll_rcc.h **** #define LL_RCC_PREDIV_DIV_8                RCC_CFGR2_PREDIV1_DIV8   /*!< PREDIV1 input clock divide
 462:Drivers/STM32F1xx_HAL_Driver/Inc/stm32f1xx_ll_rcc.h **** #define LL_RCC_PREDIV_DIV_9                RCC_CFGR2_PREDIV1_DIV9   /*!< PREDIV1 input clock divide
 463:Drivers/STM32F1xx_HAL_Driver/Inc/stm32f1xx_ll_rcc.h **** #define LL_RCC_PREDIV_DIV_10               RCC_CFGR2_PREDIV1_DIV10  /*!< PREDIV1 input clock divide
 464:Drivers/STM32F1xx_HAL_Driver/Inc/stm32f1xx_ll_rcc.h **** #define LL_RCC_PREDIV_DIV_11               RCC_CFGR2_PREDIV1_DIV11  /*!< PREDIV1 input clock divide
 465:Drivers/STM32F1xx_HAL_Driver/Inc/stm32f1xx_ll_rcc.h **** #define LL_RCC_PREDIV_DIV_12               RCC_CFGR2_PREDIV1_DIV12  /*!< PREDIV1 input clock divide
 466:Drivers/STM32F1xx_HAL_Driver/Inc/stm32f1xx_ll_rcc.h **** #define LL_RCC_PREDIV_DIV_13               RCC_CFGR2_PREDIV1_DIV13  /*!< PREDIV1 input clock divide
 467:Drivers/STM32F1xx_HAL_Driver/Inc/stm32f1xx_ll_rcc.h **** #define LL_RCC_PREDIV_DIV_14               RCC_CFGR2_PREDIV1_DIV14  /*!< PREDIV1 input clock divide
 468:Drivers/STM32F1xx_HAL_Driver/Inc/stm32f1xx_ll_rcc.h **** #define LL_RCC_PREDIV_DIV_15               RCC_CFGR2_PREDIV1_DIV15  /*!< PREDIV1 input clock divide
 469:Drivers/STM32F1xx_HAL_Driver/Inc/stm32f1xx_ll_rcc.h **** #define LL_RCC_PREDIV_DIV_16               RCC_CFGR2_PREDIV1_DIV16  /*!< PREDIV1 input clock divide
 470:Drivers/STM32F1xx_HAL_Driver/Inc/stm32f1xx_ll_rcc.h **** #else
 471:Drivers/STM32F1xx_HAL_Driver/Inc/stm32f1xx_ll_rcc.h **** #define LL_RCC_PREDIV_DIV_1                0x00000000U              /*!< HSE divider clock clock no
 472:Drivers/STM32F1xx_HAL_Driver/Inc/stm32f1xx_ll_rcc.h **** #define LL_RCC_PREDIV_DIV_2                RCC_CFGR_PLLXTPRE        /*!< HSE divider clock divided 
 473:Drivers/STM32F1xx_HAL_Driver/Inc/stm32f1xx_ll_rcc.h **** #endif /*RCC_CFGR2_PREDIV1*/
 474:Drivers/STM32F1xx_HAL_Driver/Inc/stm32f1xx_ll_rcc.h **** /**
 475:Drivers/STM32F1xx_HAL_Driver/Inc/stm32f1xx_ll_rcc.h ****   * @}
 476:Drivers/STM32F1xx_HAL_Driver/Inc/stm32f1xx_ll_rcc.h ****   */
 477:Drivers/STM32F1xx_HAL_Driver/Inc/stm32f1xx_ll_rcc.h **** 
 478:Drivers/STM32F1xx_HAL_Driver/Inc/stm32f1xx_ll_rcc.h **** #if defined(RCC_PLLI2S_SUPPORT)
 479:Drivers/STM32F1xx_HAL_Driver/Inc/stm32f1xx_ll_rcc.h **** /** @defgroup RCC_LL_EC_PLLI2S_MUL PLLI2S MUL
 480:Drivers/STM32F1xx_HAL_Driver/Inc/stm32f1xx_ll_rcc.h ****   * @{
 481:Drivers/STM32F1xx_HAL_Driver/Inc/stm32f1xx_ll_rcc.h ****   */
 482:Drivers/STM32F1xx_HAL_Driver/Inc/stm32f1xx_ll_rcc.h **** #define LL_RCC_PLLI2S_MUL_8                RCC_CFGR2_PLL3MUL8   /*!< PLLI2S input clock * 8 */
 483:Drivers/STM32F1xx_HAL_Driver/Inc/stm32f1xx_ll_rcc.h **** #define LL_RCC_PLLI2S_MUL_9                RCC_CFGR2_PLL3MUL9   /*!< PLLI2S input clock * 9 */
 484:Drivers/STM32F1xx_HAL_Driver/Inc/stm32f1xx_ll_rcc.h **** #define LL_RCC_PLLI2S_MUL_10               RCC_CFGR2_PLL3MUL10  /*!< PLLI2S input clock * 10 */
 485:Drivers/STM32F1xx_HAL_Driver/Inc/stm32f1xx_ll_rcc.h **** #define LL_RCC_PLLI2S_MUL_11               RCC_CFGR2_PLL3MUL11  /*!< PLLI2S input clock * 11 */
 486:Drivers/STM32F1xx_HAL_Driver/Inc/stm32f1xx_ll_rcc.h **** #define LL_RCC_PLLI2S_MUL_12               RCC_CFGR2_PLL3MUL12  /*!< PLLI2S input clock * 12 */
 487:Drivers/STM32F1xx_HAL_Driver/Inc/stm32f1xx_ll_rcc.h **** #define LL_RCC_PLLI2S_MUL_13               RCC_CFGR2_PLL3MUL13  /*!< PLLI2S input clock * 13 */
 488:Drivers/STM32F1xx_HAL_Driver/Inc/stm32f1xx_ll_rcc.h **** #define LL_RCC_PLLI2S_MUL_14               RCC_CFGR2_PLL3MUL14  /*!< PLLI2S input clock * 14 */
 489:Drivers/STM32F1xx_HAL_Driver/Inc/stm32f1xx_ll_rcc.h **** #define LL_RCC_PLLI2S_MUL_16               RCC_CFGR2_PLL3MUL16  /*!< PLLI2S input clock * 16 */
ARM GAS  /tmp/ccmpGAeh.s 			page 10


 490:Drivers/STM32F1xx_HAL_Driver/Inc/stm32f1xx_ll_rcc.h **** #define LL_RCC_PLLI2S_MUL_20               RCC_CFGR2_PLL3MUL20  /*!< PLLI2S input clock * 20 */
 491:Drivers/STM32F1xx_HAL_Driver/Inc/stm32f1xx_ll_rcc.h **** /**
 492:Drivers/STM32F1xx_HAL_Driver/Inc/stm32f1xx_ll_rcc.h ****   * @}
 493:Drivers/STM32F1xx_HAL_Driver/Inc/stm32f1xx_ll_rcc.h ****   */
 494:Drivers/STM32F1xx_HAL_Driver/Inc/stm32f1xx_ll_rcc.h **** 
 495:Drivers/STM32F1xx_HAL_Driver/Inc/stm32f1xx_ll_rcc.h **** #endif /* RCC_PLLI2S_SUPPORT */
 496:Drivers/STM32F1xx_HAL_Driver/Inc/stm32f1xx_ll_rcc.h **** 
 497:Drivers/STM32F1xx_HAL_Driver/Inc/stm32f1xx_ll_rcc.h **** #if defined(RCC_PLL2_SUPPORT)
 498:Drivers/STM32F1xx_HAL_Driver/Inc/stm32f1xx_ll_rcc.h **** /** @defgroup RCC_LL_EC_PLL2_MUL PLL2 MUL
 499:Drivers/STM32F1xx_HAL_Driver/Inc/stm32f1xx_ll_rcc.h ****   * @{
 500:Drivers/STM32F1xx_HAL_Driver/Inc/stm32f1xx_ll_rcc.h ****   */
 501:Drivers/STM32F1xx_HAL_Driver/Inc/stm32f1xx_ll_rcc.h **** #define LL_RCC_PLL2_MUL_8                  RCC_CFGR2_PLL2MUL8   /*!< PLL2 input clock * 8 */
 502:Drivers/STM32F1xx_HAL_Driver/Inc/stm32f1xx_ll_rcc.h **** #define LL_RCC_PLL2_MUL_9                  RCC_CFGR2_PLL2MUL9   /*!< PLL2 input clock * 9 */
 503:Drivers/STM32F1xx_HAL_Driver/Inc/stm32f1xx_ll_rcc.h **** #define LL_RCC_PLL2_MUL_10                 RCC_CFGR2_PLL2MUL10  /*!< PLL2 input clock * 10 */
 504:Drivers/STM32F1xx_HAL_Driver/Inc/stm32f1xx_ll_rcc.h **** #define LL_RCC_PLL2_MUL_11                 RCC_CFGR2_PLL2MUL11  /*!< PLL2 input clock * 11 */
 505:Drivers/STM32F1xx_HAL_Driver/Inc/stm32f1xx_ll_rcc.h **** #define LL_RCC_PLL2_MUL_12                 RCC_CFGR2_PLL2MUL12  /*!< PLL2 input clock * 12 */
 506:Drivers/STM32F1xx_HAL_Driver/Inc/stm32f1xx_ll_rcc.h **** #define LL_RCC_PLL2_MUL_13                 RCC_CFGR2_PLL2MUL13  /*!< PLL2 input clock * 13 */
 507:Drivers/STM32F1xx_HAL_Driver/Inc/stm32f1xx_ll_rcc.h **** #define LL_RCC_PLL2_MUL_14                 RCC_CFGR2_PLL2MUL14  /*!< PLL2 input clock * 14 */
 508:Drivers/STM32F1xx_HAL_Driver/Inc/stm32f1xx_ll_rcc.h **** #define LL_RCC_PLL2_MUL_16                 RCC_CFGR2_PLL2MUL16  /*!< PLL2 input clock * 16 */
 509:Drivers/STM32F1xx_HAL_Driver/Inc/stm32f1xx_ll_rcc.h **** #define LL_RCC_PLL2_MUL_20                 RCC_CFGR2_PLL2MUL20  /*!< PLL2 input clock * 20 */
 510:Drivers/STM32F1xx_HAL_Driver/Inc/stm32f1xx_ll_rcc.h **** /**
 511:Drivers/STM32F1xx_HAL_Driver/Inc/stm32f1xx_ll_rcc.h ****   * @}
 512:Drivers/STM32F1xx_HAL_Driver/Inc/stm32f1xx_ll_rcc.h ****   */
 513:Drivers/STM32F1xx_HAL_Driver/Inc/stm32f1xx_ll_rcc.h **** 
 514:Drivers/STM32F1xx_HAL_Driver/Inc/stm32f1xx_ll_rcc.h **** #endif /* RCC_PLL2_SUPPORT */
 515:Drivers/STM32F1xx_HAL_Driver/Inc/stm32f1xx_ll_rcc.h **** 
 516:Drivers/STM32F1xx_HAL_Driver/Inc/stm32f1xx_ll_rcc.h **** /**
 517:Drivers/STM32F1xx_HAL_Driver/Inc/stm32f1xx_ll_rcc.h ****   * @}
 518:Drivers/STM32F1xx_HAL_Driver/Inc/stm32f1xx_ll_rcc.h ****   */
 519:Drivers/STM32F1xx_HAL_Driver/Inc/stm32f1xx_ll_rcc.h **** 
 520:Drivers/STM32F1xx_HAL_Driver/Inc/stm32f1xx_ll_rcc.h **** /* Exported macro ------------------------------------------------------------*/
 521:Drivers/STM32F1xx_HAL_Driver/Inc/stm32f1xx_ll_rcc.h **** /** @defgroup RCC_LL_Exported_Macros RCC Exported Macros
 522:Drivers/STM32F1xx_HAL_Driver/Inc/stm32f1xx_ll_rcc.h ****   * @{
 523:Drivers/STM32F1xx_HAL_Driver/Inc/stm32f1xx_ll_rcc.h ****   */
 524:Drivers/STM32F1xx_HAL_Driver/Inc/stm32f1xx_ll_rcc.h **** 
 525:Drivers/STM32F1xx_HAL_Driver/Inc/stm32f1xx_ll_rcc.h **** /** @defgroup RCC_LL_EM_WRITE_READ Common Write and read registers Macros
 526:Drivers/STM32F1xx_HAL_Driver/Inc/stm32f1xx_ll_rcc.h ****   * @{
 527:Drivers/STM32F1xx_HAL_Driver/Inc/stm32f1xx_ll_rcc.h ****   */
 528:Drivers/STM32F1xx_HAL_Driver/Inc/stm32f1xx_ll_rcc.h **** 
 529:Drivers/STM32F1xx_HAL_Driver/Inc/stm32f1xx_ll_rcc.h **** /**
 530:Drivers/STM32F1xx_HAL_Driver/Inc/stm32f1xx_ll_rcc.h ****   * @brief  Write a value in RCC register
 531:Drivers/STM32F1xx_HAL_Driver/Inc/stm32f1xx_ll_rcc.h ****   * @param  __REG__ Register to be written
 532:Drivers/STM32F1xx_HAL_Driver/Inc/stm32f1xx_ll_rcc.h ****   * @param  __VALUE__ Value to be written in the register
 533:Drivers/STM32F1xx_HAL_Driver/Inc/stm32f1xx_ll_rcc.h ****   * @retval None
 534:Drivers/STM32F1xx_HAL_Driver/Inc/stm32f1xx_ll_rcc.h ****   */
 535:Drivers/STM32F1xx_HAL_Driver/Inc/stm32f1xx_ll_rcc.h **** #define LL_RCC_WriteReg(__REG__, __VALUE__) WRITE_REG(RCC->__REG__, (__VALUE__))
 536:Drivers/STM32F1xx_HAL_Driver/Inc/stm32f1xx_ll_rcc.h **** 
 537:Drivers/STM32F1xx_HAL_Driver/Inc/stm32f1xx_ll_rcc.h **** /**
 538:Drivers/STM32F1xx_HAL_Driver/Inc/stm32f1xx_ll_rcc.h ****   * @brief  Read a value in RCC register
 539:Drivers/STM32F1xx_HAL_Driver/Inc/stm32f1xx_ll_rcc.h ****   * @param  __REG__ Register to be read
 540:Drivers/STM32F1xx_HAL_Driver/Inc/stm32f1xx_ll_rcc.h ****   * @retval Register value
 541:Drivers/STM32F1xx_HAL_Driver/Inc/stm32f1xx_ll_rcc.h ****   */
 542:Drivers/STM32F1xx_HAL_Driver/Inc/stm32f1xx_ll_rcc.h **** #define LL_RCC_ReadReg(__REG__) READ_REG(RCC->__REG__)
 543:Drivers/STM32F1xx_HAL_Driver/Inc/stm32f1xx_ll_rcc.h **** /**
 544:Drivers/STM32F1xx_HAL_Driver/Inc/stm32f1xx_ll_rcc.h ****   * @}
 545:Drivers/STM32F1xx_HAL_Driver/Inc/stm32f1xx_ll_rcc.h ****   */
 546:Drivers/STM32F1xx_HAL_Driver/Inc/stm32f1xx_ll_rcc.h **** 
ARM GAS  /tmp/ccmpGAeh.s 			page 11


 547:Drivers/STM32F1xx_HAL_Driver/Inc/stm32f1xx_ll_rcc.h **** /** @defgroup RCC_LL_EM_CALC_FREQ Calculate frequencies
 548:Drivers/STM32F1xx_HAL_Driver/Inc/stm32f1xx_ll_rcc.h ****   * @{
 549:Drivers/STM32F1xx_HAL_Driver/Inc/stm32f1xx_ll_rcc.h ****   */
 550:Drivers/STM32F1xx_HAL_Driver/Inc/stm32f1xx_ll_rcc.h **** 
 551:Drivers/STM32F1xx_HAL_Driver/Inc/stm32f1xx_ll_rcc.h **** #if defined(RCC_CFGR_PLLMULL6_5)
 552:Drivers/STM32F1xx_HAL_Driver/Inc/stm32f1xx_ll_rcc.h **** /**
 553:Drivers/STM32F1xx_HAL_Driver/Inc/stm32f1xx_ll_rcc.h ****   * @brief  Helper macro to calculate the PLLCLK frequency
 554:Drivers/STM32F1xx_HAL_Driver/Inc/stm32f1xx_ll_rcc.h ****   * @note ex: @ref __LL_RCC_CALC_PLLCLK_FREQ (HSE_VALUE / (@ref LL_RCC_PLL_GetPrediv () + 1), @ref 
 555:Drivers/STM32F1xx_HAL_Driver/Inc/stm32f1xx_ll_rcc.h ****   * @param  __INPUTFREQ__ PLL Input frequency (based on HSE div Prediv1 / HSI div 2 / PLL2 div Pred
 556:Drivers/STM32F1xx_HAL_Driver/Inc/stm32f1xx_ll_rcc.h ****   * @param  __PLLMUL__: This parameter can be one of the following values:
 557:Drivers/STM32F1xx_HAL_Driver/Inc/stm32f1xx_ll_rcc.h ****   *         @arg @ref LL_RCC_PLL_MUL_4
 558:Drivers/STM32F1xx_HAL_Driver/Inc/stm32f1xx_ll_rcc.h ****   *         @arg @ref LL_RCC_PLL_MUL_5
 559:Drivers/STM32F1xx_HAL_Driver/Inc/stm32f1xx_ll_rcc.h ****   *         @arg @ref LL_RCC_PLL_MUL_6
 560:Drivers/STM32F1xx_HAL_Driver/Inc/stm32f1xx_ll_rcc.h ****   *         @arg @ref LL_RCC_PLL_MUL_7
 561:Drivers/STM32F1xx_HAL_Driver/Inc/stm32f1xx_ll_rcc.h ****   *         @arg @ref LL_RCC_PLL_MUL_8
 562:Drivers/STM32F1xx_HAL_Driver/Inc/stm32f1xx_ll_rcc.h ****   *         @arg @ref LL_RCC_PLL_MUL_9
 563:Drivers/STM32F1xx_HAL_Driver/Inc/stm32f1xx_ll_rcc.h ****   *         @arg @ref LL_RCC_PLL_MUL_6_5
 564:Drivers/STM32F1xx_HAL_Driver/Inc/stm32f1xx_ll_rcc.h ****   * @retval PLL clock frequency (in Hz)
 565:Drivers/STM32F1xx_HAL_Driver/Inc/stm32f1xx_ll_rcc.h ****   */
 566:Drivers/STM32F1xx_HAL_Driver/Inc/stm32f1xx_ll_rcc.h **** #define __LL_RCC_CALC_PLLCLK_FREQ(__INPUTFREQ__, __PLLMUL__) \
 567:Drivers/STM32F1xx_HAL_Driver/Inc/stm32f1xx_ll_rcc.h ****           (((__PLLMUL__) != RCC_CFGR_PLLMULL6_5) ? \
 568:Drivers/STM32F1xx_HAL_Driver/Inc/stm32f1xx_ll_rcc.h ****               ((__INPUTFREQ__) * ((((__PLLMUL__) & RCC_CFGR_PLLMULL) >> RCC_CFGR_PLLMULL_Pos) + 2U)
 569:Drivers/STM32F1xx_HAL_Driver/Inc/stm32f1xx_ll_rcc.h ****               (((__INPUTFREQ__) * 13U) / 2U))
 570:Drivers/STM32F1xx_HAL_Driver/Inc/stm32f1xx_ll_rcc.h **** 
 571:Drivers/STM32F1xx_HAL_Driver/Inc/stm32f1xx_ll_rcc.h **** #else
 572:Drivers/STM32F1xx_HAL_Driver/Inc/stm32f1xx_ll_rcc.h **** /**
 573:Drivers/STM32F1xx_HAL_Driver/Inc/stm32f1xx_ll_rcc.h ****   * @brief  Helper macro to calculate the PLLCLK frequency
 574:Drivers/STM32F1xx_HAL_Driver/Inc/stm32f1xx_ll_rcc.h ****   * @note ex: @ref __LL_RCC_CALC_PLLCLK_FREQ (HSE_VALUE / (@ref LL_RCC_PLL_GetPrediv () + 1), @ref 
 575:Drivers/STM32F1xx_HAL_Driver/Inc/stm32f1xx_ll_rcc.h ****   * @param  __INPUTFREQ__ PLL Input frequency (based on HSE div Prediv1 or div 2 / HSI div 2)
 576:Drivers/STM32F1xx_HAL_Driver/Inc/stm32f1xx_ll_rcc.h ****   * @param  __PLLMUL__: This parameter can be one of the following values:
 577:Drivers/STM32F1xx_HAL_Driver/Inc/stm32f1xx_ll_rcc.h ****   *         @arg @ref LL_RCC_PLL_MUL_2
 578:Drivers/STM32F1xx_HAL_Driver/Inc/stm32f1xx_ll_rcc.h ****   *         @arg @ref LL_RCC_PLL_MUL_3
 579:Drivers/STM32F1xx_HAL_Driver/Inc/stm32f1xx_ll_rcc.h ****   *         @arg @ref LL_RCC_PLL_MUL_4
 580:Drivers/STM32F1xx_HAL_Driver/Inc/stm32f1xx_ll_rcc.h ****   *         @arg @ref LL_RCC_PLL_MUL_5
 581:Drivers/STM32F1xx_HAL_Driver/Inc/stm32f1xx_ll_rcc.h ****   *         @arg @ref LL_RCC_PLL_MUL_6
 582:Drivers/STM32F1xx_HAL_Driver/Inc/stm32f1xx_ll_rcc.h ****   *         @arg @ref LL_RCC_PLL_MUL_7
 583:Drivers/STM32F1xx_HAL_Driver/Inc/stm32f1xx_ll_rcc.h ****   *         @arg @ref LL_RCC_PLL_MUL_8
 584:Drivers/STM32F1xx_HAL_Driver/Inc/stm32f1xx_ll_rcc.h ****   *         @arg @ref LL_RCC_PLL_MUL_9
 585:Drivers/STM32F1xx_HAL_Driver/Inc/stm32f1xx_ll_rcc.h ****   *         @arg @ref LL_RCC_PLL_MUL_10
 586:Drivers/STM32F1xx_HAL_Driver/Inc/stm32f1xx_ll_rcc.h ****   *         @arg @ref LL_RCC_PLL_MUL_11
 587:Drivers/STM32F1xx_HAL_Driver/Inc/stm32f1xx_ll_rcc.h ****   *         @arg @ref LL_RCC_PLL_MUL_12
 588:Drivers/STM32F1xx_HAL_Driver/Inc/stm32f1xx_ll_rcc.h ****   *         @arg @ref LL_RCC_PLL_MUL_13
 589:Drivers/STM32F1xx_HAL_Driver/Inc/stm32f1xx_ll_rcc.h ****   *         @arg @ref LL_RCC_PLL_MUL_14
 590:Drivers/STM32F1xx_HAL_Driver/Inc/stm32f1xx_ll_rcc.h ****   *         @arg @ref LL_RCC_PLL_MUL_15
 591:Drivers/STM32F1xx_HAL_Driver/Inc/stm32f1xx_ll_rcc.h ****   *         @arg @ref LL_RCC_PLL_MUL_16
 592:Drivers/STM32F1xx_HAL_Driver/Inc/stm32f1xx_ll_rcc.h ****   * @retval PLL clock frequency (in Hz)
 593:Drivers/STM32F1xx_HAL_Driver/Inc/stm32f1xx_ll_rcc.h ****   */
 594:Drivers/STM32F1xx_HAL_Driver/Inc/stm32f1xx_ll_rcc.h **** #define __LL_RCC_CALC_PLLCLK_FREQ(__INPUTFREQ__, __PLLMUL__) ((__INPUTFREQ__) * (((__PLLMUL__) >> R
 595:Drivers/STM32F1xx_HAL_Driver/Inc/stm32f1xx_ll_rcc.h **** #endif /* RCC_CFGR_PLLMULL6_5 */
 596:Drivers/STM32F1xx_HAL_Driver/Inc/stm32f1xx_ll_rcc.h **** 
 597:Drivers/STM32F1xx_HAL_Driver/Inc/stm32f1xx_ll_rcc.h **** #if defined(RCC_PLLI2S_SUPPORT)
 598:Drivers/STM32F1xx_HAL_Driver/Inc/stm32f1xx_ll_rcc.h **** /**
 599:Drivers/STM32F1xx_HAL_Driver/Inc/stm32f1xx_ll_rcc.h ****   * @brief  Helper macro to calculate the PLLI2S frequency
 600:Drivers/STM32F1xx_HAL_Driver/Inc/stm32f1xx_ll_rcc.h ****   * @note ex: @ref __LL_RCC_CALC_PLLI2SCLK_FREQ (HSE_VALUE, @ref LL_RCC_PLLI2S_GetMultiplicator (),
 601:Drivers/STM32F1xx_HAL_Driver/Inc/stm32f1xx_ll_rcc.h ****   * @param  __INPUTFREQ__ PLLI2S Input frequency (based on HSE value)
 602:Drivers/STM32F1xx_HAL_Driver/Inc/stm32f1xx_ll_rcc.h ****   * @param  __PLLI2SMUL__: This parameter can be one of the following values:
 603:Drivers/STM32F1xx_HAL_Driver/Inc/stm32f1xx_ll_rcc.h ****   *         @arg @ref LL_RCC_PLLI2S_MUL_8
ARM GAS  /tmp/ccmpGAeh.s 			page 12


 604:Drivers/STM32F1xx_HAL_Driver/Inc/stm32f1xx_ll_rcc.h ****   *         @arg @ref LL_RCC_PLLI2S_MUL_9
 605:Drivers/STM32F1xx_HAL_Driver/Inc/stm32f1xx_ll_rcc.h ****   *         @arg @ref LL_RCC_PLLI2S_MUL_10
 606:Drivers/STM32F1xx_HAL_Driver/Inc/stm32f1xx_ll_rcc.h ****   *         @arg @ref LL_RCC_PLLI2S_MUL_11
 607:Drivers/STM32F1xx_HAL_Driver/Inc/stm32f1xx_ll_rcc.h ****   *         @arg @ref LL_RCC_PLLI2S_MUL_12
 608:Drivers/STM32F1xx_HAL_Driver/Inc/stm32f1xx_ll_rcc.h ****   *         @arg @ref LL_RCC_PLLI2S_MUL_13
 609:Drivers/STM32F1xx_HAL_Driver/Inc/stm32f1xx_ll_rcc.h ****   *         @arg @ref LL_RCC_PLLI2S_MUL_14
 610:Drivers/STM32F1xx_HAL_Driver/Inc/stm32f1xx_ll_rcc.h ****   *         @arg @ref LL_RCC_PLLI2S_MUL_16
 611:Drivers/STM32F1xx_HAL_Driver/Inc/stm32f1xx_ll_rcc.h ****   *         @arg @ref LL_RCC_PLLI2S_MUL_20
 612:Drivers/STM32F1xx_HAL_Driver/Inc/stm32f1xx_ll_rcc.h ****   * @param  __PLLI2SDIV__: This parameter can be one of the following values:
 613:Drivers/STM32F1xx_HAL_Driver/Inc/stm32f1xx_ll_rcc.h ****   *         @arg @ref LL_RCC_HSE_PREDIV2_DIV_1
 614:Drivers/STM32F1xx_HAL_Driver/Inc/stm32f1xx_ll_rcc.h ****   *         @arg @ref LL_RCC_HSE_PREDIV2_DIV_2
 615:Drivers/STM32F1xx_HAL_Driver/Inc/stm32f1xx_ll_rcc.h ****   *         @arg @ref LL_RCC_HSE_PREDIV2_DIV_3
 616:Drivers/STM32F1xx_HAL_Driver/Inc/stm32f1xx_ll_rcc.h ****   *         @arg @ref LL_RCC_HSE_PREDIV2_DIV_4
 617:Drivers/STM32F1xx_HAL_Driver/Inc/stm32f1xx_ll_rcc.h ****   *         @arg @ref LL_RCC_HSE_PREDIV2_DIV_5
 618:Drivers/STM32F1xx_HAL_Driver/Inc/stm32f1xx_ll_rcc.h ****   *         @arg @ref LL_RCC_HSE_PREDIV2_DIV_6
 619:Drivers/STM32F1xx_HAL_Driver/Inc/stm32f1xx_ll_rcc.h ****   *         @arg @ref LL_RCC_HSE_PREDIV2_DIV_7
 620:Drivers/STM32F1xx_HAL_Driver/Inc/stm32f1xx_ll_rcc.h ****   *         @arg @ref LL_RCC_HSE_PREDIV2_DIV_8
 621:Drivers/STM32F1xx_HAL_Driver/Inc/stm32f1xx_ll_rcc.h ****   *         @arg @ref LL_RCC_HSE_PREDIV2_DIV_9
 622:Drivers/STM32F1xx_HAL_Driver/Inc/stm32f1xx_ll_rcc.h ****   *         @arg @ref LL_RCC_HSE_PREDIV2_DIV_10
 623:Drivers/STM32F1xx_HAL_Driver/Inc/stm32f1xx_ll_rcc.h ****   *         @arg @ref LL_RCC_HSE_PREDIV2_DIV_11
 624:Drivers/STM32F1xx_HAL_Driver/Inc/stm32f1xx_ll_rcc.h ****   *         @arg @ref LL_RCC_HSE_PREDIV2_DIV_12
 625:Drivers/STM32F1xx_HAL_Driver/Inc/stm32f1xx_ll_rcc.h ****   *         @arg @ref LL_RCC_HSE_PREDIV2_DIV_13
 626:Drivers/STM32F1xx_HAL_Driver/Inc/stm32f1xx_ll_rcc.h ****   *         @arg @ref LL_RCC_HSE_PREDIV2_DIV_14
 627:Drivers/STM32F1xx_HAL_Driver/Inc/stm32f1xx_ll_rcc.h ****   *         @arg @ref LL_RCC_HSE_PREDIV2_DIV_15
 628:Drivers/STM32F1xx_HAL_Driver/Inc/stm32f1xx_ll_rcc.h ****   *         @arg @ref LL_RCC_HSE_PREDIV2_DIV_16
 629:Drivers/STM32F1xx_HAL_Driver/Inc/stm32f1xx_ll_rcc.h ****   * @retval PLLI2S clock frequency (in Hz)
 630:Drivers/STM32F1xx_HAL_Driver/Inc/stm32f1xx_ll_rcc.h ****   */
 631:Drivers/STM32F1xx_HAL_Driver/Inc/stm32f1xx_ll_rcc.h **** #define __LL_RCC_CALC_PLLI2SCLK_FREQ(__INPUTFREQ__, __PLLI2SMUL__, __PLLI2SDIV__) (((__INPUTFREQ__)
 632:Drivers/STM32F1xx_HAL_Driver/Inc/stm32f1xx_ll_rcc.h **** #endif /* RCC_PLLI2S_SUPPORT */
 633:Drivers/STM32F1xx_HAL_Driver/Inc/stm32f1xx_ll_rcc.h **** 
 634:Drivers/STM32F1xx_HAL_Driver/Inc/stm32f1xx_ll_rcc.h **** #if defined(RCC_PLL2_SUPPORT)
 635:Drivers/STM32F1xx_HAL_Driver/Inc/stm32f1xx_ll_rcc.h **** /**
 636:Drivers/STM32F1xx_HAL_Driver/Inc/stm32f1xx_ll_rcc.h ****   * @brief  Helper macro to calculate the PLL2 frequency
 637:Drivers/STM32F1xx_HAL_Driver/Inc/stm32f1xx_ll_rcc.h ****   * @note ex: @ref __LL_RCC_CALC_PLL2CLK_FREQ (HSE_VALUE, @ref LL_RCC_PLL2_GetMultiplicator (), @re
 638:Drivers/STM32F1xx_HAL_Driver/Inc/stm32f1xx_ll_rcc.h ****   * @param  __INPUTFREQ__ PLL2 Input frequency (based on HSE value)
 639:Drivers/STM32F1xx_HAL_Driver/Inc/stm32f1xx_ll_rcc.h ****   * @param  __PLL2MUL__: This parameter can be one of the following values:
 640:Drivers/STM32F1xx_HAL_Driver/Inc/stm32f1xx_ll_rcc.h ****   *         @arg @ref LL_RCC_PLL2_MUL_8
 641:Drivers/STM32F1xx_HAL_Driver/Inc/stm32f1xx_ll_rcc.h ****   *         @arg @ref LL_RCC_PLL2_MUL_9
 642:Drivers/STM32F1xx_HAL_Driver/Inc/stm32f1xx_ll_rcc.h ****   *         @arg @ref LL_RCC_PLL2_MUL_10
 643:Drivers/STM32F1xx_HAL_Driver/Inc/stm32f1xx_ll_rcc.h ****   *         @arg @ref LL_RCC_PLL2_MUL_11
 644:Drivers/STM32F1xx_HAL_Driver/Inc/stm32f1xx_ll_rcc.h ****   *         @arg @ref LL_RCC_PLL2_MUL_12
 645:Drivers/STM32F1xx_HAL_Driver/Inc/stm32f1xx_ll_rcc.h ****   *         @arg @ref LL_RCC_PLL2_MUL_13
 646:Drivers/STM32F1xx_HAL_Driver/Inc/stm32f1xx_ll_rcc.h ****   *         @arg @ref LL_RCC_PLL2_MUL_14
 647:Drivers/STM32F1xx_HAL_Driver/Inc/stm32f1xx_ll_rcc.h ****   *         @arg @ref LL_RCC_PLL2_MUL_16
 648:Drivers/STM32F1xx_HAL_Driver/Inc/stm32f1xx_ll_rcc.h ****   *         @arg @ref LL_RCC_PLL2_MUL_20
 649:Drivers/STM32F1xx_HAL_Driver/Inc/stm32f1xx_ll_rcc.h ****   * @param  __PLL2DIV__: This parameter can be one of the following values:
 650:Drivers/STM32F1xx_HAL_Driver/Inc/stm32f1xx_ll_rcc.h ****   *         @arg @ref LL_RCC_HSE_PREDIV2_DIV_1
 651:Drivers/STM32F1xx_HAL_Driver/Inc/stm32f1xx_ll_rcc.h ****   *         @arg @ref LL_RCC_HSE_PREDIV2_DIV_2
 652:Drivers/STM32F1xx_HAL_Driver/Inc/stm32f1xx_ll_rcc.h ****   *         @arg @ref LL_RCC_HSE_PREDIV2_DIV_3
 653:Drivers/STM32F1xx_HAL_Driver/Inc/stm32f1xx_ll_rcc.h ****   *         @arg @ref LL_RCC_HSE_PREDIV2_DIV_4
 654:Drivers/STM32F1xx_HAL_Driver/Inc/stm32f1xx_ll_rcc.h ****   *         @arg @ref LL_RCC_HSE_PREDIV2_DIV_5
 655:Drivers/STM32F1xx_HAL_Driver/Inc/stm32f1xx_ll_rcc.h ****   *         @arg @ref LL_RCC_HSE_PREDIV2_DIV_6
 656:Drivers/STM32F1xx_HAL_Driver/Inc/stm32f1xx_ll_rcc.h ****   *         @arg @ref LL_RCC_HSE_PREDIV2_DIV_7
 657:Drivers/STM32F1xx_HAL_Driver/Inc/stm32f1xx_ll_rcc.h ****   *         @arg @ref LL_RCC_HSE_PREDIV2_DIV_8
 658:Drivers/STM32F1xx_HAL_Driver/Inc/stm32f1xx_ll_rcc.h ****   *         @arg @ref LL_RCC_HSE_PREDIV2_DIV_9
 659:Drivers/STM32F1xx_HAL_Driver/Inc/stm32f1xx_ll_rcc.h ****   *         @arg @ref LL_RCC_HSE_PREDIV2_DIV_10
 660:Drivers/STM32F1xx_HAL_Driver/Inc/stm32f1xx_ll_rcc.h ****   *         @arg @ref LL_RCC_HSE_PREDIV2_DIV_11
ARM GAS  /tmp/ccmpGAeh.s 			page 13


 661:Drivers/STM32F1xx_HAL_Driver/Inc/stm32f1xx_ll_rcc.h ****   *         @arg @ref LL_RCC_HSE_PREDIV2_DIV_12
 662:Drivers/STM32F1xx_HAL_Driver/Inc/stm32f1xx_ll_rcc.h ****   *         @arg @ref LL_RCC_HSE_PREDIV2_DIV_13
 663:Drivers/STM32F1xx_HAL_Driver/Inc/stm32f1xx_ll_rcc.h ****   *         @arg @ref LL_RCC_HSE_PREDIV2_DIV_14
 664:Drivers/STM32F1xx_HAL_Driver/Inc/stm32f1xx_ll_rcc.h ****   *         @arg @ref LL_RCC_HSE_PREDIV2_DIV_15
 665:Drivers/STM32F1xx_HAL_Driver/Inc/stm32f1xx_ll_rcc.h ****   *         @arg @ref LL_RCC_HSE_PREDIV2_DIV_16
 666:Drivers/STM32F1xx_HAL_Driver/Inc/stm32f1xx_ll_rcc.h ****   * @retval PLL2 clock frequency (in Hz)
 667:Drivers/STM32F1xx_HAL_Driver/Inc/stm32f1xx_ll_rcc.h ****   */
 668:Drivers/STM32F1xx_HAL_Driver/Inc/stm32f1xx_ll_rcc.h **** #define __LL_RCC_CALC_PLL2CLK_FREQ(__INPUTFREQ__, __PLL2MUL__, __PLL2DIV__) (((__INPUTFREQ__) * (((
 669:Drivers/STM32F1xx_HAL_Driver/Inc/stm32f1xx_ll_rcc.h **** #endif /* RCC_PLL2_SUPPORT */
 670:Drivers/STM32F1xx_HAL_Driver/Inc/stm32f1xx_ll_rcc.h **** 
 671:Drivers/STM32F1xx_HAL_Driver/Inc/stm32f1xx_ll_rcc.h **** /**
 672:Drivers/STM32F1xx_HAL_Driver/Inc/stm32f1xx_ll_rcc.h ****   * @brief  Helper macro to calculate the HCLK frequency
 673:Drivers/STM32F1xx_HAL_Driver/Inc/stm32f1xx_ll_rcc.h ****   * @note: __AHBPRESCALER__ be retrieved by @ref LL_RCC_GetAHBPrescaler
 674:Drivers/STM32F1xx_HAL_Driver/Inc/stm32f1xx_ll_rcc.h ****   *        ex: __LL_RCC_CALC_HCLK_FREQ(LL_RCC_GetAHBPrescaler())
 675:Drivers/STM32F1xx_HAL_Driver/Inc/stm32f1xx_ll_rcc.h ****   * @param  __SYSCLKFREQ__ SYSCLK frequency (based on HSE/HSI/PLLCLK)
 676:Drivers/STM32F1xx_HAL_Driver/Inc/stm32f1xx_ll_rcc.h ****   * @param  __AHBPRESCALER__: This parameter can be one of the following values:
 677:Drivers/STM32F1xx_HAL_Driver/Inc/stm32f1xx_ll_rcc.h ****   *         @arg @ref LL_RCC_SYSCLK_DIV_1
 678:Drivers/STM32F1xx_HAL_Driver/Inc/stm32f1xx_ll_rcc.h ****   *         @arg @ref LL_RCC_SYSCLK_DIV_2
 679:Drivers/STM32F1xx_HAL_Driver/Inc/stm32f1xx_ll_rcc.h ****   *         @arg @ref LL_RCC_SYSCLK_DIV_4
 680:Drivers/STM32F1xx_HAL_Driver/Inc/stm32f1xx_ll_rcc.h ****   *         @arg @ref LL_RCC_SYSCLK_DIV_8
 681:Drivers/STM32F1xx_HAL_Driver/Inc/stm32f1xx_ll_rcc.h ****   *         @arg @ref LL_RCC_SYSCLK_DIV_16
 682:Drivers/STM32F1xx_HAL_Driver/Inc/stm32f1xx_ll_rcc.h ****   *         @arg @ref LL_RCC_SYSCLK_DIV_64
 683:Drivers/STM32F1xx_HAL_Driver/Inc/stm32f1xx_ll_rcc.h ****   *         @arg @ref LL_RCC_SYSCLK_DIV_128
 684:Drivers/STM32F1xx_HAL_Driver/Inc/stm32f1xx_ll_rcc.h ****   *         @arg @ref LL_RCC_SYSCLK_DIV_256
 685:Drivers/STM32F1xx_HAL_Driver/Inc/stm32f1xx_ll_rcc.h ****   *         @arg @ref LL_RCC_SYSCLK_DIV_512
 686:Drivers/STM32F1xx_HAL_Driver/Inc/stm32f1xx_ll_rcc.h ****   * @retval HCLK clock frequency (in Hz)
 687:Drivers/STM32F1xx_HAL_Driver/Inc/stm32f1xx_ll_rcc.h ****   */
 688:Drivers/STM32F1xx_HAL_Driver/Inc/stm32f1xx_ll_rcc.h **** #define __LL_RCC_CALC_HCLK_FREQ(__SYSCLKFREQ__, __AHBPRESCALER__) ((__SYSCLKFREQ__) >> AHBPrescTabl
 689:Drivers/STM32F1xx_HAL_Driver/Inc/stm32f1xx_ll_rcc.h **** 
 690:Drivers/STM32F1xx_HAL_Driver/Inc/stm32f1xx_ll_rcc.h **** /**
 691:Drivers/STM32F1xx_HAL_Driver/Inc/stm32f1xx_ll_rcc.h ****   * @brief  Helper macro to calculate the PCLK1 frequency (ABP1)
 692:Drivers/STM32F1xx_HAL_Driver/Inc/stm32f1xx_ll_rcc.h ****   * @note: __APB1PRESCALER__ be retrieved by @ref LL_RCC_GetAPB1Prescaler
 693:Drivers/STM32F1xx_HAL_Driver/Inc/stm32f1xx_ll_rcc.h ****   *        ex: __LL_RCC_CALC_PCLK1_FREQ(LL_RCC_GetAPB1Prescaler())
 694:Drivers/STM32F1xx_HAL_Driver/Inc/stm32f1xx_ll_rcc.h ****   * @param  __HCLKFREQ__ HCLK frequency
 695:Drivers/STM32F1xx_HAL_Driver/Inc/stm32f1xx_ll_rcc.h ****   * @param  __APB1PRESCALER__: This parameter can be one of the following values:
 696:Drivers/STM32F1xx_HAL_Driver/Inc/stm32f1xx_ll_rcc.h ****   *         @arg @ref LL_RCC_APB1_DIV_1
 697:Drivers/STM32F1xx_HAL_Driver/Inc/stm32f1xx_ll_rcc.h ****   *         @arg @ref LL_RCC_APB1_DIV_2
 698:Drivers/STM32F1xx_HAL_Driver/Inc/stm32f1xx_ll_rcc.h ****   *         @arg @ref LL_RCC_APB1_DIV_4
 699:Drivers/STM32F1xx_HAL_Driver/Inc/stm32f1xx_ll_rcc.h ****   *         @arg @ref LL_RCC_APB1_DIV_8
 700:Drivers/STM32F1xx_HAL_Driver/Inc/stm32f1xx_ll_rcc.h ****   *         @arg @ref LL_RCC_APB1_DIV_16
 701:Drivers/STM32F1xx_HAL_Driver/Inc/stm32f1xx_ll_rcc.h ****   * @retval PCLK1 clock frequency (in Hz)
 702:Drivers/STM32F1xx_HAL_Driver/Inc/stm32f1xx_ll_rcc.h ****   */
 703:Drivers/STM32F1xx_HAL_Driver/Inc/stm32f1xx_ll_rcc.h **** #define __LL_RCC_CALC_PCLK1_FREQ(__HCLKFREQ__, __APB1PRESCALER__) ((__HCLKFREQ__) >> APBPrescTable[
 704:Drivers/STM32F1xx_HAL_Driver/Inc/stm32f1xx_ll_rcc.h **** 
 705:Drivers/STM32F1xx_HAL_Driver/Inc/stm32f1xx_ll_rcc.h **** /**
 706:Drivers/STM32F1xx_HAL_Driver/Inc/stm32f1xx_ll_rcc.h ****   * @brief  Helper macro to calculate the PCLK2 frequency (ABP2)
 707:Drivers/STM32F1xx_HAL_Driver/Inc/stm32f1xx_ll_rcc.h ****   * @note: __APB2PRESCALER__ be retrieved by @ref LL_RCC_GetAPB2Prescaler
 708:Drivers/STM32F1xx_HAL_Driver/Inc/stm32f1xx_ll_rcc.h ****   *        ex: __LL_RCC_CALC_PCLK2_FREQ(LL_RCC_GetAPB2Prescaler())
 709:Drivers/STM32F1xx_HAL_Driver/Inc/stm32f1xx_ll_rcc.h ****   * @param  __HCLKFREQ__ HCLK frequency
 710:Drivers/STM32F1xx_HAL_Driver/Inc/stm32f1xx_ll_rcc.h ****   * @param  __APB2PRESCALER__: This parameter can be one of the following values:
 711:Drivers/STM32F1xx_HAL_Driver/Inc/stm32f1xx_ll_rcc.h ****   *         @arg @ref LL_RCC_APB2_DIV_1
 712:Drivers/STM32F1xx_HAL_Driver/Inc/stm32f1xx_ll_rcc.h ****   *         @arg @ref LL_RCC_APB2_DIV_2
 713:Drivers/STM32F1xx_HAL_Driver/Inc/stm32f1xx_ll_rcc.h ****   *         @arg @ref LL_RCC_APB2_DIV_4
 714:Drivers/STM32F1xx_HAL_Driver/Inc/stm32f1xx_ll_rcc.h ****   *         @arg @ref LL_RCC_APB2_DIV_8
 715:Drivers/STM32F1xx_HAL_Driver/Inc/stm32f1xx_ll_rcc.h ****   *         @arg @ref LL_RCC_APB2_DIV_16
 716:Drivers/STM32F1xx_HAL_Driver/Inc/stm32f1xx_ll_rcc.h ****   * @retval PCLK2 clock frequency (in Hz)
 717:Drivers/STM32F1xx_HAL_Driver/Inc/stm32f1xx_ll_rcc.h ****   */
ARM GAS  /tmp/ccmpGAeh.s 			page 14


 718:Drivers/STM32F1xx_HAL_Driver/Inc/stm32f1xx_ll_rcc.h **** #define __LL_RCC_CALC_PCLK2_FREQ(__HCLKFREQ__, __APB2PRESCALER__) ((__HCLKFREQ__) >> APBPrescTable[
 719:Drivers/STM32F1xx_HAL_Driver/Inc/stm32f1xx_ll_rcc.h **** 
 720:Drivers/STM32F1xx_HAL_Driver/Inc/stm32f1xx_ll_rcc.h **** /**
 721:Drivers/STM32F1xx_HAL_Driver/Inc/stm32f1xx_ll_rcc.h ****   * @}
 722:Drivers/STM32F1xx_HAL_Driver/Inc/stm32f1xx_ll_rcc.h ****   */
 723:Drivers/STM32F1xx_HAL_Driver/Inc/stm32f1xx_ll_rcc.h **** 
 724:Drivers/STM32F1xx_HAL_Driver/Inc/stm32f1xx_ll_rcc.h **** /**
 725:Drivers/STM32F1xx_HAL_Driver/Inc/stm32f1xx_ll_rcc.h ****   * @}
 726:Drivers/STM32F1xx_HAL_Driver/Inc/stm32f1xx_ll_rcc.h ****   */
 727:Drivers/STM32F1xx_HAL_Driver/Inc/stm32f1xx_ll_rcc.h **** 
 728:Drivers/STM32F1xx_HAL_Driver/Inc/stm32f1xx_ll_rcc.h **** /* Exported functions --------------------------------------------------------*/
 729:Drivers/STM32F1xx_HAL_Driver/Inc/stm32f1xx_ll_rcc.h **** /** @defgroup RCC_LL_Exported_Functions RCC Exported Functions
 730:Drivers/STM32F1xx_HAL_Driver/Inc/stm32f1xx_ll_rcc.h ****   * @{
 731:Drivers/STM32F1xx_HAL_Driver/Inc/stm32f1xx_ll_rcc.h ****   */
 732:Drivers/STM32F1xx_HAL_Driver/Inc/stm32f1xx_ll_rcc.h **** 
 733:Drivers/STM32F1xx_HAL_Driver/Inc/stm32f1xx_ll_rcc.h **** /** @defgroup RCC_LL_EF_HSE HSE
 734:Drivers/STM32F1xx_HAL_Driver/Inc/stm32f1xx_ll_rcc.h ****   * @{
 735:Drivers/STM32F1xx_HAL_Driver/Inc/stm32f1xx_ll_rcc.h ****   */
 736:Drivers/STM32F1xx_HAL_Driver/Inc/stm32f1xx_ll_rcc.h **** 
 737:Drivers/STM32F1xx_HAL_Driver/Inc/stm32f1xx_ll_rcc.h **** /**
 738:Drivers/STM32F1xx_HAL_Driver/Inc/stm32f1xx_ll_rcc.h ****   * @brief  Enable the Clock Security System.
 739:Drivers/STM32F1xx_HAL_Driver/Inc/stm32f1xx_ll_rcc.h ****   * @rmtoll CR           CSSON         LL_RCC_HSE_EnableCSS
 740:Drivers/STM32F1xx_HAL_Driver/Inc/stm32f1xx_ll_rcc.h ****   * @retval None
 741:Drivers/STM32F1xx_HAL_Driver/Inc/stm32f1xx_ll_rcc.h ****   */
 742:Drivers/STM32F1xx_HAL_Driver/Inc/stm32f1xx_ll_rcc.h **** __STATIC_INLINE void LL_RCC_HSE_EnableCSS(void)
 743:Drivers/STM32F1xx_HAL_Driver/Inc/stm32f1xx_ll_rcc.h **** {
 744:Drivers/STM32F1xx_HAL_Driver/Inc/stm32f1xx_ll_rcc.h ****   SET_BIT(RCC->CR, RCC_CR_CSSON);
 745:Drivers/STM32F1xx_HAL_Driver/Inc/stm32f1xx_ll_rcc.h **** }
 746:Drivers/STM32F1xx_HAL_Driver/Inc/stm32f1xx_ll_rcc.h **** 
 747:Drivers/STM32F1xx_HAL_Driver/Inc/stm32f1xx_ll_rcc.h **** /**
 748:Drivers/STM32F1xx_HAL_Driver/Inc/stm32f1xx_ll_rcc.h ****   * @brief  Enable HSE external oscillator (HSE Bypass)
 749:Drivers/STM32F1xx_HAL_Driver/Inc/stm32f1xx_ll_rcc.h ****   * @rmtoll CR           HSEBYP        LL_RCC_HSE_EnableBypass
 750:Drivers/STM32F1xx_HAL_Driver/Inc/stm32f1xx_ll_rcc.h ****   * @retval None
 751:Drivers/STM32F1xx_HAL_Driver/Inc/stm32f1xx_ll_rcc.h ****   */
 752:Drivers/STM32F1xx_HAL_Driver/Inc/stm32f1xx_ll_rcc.h **** __STATIC_INLINE void LL_RCC_HSE_EnableBypass(void)
 753:Drivers/STM32F1xx_HAL_Driver/Inc/stm32f1xx_ll_rcc.h **** {
  26              		.loc 1 753 1
  27              		.cfi_startproc
  28              		@ args = 0, pretend = 0, frame = 0
  29              		@ frame_needed = 1, uses_anonymous_args = 0
  30              		@ link register save eliminated.
  31 0000 80B4     		push	{r7}
  32              	.LCFI0:
  33              		.cfi_def_cfa_offset 4
  34              		.cfi_offset 7, -4
  35 0002 00AF     		add	r7, sp, #0
  36              	.LCFI1:
  37              		.cfi_def_cfa_register 7
 754:Drivers/STM32F1xx_HAL_Driver/Inc/stm32f1xx_ll_rcc.h ****   SET_BIT(RCC->CR, RCC_CR_HSEBYP);
  38              		.loc 1 754 3
  39 0004 044B     		ldr	r3, .L2
  40 0006 1B68     		ldr	r3, [r3]
  41 0008 034A     		ldr	r2, .L2
  42 000a 43F48023 		orr	r3, r3, #262144
  43 000e 1360     		str	r3, [r2]
 755:Drivers/STM32F1xx_HAL_Driver/Inc/stm32f1xx_ll_rcc.h **** }
  44              		.loc 1 755 1
ARM GAS  /tmp/ccmpGAeh.s 			page 15


  45 0010 00BF     		nop
  46 0012 BD46     		mov	sp, r7
  47              	.LCFI2:
  48              		.cfi_def_cfa_register 13
  49              		@ sp needed
  50 0014 80BC     		pop	{r7}
  51              	.LCFI3:
  52              		.cfi_restore 7
  53              		.cfi_def_cfa_offset 0
  54 0016 7047     		bx	lr
  55              	.L3:
  56              		.align	2
  57              	.L2:
  58 0018 00100240 		.word	1073876992
  59              		.cfi_endproc
  60              	.LFE66:
  62              		.section	.text.LL_RCC_HSE_DisableBypass,"ax",%progbits
  63              		.align	1
  64              		.syntax unified
  65              		.thumb
  66              		.thumb_func
  68              	LL_RCC_HSE_DisableBypass:
  69              	.LFB67:
 756:Drivers/STM32F1xx_HAL_Driver/Inc/stm32f1xx_ll_rcc.h **** 
 757:Drivers/STM32F1xx_HAL_Driver/Inc/stm32f1xx_ll_rcc.h **** /**
 758:Drivers/STM32F1xx_HAL_Driver/Inc/stm32f1xx_ll_rcc.h ****   * @brief  Disable HSE external oscillator (HSE Bypass)
 759:Drivers/STM32F1xx_HAL_Driver/Inc/stm32f1xx_ll_rcc.h ****   * @rmtoll CR           HSEBYP        LL_RCC_HSE_DisableBypass
 760:Drivers/STM32F1xx_HAL_Driver/Inc/stm32f1xx_ll_rcc.h ****   * @retval None
 761:Drivers/STM32F1xx_HAL_Driver/Inc/stm32f1xx_ll_rcc.h ****   */
 762:Drivers/STM32F1xx_HAL_Driver/Inc/stm32f1xx_ll_rcc.h **** __STATIC_INLINE void LL_RCC_HSE_DisableBypass(void)
 763:Drivers/STM32F1xx_HAL_Driver/Inc/stm32f1xx_ll_rcc.h **** {
  70              		.loc 1 763 1
  71              		.cfi_startproc
  72              		@ args = 0, pretend = 0, frame = 0
  73              		@ frame_needed = 1, uses_anonymous_args = 0
  74              		@ link register save eliminated.
  75 0000 80B4     		push	{r7}
  76              	.LCFI4:
  77              		.cfi_def_cfa_offset 4
  78              		.cfi_offset 7, -4
  79 0002 00AF     		add	r7, sp, #0
  80              	.LCFI5:
  81              		.cfi_def_cfa_register 7
 764:Drivers/STM32F1xx_HAL_Driver/Inc/stm32f1xx_ll_rcc.h ****   CLEAR_BIT(RCC->CR, RCC_CR_HSEBYP);
  82              		.loc 1 764 3
  83 0004 044B     		ldr	r3, .L5
  84 0006 1B68     		ldr	r3, [r3]
  85 0008 034A     		ldr	r2, .L5
  86 000a 23F48023 		bic	r3, r3, #262144
  87 000e 1360     		str	r3, [r2]
 765:Drivers/STM32F1xx_HAL_Driver/Inc/stm32f1xx_ll_rcc.h **** }
  88              		.loc 1 765 1
  89 0010 00BF     		nop
  90 0012 BD46     		mov	sp, r7
  91              	.LCFI6:
  92              		.cfi_def_cfa_register 13
  93              		@ sp needed
ARM GAS  /tmp/ccmpGAeh.s 			page 16


  94 0014 80BC     		pop	{r7}
  95              	.LCFI7:
  96              		.cfi_restore 7
  97              		.cfi_def_cfa_offset 0
  98 0016 7047     		bx	lr
  99              	.L6:
 100              		.align	2
 101              	.L5:
 102 0018 00100240 		.word	1073876992
 103              		.cfi_endproc
 104              	.LFE67:
 106              		.section	.text.LL_RCC_HSE_Enable,"ax",%progbits
 107              		.align	1
 108              		.syntax unified
 109              		.thumb
 110              		.thumb_func
 112              	LL_RCC_HSE_Enable:
 113              	.LFB68:
 766:Drivers/STM32F1xx_HAL_Driver/Inc/stm32f1xx_ll_rcc.h **** 
 767:Drivers/STM32F1xx_HAL_Driver/Inc/stm32f1xx_ll_rcc.h **** /**
 768:Drivers/STM32F1xx_HAL_Driver/Inc/stm32f1xx_ll_rcc.h ****   * @brief  Enable HSE crystal oscillator (HSE ON)
 769:Drivers/STM32F1xx_HAL_Driver/Inc/stm32f1xx_ll_rcc.h ****   * @rmtoll CR           HSEON         LL_RCC_HSE_Enable
 770:Drivers/STM32F1xx_HAL_Driver/Inc/stm32f1xx_ll_rcc.h ****   * @retval None
 771:Drivers/STM32F1xx_HAL_Driver/Inc/stm32f1xx_ll_rcc.h ****   */
 772:Drivers/STM32F1xx_HAL_Driver/Inc/stm32f1xx_ll_rcc.h **** __STATIC_INLINE void LL_RCC_HSE_Enable(void)
 773:Drivers/STM32F1xx_HAL_Driver/Inc/stm32f1xx_ll_rcc.h **** {
 114              		.loc 1 773 1
 115              		.cfi_startproc
 116              		@ args = 0, pretend = 0, frame = 0
 117              		@ frame_needed = 1, uses_anonymous_args = 0
 118              		@ link register save eliminated.
 119 0000 80B4     		push	{r7}
 120              	.LCFI8:
 121              		.cfi_def_cfa_offset 4
 122              		.cfi_offset 7, -4
 123 0002 00AF     		add	r7, sp, #0
 124              	.LCFI9:
 125              		.cfi_def_cfa_register 7
 774:Drivers/STM32F1xx_HAL_Driver/Inc/stm32f1xx_ll_rcc.h ****   SET_BIT(RCC->CR, RCC_CR_HSEON);
 126              		.loc 1 774 3
 127 0004 044B     		ldr	r3, .L8
 128 0006 1B68     		ldr	r3, [r3]
 129 0008 034A     		ldr	r2, .L8
 130 000a 43F48033 		orr	r3, r3, #65536
 131 000e 1360     		str	r3, [r2]
 775:Drivers/STM32F1xx_HAL_Driver/Inc/stm32f1xx_ll_rcc.h **** }
 132              		.loc 1 775 1
 133 0010 00BF     		nop
 134 0012 BD46     		mov	sp, r7
 135              	.LCFI10:
 136              		.cfi_def_cfa_register 13
 137              		@ sp needed
 138 0014 80BC     		pop	{r7}
 139              	.LCFI11:
 140              		.cfi_restore 7
 141              		.cfi_def_cfa_offset 0
 142 0016 7047     		bx	lr
ARM GAS  /tmp/ccmpGAeh.s 			page 17


 143              	.L9:
 144              		.align	2
 145              	.L8:
 146 0018 00100240 		.word	1073876992
 147              		.cfi_endproc
 148              	.LFE68:
 150              		.section	.text.LL_RCC_HSE_IsReady,"ax",%progbits
 151              		.align	1
 152              		.syntax unified
 153              		.thumb
 154              		.thumb_func
 156              	LL_RCC_HSE_IsReady:
 157              	.LFB70:
 776:Drivers/STM32F1xx_HAL_Driver/Inc/stm32f1xx_ll_rcc.h **** 
 777:Drivers/STM32F1xx_HAL_Driver/Inc/stm32f1xx_ll_rcc.h **** /**
 778:Drivers/STM32F1xx_HAL_Driver/Inc/stm32f1xx_ll_rcc.h ****   * @brief  Disable HSE crystal oscillator (HSE ON)
 779:Drivers/STM32F1xx_HAL_Driver/Inc/stm32f1xx_ll_rcc.h ****   * @rmtoll CR           HSEON         LL_RCC_HSE_Disable
 780:Drivers/STM32F1xx_HAL_Driver/Inc/stm32f1xx_ll_rcc.h ****   * @retval None
 781:Drivers/STM32F1xx_HAL_Driver/Inc/stm32f1xx_ll_rcc.h ****   */
 782:Drivers/STM32F1xx_HAL_Driver/Inc/stm32f1xx_ll_rcc.h **** __STATIC_INLINE void LL_RCC_HSE_Disable(void)
 783:Drivers/STM32F1xx_HAL_Driver/Inc/stm32f1xx_ll_rcc.h **** {
 784:Drivers/STM32F1xx_HAL_Driver/Inc/stm32f1xx_ll_rcc.h ****   CLEAR_BIT(RCC->CR, RCC_CR_HSEON);
 785:Drivers/STM32F1xx_HAL_Driver/Inc/stm32f1xx_ll_rcc.h **** }
 786:Drivers/STM32F1xx_HAL_Driver/Inc/stm32f1xx_ll_rcc.h **** 
 787:Drivers/STM32F1xx_HAL_Driver/Inc/stm32f1xx_ll_rcc.h **** /**
 788:Drivers/STM32F1xx_HAL_Driver/Inc/stm32f1xx_ll_rcc.h ****   * @brief  Check if HSE oscillator Ready
 789:Drivers/STM32F1xx_HAL_Driver/Inc/stm32f1xx_ll_rcc.h ****   * @rmtoll CR           HSERDY        LL_RCC_HSE_IsReady
 790:Drivers/STM32F1xx_HAL_Driver/Inc/stm32f1xx_ll_rcc.h ****   * @retval State of bit (1 or 0).
 791:Drivers/STM32F1xx_HAL_Driver/Inc/stm32f1xx_ll_rcc.h ****   */
 792:Drivers/STM32F1xx_HAL_Driver/Inc/stm32f1xx_ll_rcc.h **** __STATIC_INLINE uint32_t LL_RCC_HSE_IsReady(void)
 793:Drivers/STM32F1xx_HAL_Driver/Inc/stm32f1xx_ll_rcc.h **** {
 158              		.loc 1 793 1
 159              		.cfi_startproc
 160              		@ args = 0, pretend = 0, frame = 0
 161              		@ frame_needed = 1, uses_anonymous_args = 0
 162              		@ link register save eliminated.
 163 0000 80B4     		push	{r7}
 164              	.LCFI12:
 165              		.cfi_def_cfa_offset 4
 166              		.cfi_offset 7, -4
 167 0002 00AF     		add	r7, sp, #0
 168              	.LCFI13:
 169              		.cfi_def_cfa_register 7
 794:Drivers/STM32F1xx_HAL_Driver/Inc/stm32f1xx_ll_rcc.h ****   return (READ_BIT(RCC->CR, RCC_CR_HSERDY) == (RCC_CR_HSERDY));
 170              		.loc 1 794 11
 171 0004 064B     		ldr	r3, .L12
 172 0006 1B68     		ldr	r3, [r3]
 173 0008 03F40033 		and	r3, r3, #131072
 174              		.loc 1 794 44
 175 000c B3F5003F 		cmp	r3, #131072
 176 0010 0CBF     		ite	eq
 177 0012 0123     		moveq	r3, #1
 178 0014 0023     		movne	r3, #0
 179 0016 DBB2     		uxtb	r3, r3
 795:Drivers/STM32F1xx_HAL_Driver/Inc/stm32f1xx_ll_rcc.h **** }
 180              		.loc 1 795 1
 181 0018 1846     		mov	r0, r3
ARM GAS  /tmp/ccmpGAeh.s 			page 18


 182 001a BD46     		mov	sp, r7
 183              	.LCFI14:
 184              		.cfi_def_cfa_register 13
 185              		@ sp needed
 186 001c 80BC     		pop	{r7}
 187              	.LCFI15:
 188              		.cfi_restore 7
 189              		.cfi_def_cfa_offset 0
 190 001e 7047     		bx	lr
 191              	.L13:
 192              		.align	2
 193              	.L12:
 194 0020 00100240 		.word	1073876992
 195              		.cfi_endproc
 196              	.LFE70:
 198              		.section	.text.LL_RCC_HSI_Enable,"ax",%progbits
 199              		.align	1
 200              		.syntax unified
 201              		.thumb
 202              		.thumb_func
 204              	LL_RCC_HSI_Enable:
 205              	.LFB71:
 796:Drivers/STM32F1xx_HAL_Driver/Inc/stm32f1xx_ll_rcc.h **** 
 797:Drivers/STM32F1xx_HAL_Driver/Inc/stm32f1xx_ll_rcc.h **** #if defined(RCC_CFGR2_PREDIV2)
 798:Drivers/STM32F1xx_HAL_Driver/Inc/stm32f1xx_ll_rcc.h **** /**
 799:Drivers/STM32F1xx_HAL_Driver/Inc/stm32f1xx_ll_rcc.h ****   * @brief  Get PREDIV2 division factor
 800:Drivers/STM32F1xx_HAL_Driver/Inc/stm32f1xx_ll_rcc.h ****   * @rmtoll CFGR2        PREDIV2       LL_RCC_HSE_GetPrediv2
 801:Drivers/STM32F1xx_HAL_Driver/Inc/stm32f1xx_ll_rcc.h ****   * @retval Returned value can be one of the following values:
 802:Drivers/STM32F1xx_HAL_Driver/Inc/stm32f1xx_ll_rcc.h ****   *         @arg @ref LL_RCC_HSE_PREDIV2_DIV_1
 803:Drivers/STM32F1xx_HAL_Driver/Inc/stm32f1xx_ll_rcc.h ****   *         @arg @ref LL_RCC_HSE_PREDIV2_DIV_2
 804:Drivers/STM32F1xx_HAL_Driver/Inc/stm32f1xx_ll_rcc.h ****   *         @arg @ref LL_RCC_HSE_PREDIV2_DIV_3
 805:Drivers/STM32F1xx_HAL_Driver/Inc/stm32f1xx_ll_rcc.h ****   *         @arg @ref LL_RCC_HSE_PREDIV2_DIV_4
 806:Drivers/STM32F1xx_HAL_Driver/Inc/stm32f1xx_ll_rcc.h ****   *         @arg @ref LL_RCC_HSE_PREDIV2_DIV_5
 807:Drivers/STM32F1xx_HAL_Driver/Inc/stm32f1xx_ll_rcc.h ****   *         @arg @ref LL_RCC_HSE_PREDIV2_DIV_6
 808:Drivers/STM32F1xx_HAL_Driver/Inc/stm32f1xx_ll_rcc.h ****   *         @arg @ref LL_RCC_HSE_PREDIV2_DIV_7
 809:Drivers/STM32F1xx_HAL_Driver/Inc/stm32f1xx_ll_rcc.h ****   *         @arg @ref LL_RCC_HSE_PREDIV2_DIV_8
 810:Drivers/STM32F1xx_HAL_Driver/Inc/stm32f1xx_ll_rcc.h ****   *         @arg @ref LL_RCC_HSE_PREDIV2_DIV_9
 811:Drivers/STM32F1xx_HAL_Driver/Inc/stm32f1xx_ll_rcc.h ****   *         @arg @ref LL_RCC_HSE_PREDIV2_DIV_10
 812:Drivers/STM32F1xx_HAL_Driver/Inc/stm32f1xx_ll_rcc.h ****   *         @arg @ref LL_RCC_HSE_PREDIV2_DIV_11
 813:Drivers/STM32F1xx_HAL_Driver/Inc/stm32f1xx_ll_rcc.h ****   *         @arg @ref LL_RCC_HSE_PREDIV2_DIV_12
 814:Drivers/STM32F1xx_HAL_Driver/Inc/stm32f1xx_ll_rcc.h ****   *         @arg @ref LL_RCC_HSE_PREDIV2_DIV_13
 815:Drivers/STM32F1xx_HAL_Driver/Inc/stm32f1xx_ll_rcc.h ****   *         @arg @ref LL_RCC_HSE_PREDIV2_DIV_14
 816:Drivers/STM32F1xx_HAL_Driver/Inc/stm32f1xx_ll_rcc.h ****   *         @arg @ref LL_RCC_HSE_PREDIV2_DIV_15
 817:Drivers/STM32F1xx_HAL_Driver/Inc/stm32f1xx_ll_rcc.h ****   *         @arg @ref LL_RCC_HSE_PREDIV2_DIV_16
 818:Drivers/STM32F1xx_HAL_Driver/Inc/stm32f1xx_ll_rcc.h ****   */
 819:Drivers/STM32F1xx_HAL_Driver/Inc/stm32f1xx_ll_rcc.h **** __STATIC_INLINE uint32_t LL_RCC_HSE_GetPrediv2(void)
 820:Drivers/STM32F1xx_HAL_Driver/Inc/stm32f1xx_ll_rcc.h **** {
 821:Drivers/STM32F1xx_HAL_Driver/Inc/stm32f1xx_ll_rcc.h ****   return (uint32_t)(READ_BIT(RCC->CFGR2, RCC_CFGR2_PREDIV2));
 822:Drivers/STM32F1xx_HAL_Driver/Inc/stm32f1xx_ll_rcc.h **** }
 823:Drivers/STM32F1xx_HAL_Driver/Inc/stm32f1xx_ll_rcc.h **** #endif /* RCC_CFGR2_PREDIV2 */
 824:Drivers/STM32F1xx_HAL_Driver/Inc/stm32f1xx_ll_rcc.h **** 
 825:Drivers/STM32F1xx_HAL_Driver/Inc/stm32f1xx_ll_rcc.h **** /**
 826:Drivers/STM32F1xx_HAL_Driver/Inc/stm32f1xx_ll_rcc.h ****   * @}
 827:Drivers/STM32F1xx_HAL_Driver/Inc/stm32f1xx_ll_rcc.h ****   */
 828:Drivers/STM32F1xx_HAL_Driver/Inc/stm32f1xx_ll_rcc.h **** 
 829:Drivers/STM32F1xx_HAL_Driver/Inc/stm32f1xx_ll_rcc.h **** /** @defgroup RCC_LL_EF_HSI HSI
 830:Drivers/STM32F1xx_HAL_Driver/Inc/stm32f1xx_ll_rcc.h ****   * @{
ARM GAS  /tmp/ccmpGAeh.s 			page 19


 831:Drivers/STM32F1xx_HAL_Driver/Inc/stm32f1xx_ll_rcc.h ****   */
 832:Drivers/STM32F1xx_HAL_Driver/Inc/stm32f1xx_ll_rcc.h **** 
 833:Drivers/STM32F1xx_HAL_Driver/Inc/stm32f1xx_ll_rcc.h **** /**
 834:Drivers/STM32F1xx_HAL_Driver/Inc/stm32f1xx_ll_rcc.h ****   * @brief  Enable HSI oscillator
 835:Drivers/STM32F1xx_HAL_Driver/Inc/stm32f1xx_ll_rcc.h ****   * @rmtoll CR           HSION         LL_RCC_HSI_Enable
 836:Drivers/STM32F1xx_HAL_Driver/Inc/stm32f1xx_ll_rcc.h ****   * @retval None
 837:Drivers/STM32F1xx_HAL_Driver/Inc/stm32f1xx_ll_rcc.h ****   */
 838:Drivers/STM32F1xx_HAL_Driver/Inc/stm32f1xx_ll_rcc.h **** __STATIC_INLINE void LL_RCC_HSI_Enable(void)
 839:Drivers/STM32F1xx_HAL_Driver/Inc/stm32f1xx_ll_rcc.h **** {
 206              		.loc 1 839 1
 207              		.cfi_startproc
 208              		@ args = 0, pretend = 0, frame = 0
 209              		@ frame_needed = 1, uses_anonymous_args = 0
 210              		@ link register save eliminated.
 211 0000 80B4     		push	{r7}
 212              	.LCFI16:
 213              		.cfi_def_cfa_offset 4
 214              		.cfi_offset 7, -4
 215 0002 00AF     		add	r7, sp, #0
 216              	.LCFI17:
 217              		.cfi_def_cfa_register 7
 840:Drivers/STM32F1xx_HAL_Driver/Inc/stm32f1xx_ll_rcc.h ****   SET_BIT(RCC->CR, RCC_CR_HSION);
 218              		.loc 1 840 3
 219 0004 044B     		ldr	r3, .L15
 220 0006 1B68     		ldr	r3, [r3]
 221 0008 034A     		ldr	r2, .L15
 222 000a 43F00103 		orr	r3, r3, #1
 223 000e 1360     		str	r3, [r2]
 841:Drivers/STM32F1xx_HAL_Driver/Inc/stm32f1xx_ll_rcc.h **** }
 224              		.loc 1 841 1
 225 0010 00BF     		nop
 226 0012 BD46     		mov	sp, r7
 227              	.LCFI18:
 228              		.cfi_def_cfa_register 13
 229              		@ sp needed
 230 0014 80BC     		pop	{r7}
 231              	.LCFI19:
 232              		.cfi_restore 7
 233              		.cfi_def_cfa_offset 0
 234 0016 7047     		bx	lr
 235              	.L16:
 236              		.align	2
 237              	.L15:
 238 0018 00100240 		.word	1073876992
 239              		.cfi_endproc
 240              	.LFE71:
 242              		.section	.text.LL_RCC_HSI_IsReady,"ax",%progbits
 243              		.align	1
 244              		.syntax unified
 245              		.thumb
 246              		.thumb_func
 248              	LL_RCC_HSI_IsReady:
 249              	.LFB73:
 842:Drivers/STM32F1xx_HAL_Driver/Inc/stm32f1xx_ll_rcc.h **** 
 843:Drivers/STM32F1xx_HAL_Driver/Inc/stm32f1xx_ll_rcc.h **** /**
 844:Drivers/STM32F1xx_HAL_Driver/Inc/stm32f1xx_ll_rcc.h ****   * @brief  Disable HSI oscillator
 845:Drivers/STM32F1xx_HAL_Driver/Inc/stm32f1xx_ll_rcc.h ****   * @rmtoll CR           HSION         LL_RCC_HSI_Disable
ARM GAS  /tmp/ccmpGAeh.s 			page 20


 846:Drivers/STM32F1xx_HAL_Driver/Inc/stm32f1xx_ll_rcc.h ****   * @retval None
 847:Drivers/STM32F1xx_HAL_Driver/Inc/stm32f1xx_ll_rcc.h ****   */
 848:Drivers/STM32F1xx_HAL_Driver/Inc/stm32f1xx_ll_rcc.h **** __STATIC_INLINE void LL_RCC_HSI_Disable(void)
 849:Drivers/STM32F1xx_HAL_Driver/Inc/stm32f1xx_ll_rcc.h **** {
 850:Drivers/STM32F1xx_HAL_Driver/Inc/stm32f1xx_ll_rcc.h ****   CLEAR_BIT(RCC->CR, RCC_CR_HSION);
 851:Drivers/STM32F1xx_HAL_Driver/Inc/stm32f1xx_ll_rcc.h **** }
 852:Drivers/STM32F1xx_HAL_Driver/Inc/stm32f1xx_ll_rcc.h **** 
 853:Drivers/STM32F1xx_HAL_Driver/Inc/stm32f1xx_ll_rcc.h **** /**
 854:Drivers/STM32F1xx_HAL_Driver/Inc/stm32f1xx_ll_rcc.h ****   * @brief  Check if HSI clock is ready
 855:Drivers/STM32F1xx_HAL_Driver/Inc/stm32f1xx_ll_rcc.h ****   * @rmtoll CR           HSIRDY        LL_RCC_HSI_IsReady
 856:Drivers/STM32F1xx_HAL_Driver/Inc/stm32f1xx_ll_rcc.h ****   * @retval State of bit (1 or 0).
 857:Drivers/STM32F1xx_HAL_Driver/Inc/stm32f1xx_ll_rcc.h ****   */
 858:Drivers/STM32F1xx_HAL_Driver/Inc/stm32f1xx_ll_rcc.h **** __STATIC_INLINE uint32_t LL_RCC_HSI_IsReady(void)
 859:Drivers/STM32F1xx_HAL_Driver/Inc/stm32f1xx_ll_rcc.h **** {
 250              		.loc 1 859 1
 251              		.cfi_startproc
 252              		@ args = 0, pretend = 0, frame = 0
 253              		@ frame_needed = 1, uses_anonymous_args = 0
 254              		@ link register save eliminated.
 255 0000 80B4     		push	{r7}
 256              	.LCFI20:
 257              		.cfi_def_cfa_offset 4
 258              		.cfi_offset 7, -4
 259 0002 00AF     		add	r7, sp, #0
 260              	.LCFI21:
 261              		.cfi_def_cfa_register 7
 860:Drivers/STM32F1xx_HAL_Driver/Inc/stm32f1xx_ll_rcc.h ****   return (READ_BIT(RCC->CR, RCC_CR_HSIRDY) == (RCC_CR_HSIRDY));
 262              		.loc 1 860 11
 263 0004 064B     		ldr	r3, .L19
 264 0006 1B68     		ldr	r3, [r3]
 265 0008 03F00203 		and	r3, r3, #2
 266              		.loc 1 860 44
 267 000c 022B     		cmp	r3, #2
 268 000e 0CBF     		ite	eq
 269 0010 0123     		moveq	r3, #1
 270 0012 0023     		movne	r3, #0
 271 0014 DBB2     		uxtb	r3, r3
 861:Drivers/STM32F1xx_HAL_Driver/Inc/stm32f1xx_ll_rcc.h **** }
 272              		.loc 1 861 1
 273 0016 1846     		mov	r0, r3
 274 0018 BD46     		mov	sp, r7
 275              	.LCFI22:
 276              		.cfi_def_cfa_register 13
 277              		@ sp needed
 278 001a 80BC     		pop	{r7}
 279              	.LCFI23:
 280              		.cfi_restore 7
 281              		.cfi_def_cfa_offset 0
 282 001c 7047     		bx	lr
 283              	.L20:
 284 001e 00BF     		.align	2
 285              	.L19:
 286 0020 00100240 		.word	1073876992
 287              		.cfi_endproc
 288              	.LFE73:
 290              		.section	.text.LL_RCC_SetSysClkSource,"ax",%progbits
 291              		.align	1
ARM GAS  /tmp/ccmpGAeh.s 			page 21


 292              		.syntax unified
 293              		.thumb
 294              		.thumb_func
 296              	LL_RCC_SetSysClkSource:
 297              	.LFB85:
 862:Drivers/STM32F1xx_HAL_Driver/Inc/stm32f1xx_ll_rcc.h **** 
 863:Drivers/STM32F1xx_HAL_Driver/Inc/stm32f1xx_ll_rcc.h **** /**
 864:Drivers/STM32F1xx_HAL_Driver/Inc/stm32f1xx_ll_rcc.h ****   * @brief  Get HSI Calibration value
 865:Drivers/STM32F1xx_HAL_Driver/Inc/stm32f1xx_ll_rcc.h ****   * @note When HSITRIM is written, HSICAL is updated with the sum of
 866:Drivers/STM32F1xx_HAL_Driver/Inc/stm32f1xx_ll_rcc.h ****   *       HSITRIM and the factory trim value
 867:Drivers/STM32F1xx_HAL_Driver/Inc/stm32f1xx_ll_rcc.h ****   * @rmtoll CR        HSICAL        LL_RCC_HSI_GetCalibration
 868:Drivers/STM32F1xx_HAL_Driver/Inc/stm32f1xx_ll_rcc.h ****   * @retval Between Min_Data = 0x00 and Max_Data = 0xFF
 869:Drivers/STM32F1xx_HAL_Driver/Inc/stm32f1xx_ll_rcc.h ****   */
 870:Drivers/STM32F1xx_HAL_Driver/Inc/stm32f1xx_ll_rcc.h **** __STATIC_INLINE uint32_t LL_RCC_HSI_GetCalibration(void)
 871:Drivers/STM32F1xx_HAL_Driver/Inc/stm32f1xx_ll_rcc.h **** {
 872:Drivers/STM32F1xx_HAL_Driver/Inc/stm32f1xx_ll_rcc.h ****   return (uint32_t)(READ_BIT(RCC->CR, RCC_CR_HSICAL) >> RCC_CR_HSICAL_Pos);
 873:Drivers/STM32F1xx_HAL_Driver/Inc/stm32f1xx_ll_rcc.h **** }
 874:Drivers/STM32F1xx_HAL_Driver/Inc/stm32f1xx_ll_rcc.h **** 
 875:Drivers/STM32F1xx_HAL_Driver/Inc/stm32f1xx_ll_rcc.h **** /**
 876:Drivers/STM32F1xx_HAL_Driver/Inc/stm32f1xx_ll_rcc.h ****   * @brief  Set HSI Calibration trimming
 877:Drivers/STM32F1xx_HAL_Driver/Inc/stm32f1xx_ll_rcc.h ****   * @note user-programmable trimming value that is added to the HSICAL
 878:Drivers/STM32F1xx_HAL_Driver/Inc/stm32f1xx_ll_rcc.h ****   * @note Default value is 16, which, when added to the HSICAL value,
 879:Drivers/STM32F1xx_HAL_Driver/Inc/stm32f1xx_ll_rcc.h ****   *       should trim the HSI to 16 MHz +/- 1 %
 880:Drivers/STM32F1xx_HAL_Driver/Inc/stm32f1xx_ll_rcc.h ****   * @rmtoll CR        HSITRIM       LL_RCC_HSI_SetCalibTrimming
 881:Drivers/STM32F1xx_HAL_Driver/Inc/stm32f1xx_ll_rcc.h ****   * @param  Value between Min_Data = 0x00 and Max_Data = 0x1F
 882:Drivers/STM32F1xx_HAL_Driver/Inc/stm32f1xx_ll_rcc.h ****   * @retval None
 883:Drivers/STM32F1xx_HAL_Driver/Inc/stm32f1xx_ll_rcc.h ****   */
 884:Drivers/STM32F1xx_HAL_Driver/Inc/stm32f1xx_ll_rcc.h **** __STATIC_INLINE void LL_RCC_HSI_SetCalibTrimming(uint32_t Value)
 885:Drivers/STM32F1xx_HAL_Driver/Inc/stm32f1xx_ll_rcc.h **** {
 886:Drivers/STM32F1xx_HAL_Driver/Inc/stm32f1xx_ll_rcc.h ****   MODIFY_REG(RCC->CR, RCC_CR_HSITRIM, Value << RCC_CR_HSITRIM_Pos);
 887:Drivers/STM32F1xx_HAL_Driver/Inc/stm32f1xx_ll_rcc.h **** }
 888:Drivers/STM32F1xx_HAL_Driver/Inc/stm32f1xx_ll_rcc.h **** 
 889:Drivers/STM32F1xx_HAL_Driver/Inc/stm32f1xx_ll_rcc.h **** /**
 890:Drivers/STM32F1xx_HAL_Driver/Inc/stm32f1xx_ll_rcc.h ****   * @brief  Get HSI Calibration trimming
 891:Drivers/STM32F1xx_HAL_Driver/Inc/stm32f1xx_ll_rcc.h ****   * @rmtoll CR        HSITRIM       LL_RCC_HSI_GetCalibTrimming
 892:Drivers/STM32F1xx_HAL_Driver/Inc/stm32f1xx_ll_rcc.h ****   * @retval Between Min_Data = 0x00 and Max_Data = 0x1F
 893:Drivers/STM32F1xx_HAL_Driver/Inc/stm32f1xx_ll_rcc.h ****   */
 894:Drivers/STM32F1xx_HAL_Driver/Inc/stm32f1xx_ll_rcc.h **** __STATIC_INLINE uint32_t LL_RCC_HSI_GetCalibTrimming(void)
 895:Drivers/STM32F1xx_HAL_Driver/Inc/stm32f1xx_ll_rcc.h **** {
 896:Drivers/STM32F1xx_HAL_Driver/Inc/stm32f1xx_ll_rcc.h ****   return (uint32_t)(READ_BIT(RCC->CR, RCC_CR_HSITRIM) >> RCC_CR_HSITRIM_Pos);
 897:Drivers/STM32F1xx_HAL_Driver/Inc/stm32f1xx_ll_rcc.h **** }
 898:Drivers/STM32F1xx_HAL_Driver/Inc/stm32f1xx_ll_rcc.h **** 
 899:Drivers/STM32F1xx_HAL_Driver/Inc/stm32f1xx_ll_rcc.h **** /**
 900:Drivers/STM32F1xx_HAL_Driver/Inc/stm32f1xx_ll_rcc.h ****   * @}
 901:Drivers/STM32F1xx_HAL_Driver/Inc/stm32f1xx_ll_rcc.h ****   */
 902:Drivers/STM32F1xx_HAL_Driver/Inc/stm32f1xx_ll_rcc.h **** 
 903:Drivers/STM32F1xx_HAL_Driver/Inc/stm32f1xx_ll_rcc.h **** /** @defgroup RCC_LL_EF_LSE LSE
 904:Drivers/STM32F1xx_HAL_Driver/Inc/stm32f1xx_ll_rcc.h ****   * @{
 905:Drivers/STM32F1xx_HAL_Driver/Inc/stm32f1xx_ll_rcc.h ****   */
 906:Drivers/STM32F1xx_HAL_Driver/Inc/stm32f1xx_ll_rcc.h **** 
 907:Drivers/STM32F1xx_HAL_Driver/Inc/stm32f1xx_ll_rcc.h **** /**
 908:Drivers/STM32F1xx_HAL_Driver/Inc/stm32f1xx_ll_rcc.h ****   * @brief  Enable  Low Speed External (LSE) crystal.
 909:Drivers/STM32F1xx_HAL_Driver/Inc/stm32f1xx_ll_rcc.h ****   * @rmtoll BDCR         LSEON         LL_RCC_LSE_Enable
 910:Drivers/STM32F1xx_HAL_Driver/Inc/stm32f1xx_ll_rcc.h ****   * @retval None
 911:Drivers/STM32F1xx_HAL_Driver/Inc/stm32f1xx_ll_rcc.h ****   */
 912:Drivers/STM32F1xx_HAL_Driver/Inc/stm32f1xx_ll_rcc.h **** __STATIC_INLINE void LL_RCC_LSE_Enable(void)
 913:Drivers/STM32F1xx_HAL_Driver/Inc/stm32f1xx_ll_rcc.h **** {
ARM GAS  /tmp/ccmpGAeh.s 			page 22


 914:Drivers/STM32F1xx_HAL_Driver/Inc/stm32f1xx_ll_rcc.h ****   SET_BIT(RCC->BDCR, RCC_BDCR_LSEON);
 915:Drivers/STM32F1xx_HAL_Driver/Inc/stm32f1xx_ll_rcc.h **** }
 916:Drivers/STM32F1xx_HAL_Driver/Inc/stm32f1xx_ll_rcc.h **** 
 917:Drivers/STM32F1xx_HAL_Driver/Inc/stm32f1xx_ll_rcc.h **** /**
 918:Drivers/STM32F1xx_HAL_Driver/Inc/stm32f1xx_ll_rcc.h ****   * @brief  Disable  Low Speed External (LSE) crystal.
 919:Drivers/STM32F1xx_HAL_Driver/Inc/stm32f1xx_ll_rcc.h ****   * @rmtoll BDCR         LSEON         LL_RCC_LSE_Disable
 920:Drivers/STM32F1xx_HAL_Driver/Inc/stm32f1xx_ll_rcc.h ****   * @retval None
 921:Drivers/STM32F1xx_HAL_Driver/Inc/stm32f1xx_ll_rcc.h ****   */
 922:Drivers/STM32F1xx_HAL_Driver/Inc/stm32f1xx_ll_rcc.h **** __STATIC_INLINE void LL_RCC_LSE_Disable(void)
 923:Drivers/STM32F1xx_HAL_Driver/Inc/stm32f1xx_ll_rcc.h **** {
 924:Drivers/STM32F1xx_HAL_Driver/Inc/stm32f1xx_ll_rcc.h ****   CLEAR_BIT(RCC->BDCR, RCC_BDCR_LSEON);
 925:Drivers/STM32F1xx_HAL_Driver/Inc/stm32f1xx_ll_rcc.h **** }
 926:Drivers/STM32F1xx_HAL_Driver/Inc/stm32f1xx_ll_rcc.h **** 
 927:Drivers/STM32F1xx_HAL_Driver/Inc/stm32f1xx_ll_rcc.h **** /**
 928:Drivers/STM32F1xx_HAL_Driver/Inc/stm32f1xx_ll_rcc.h ****   * @brief  Enable external clock source (LSE bypass).
 929:Drivers/STM32F1xx_HAL_Driver/Inc/stm32f1xx_ll_rcc.h ****   * @rmtoll BDCR         LSEBYP        LL_RCC_LSE_EnableBypass
 930:Drivers/STM32F1xx_HAL_Driver/Inc/stm32f1xx_ll_rcc.h ****   * @retval None
 931:Drivers/STM32F1xx_HAL_Driver/Inc/stm32f1xx_ll_rcc.h ****   */
 932:Drivers/STM32F1xx_HAL_Driver/Inc/stm32f1xx_ll_rcc.h **** __STATIC_INLINE void LL_RCC_LSE_EnableBypass(void)
 933:Drivers/STM32F1xx_HAL_Driver/Inc/stm32f1xx_ll_rcc.h **** {
 934:Drivers/STM32F1xx_HAL_Driver/Inc/stm32f1xx_ll_rcc.h ****   SET_BIT(RCC->BDCR, RCC_BDCR_LSEBYP);
 935:Drivers/STM32F1xx_HAL_Driver/Inc/stm32f1xx_ll_rcc.h **** }
 936:Drivers/STM32F1xx_HAL_Driver/Inc/stm32f1xx_ll_rcc.h **** 
 937:Drivers/STM32F1xx_HAL_Driver/Inc/stm32f1xx_ll_rcc.h **** /**
 938:Drivers/STM32F1xx_HAL_Driver/Inc/stm32f1xx_ll_rcc.h ****   * @brief  Disable external clock source (LSE bypass).
 939:Drivers/STM32F1xx_HAL_Driver/Inc/stm32f1xx_ll_rcc.h ****   * @rmtoll BDCR         LSEBYP        LL_RCC_LSE_DisableBypass
 940:Drivers/STM32F1xx_HAL_Driver/Inc/stm32f1xx_ll_rcc.h ****   * @retval None
 941:Drivers/STM32F1xx_HAL_Driver/Inc/stm32f1xx_ll_rcc.h ****   */
 942:Drivers/STM32F1xx_HAL_Driver/Inc/stm32f1xx_ll_rcc.h **** __STATIC_INLINE void LL_RCC_LSE_DisableBypass(void)
 943:Drivers/STM32F1xx_HAL_Driver/Inc/stm32f1xx_ll_rcc.h **** {
 944:Drivers/STM32F1xx_HAL_Driver/Inc/stm32f1xx_ll_rcc.h ****   CLEAR_BIT(RCC->BDCR, RCC_BDCR_LSEBYP);
 945:Drivers/STM32F1xx_HAL_Driver/Inc/stm32f1xx_ll_rcc.h **** }
 946:Drivers/STM32F1xx_HAL_Driver/Inc/stm32f1xx_ll_rcc.h **** 
 947:Drivers/STM32F1xx_HAL_Driver/Inc/stm32f1xx_ll_rcc.h **** /**
 948:Drivers/STM32F1xx_HAL_Driver/Inc/stm32f1xx_ll_rcc.h ****   * @brief  Check if LSE oscillator Ready
 949:Drivers/STM32F1xx_HAL_Driver/Inc/stm32f1xx_ll_rcc.h ****   * @rmtoll BDCR         LSERDY        LL_RCC_LSE_IsReady
 950:Drivers/STM32F1xx_HAL_Driver/Inc/stm32f1xx_ll_rcc.h ****   * @retval State of bit (1 or 0).
 951:Drivers/STM32F1xx_HAL_Driver/Inc/stm32f1xx_ll_rcc.h ****   */
 952:Drivers/STM32F1xx_HAL_Driver/Inc/stm32f1xx_ll_rcc.h **** __STATIC_INLINE uint32_t LL_RCC_LSE_IsReady(void)
 953:Drivers/STM32F1xx_HAL_Driver/Inc/stm32f1xx_ll_rcc.h **** {
 954:Drivers/STM32F1xx_HAL_Driver/Inc/stm32f1xx_ll_rcc.h ****   return (READ_BIT(RCC->BDCR, RCC_BDCR_LSERDY) == (RCC_BDCR_LSERDY));
 955:Drivers/STM32F1xx_HAL_Driver/Inc/stm32f1xx_ll_rcc.h **** }
 956:Drivers/STM32F1xx_HAL_Driver/Inc/stm32f1xx_ll_rcc.h **** 
 957:Drivers/STM32F1xx_HAL_Driver/Inc/stm32f1xx_ll_rcc.h **** /**
 958:Drivers/STM32F1xx_HAL_Driver/Inc/stm32f1xx_ll_rcc.h ****   * @}
 959:Drivers/STM32F1xx_HAL_Driver/Inc/stm32f1xx_ll_rcc.h ****   */
 960:Drivers/STM32F1xx_HAL_Driver/Inc/stm32f1xx_ll_rcc.h **** 
 961:Drivers/STM32F1xx_HAL_Driver/Inc/stm32f1xx_ll_rcc.h **** /** @defgroup RCC_LL_EF_LSI LSI
 962:Drivers/STM32F1xx_HAL_Driver/Inc/stm32f1xx_ll_rcc.h ****   * @{
 963:Drivers/STM32F1xx_HAL_Driver/Inc/stm32f1xx_ll_rcc.h ****   */
 964:Drivers/STM32F1xx_HAL_Driver/Inc/stm32f1xx_ll_rcc.h **** 
 965:Drivers/STM32F1xx_HAL_Driver/Inc/stm32f1xx_ll_rcc.h **** /**
 966:Drivers/STM32F1xx_HAL_Driver/Inc/stm32f1xx_ll_rcc.h ****   * @brief  Enable LSI Oscillator
 967:Drivers/STM32F1xx_HAL_Driver/Inc/stm32f1xx_ll_rcc.h ****   * @rmtoll CSR          LSION         LL_RCC_LSI_Enable
 968:Drivers/STM32F1xx_HAL_Driver/Inc/stm32f1xx_ll_rcc.h ****   * @retval None
 969:Drivers/STM32F1xx_HAL_Driver/Inc/stm32f1xx_ll_rcc.h ****   */
 970:Drivers/STM32F1xx_HAL_Driver/Inc/stm32f1xx_ll_rcc.h **** __STATIC_INLINE void LL_RCC_LSI_Enable(void)
ARM GAS  /tmp/ccmpGAeh.s 			page 23


 971:Drivers/STM32F1xx_HAL_Driver/Inc/stm32f1xx_ll_rcc.h **** {
 972:Drivers/STM32F1xx_HAL_Driver/Inc/stm32f1xx_ll_rcc.h ****   SET_BIT(RCC->CSR, RCC_CSR_LSION);
 973:Drivers/STM32F1xx_HAL_Driver/Inc/stm32f1xx_ll_rcc.h **** }
 974:Drivers/STM32F1xx_HAL_Driver/Inc/stm32f1xx_ll_rcc.h **** 
 975:Drivers/STM32F1xx_HAL_Driver/Inc/stm32f1xx_ll_rcc.h **** /**
 976:Drivers/STM32F1xx_HAL_Driver/Inc/stm32f1xx_ll_rcc.h ****   * @brief  Disable LSI Oscillator
 977:Drivers/STM32F1xx_HAL_Driver/Inc/stm32f1xx_ll_rcc.h ****   * @rmtoll CSR          LSION         LL_RCC_LSI_Disable
 978:Drivers/STM32F1xx_HAL_Driver/Inc/stm32f1xx_ll_rcc.h ****   * @retval None
 979:Drivers/STM32F1xx_HAL_Driver/Inc/stm32f1xx_ll_rcc.h ****   */
 980:Drivers/STM32F1xx_HAL_Driver/Inc/stm32f1xx_ll_rcc.h **** __STATIC_INLINE void LL_RCC_LSI_Disable(void)
 981:Drivers/STM32F1xx_HAL_Driver/Inc/stm32f1xx_ll_rcc.h **** {
 982:Drivers/STM32F1xx_HAL_Driver/Inc/stm32f1xx_ll_rcc.h ****   CLEAR_BIT(RCC->CSR, RCC_CSR_LSION);
 983:Drivers/STM32F1xx_HAL_Driver/Inc/stm32f1xx_ll_rcc.h **** }
 984:Drivers/STM32F1xx_HAL_Driver/Inc/stm32f1xx_ll_rcc.h **** 
 985:Drivers/STM32F1xx_HAL_Driver/Inc/stm32f1xx_ll_rcc.h **** /**
 986:Drivers/STM32F1xx_HAL_Driver/Inc/stm32f1xx_ll_rcc.h ****   * @brief  Check if LSI is Ready
 987:Drivers/STM32F1xx_HAL_Driver/Inc/stm32f1xx_ll_rcc.h ****   * @rmtoll CSR          LSIRDY        LL_RCC_LSI_IsReady
 988:Drivers/STM32F1xx_HAL_Driver/Inc/stm32f1xx_ll_rcc.h ****   * @retval State of bit (1 or 0).
 989:Drivers/STM32F1xx_HAL_Driver/Inc/stm32f1xx_ll_rcc.h ****   */
 990:Drivers/STM32F1xx_HAL_Driver/Inc/stm32f1xx_ll_rcc.h **** __STATIC_INLINE uint32_t LL_RCC_LSI_IsReady(void)
 991:Drivers/STM32F1xx_HAL_Driver/Inc/stm32f1xx_ll_rcc.h **** {
 992:Drivers/STM32F1xx_HAL_Driver/Inc/stm32f1xx_ll_rcc.h ****   return (READ_BIT(RCC->CSR, RCC_CSR_LSIRDY) == (RCC_CSR_LSIRDY));
 993:Drivers/STM32F1xx_HAL_Driver/Inc/stm32f1xx_ll_rcc.h **** }
 994:Drivers/STM32F1xx_HAL_Driver/Inc/stm32f1xx_ll_rcc.h **** 
 995:Drivers/STM32F1xx_HAL_Driver/Inc/stm32f1xx_ll_rcc.h **** /**
 996:Drivers/STM32F1xx_HAL_Driver/Inc/stm32f1xx_ll_rcc.h ****   * @}
 997:Drivers/STM32F1xx_HAL_Driver/Inc/stm32f1xx_ll_rcc.h ****   */
 998:Drivers/STM32F1xx_HAL_Driver/Inc/stm32f1xx_ll_rcc.h **** 
 999:Drivers/STM32F1xx_HAL_Driver/Inc/stm32f1xx_ll_rcc.h **** /** @defgroup RCC_LL_EF_System System
1000:Drivers/STM32F1xx_HAL_Driver/Inc/stm32f1xx_ll_rcc.h ****   * @{
1001:Drivers/STM32F1xx_HAL_Driver/Inc/stm32f1xx_ll_rcc.h ****   */
1002:Drivers/STM32F1xx_HAL_Driver/Inc/stm32f1xx_ll_rcc.h **** 
1003:Drivers/STM32F1xx_HAL_Driver/Inc/stm32f1xx_ll_rcc.h **** /**
1004:Drivers/STM32F1xx_HAL_Driver/Inc/stm32f1xx_ll_rcc.h ****   * @brief  Configure the system clock source
1005:Drivers/STM32F1xx_HAL_Driver/Inc/stm32f1xx_ll_rcc.h ****   * @rmtoll CFGR         SW            LL_RCC_SetSysClkSource
1006:Drivers/STM32F1xx_HAL_Driver/Inc/stm32f1xx_ll_rcc.h ****   * @param  Source This parameter can be one of the following values:
1007:Drivers/STM32F1xx_HAL_Driver/Inc/stm32f1xx_ll_rcc.h ****   *         @arg @ref LL_RCC_SYS_CLKSOURCE_HSI
1008:Drivers/STM32F1xx_HAL_Driver/Inc/stm32f1xx_ll_rcc.h ****   *         @arg @ref LL_RCC_SYS_CLKSOURCE_HSE
1009:Drivers/STM32F1xx_HAL_Driver/Inc/stm32f1xx_ll_rcc.h ****   *         @arg @ref LL_RCC_SYS_CLKSOURCE_PLL
1010:Drivers/STM32F1xx_HAL_Driver/Inc/stm32f1xx_ll_rcc.h ****   * @retval None
1011:Drivers/STM32F1xx_HAL_Driver/Inc/stm32f1xx_ll_rcc.h ****   */
1012:Drivers/STM32F1xx_HAL_Driver/Inc/stm32f1xx_ll_rcc.h **** __STATIC_INLINE void LL_RCC_SetSysClkSource(uint32_t Source)
1013:Drivers/STM32F1xx_HAL_Driver/Inc/stm32f1xx_ll_rcc.h **** {
 298              		.loc 1 1013 1
 299              		.cfi_startproc
 300              		@ args = 0, pretend = 0, frame = 8
 301              		@ frame_needed = 1, uses_anonymous_args = 0
 302              		@ link register save eliminated.
 303 0000 80B4     		push	{r7}
 304              	.LCFI24:
 305              		.cfi_def_cfa_offset 4
 306              		.cfi_offset 7, -4
 307 0002 83B0     		sub	sp, sp, #12
 308              	.LCFI25:
 309              		.cfi_def_cfa_offset 16
 310 0004 00AF     		add	r7, sp, #0
 311              	.LCFI26:
ARM GAS  /tmp/ccmpGAeh.s 			page 24


 312              		.cfi_def_cfa_register 7
 313 0006 7860     		str	r0, [r7, #4]
1014:Drivers/STM32F1xx_HAL_Driver/Inc/stm32f1xx_ll_rcc.h ****   MODIFY_REG(RCC->CFGR, RCC_CFGR_SW, Source);
 314              		.loc 1 1014 3
 315 0008 064B     		ldr	r3, .L22
 316 000a 5B68     		ldr	r3, [r3, #4]
 317 000c 23F00302 		bic	r2, r3, #3
 318 0010 0449     		ldr	r1, .L22
 319 0012 7B68     		ldr	r3, [r7, #4]
 320 0014 1343     		orrs	r3, r3, r2
 321 0016 4B60     		str	r3, [r1, #4]
1015:Drivers/STM32F1xx_HAL_Driver/Inc/stm32f1xx_ll_rcc.h **** }
 322              		.loc 1 1015 1
 323 0018 00BF     		nop
 324 001a 0C37     		adds	r7, r7, #12
 325              	.LCFI27:
 326              		.cfi_def_cfa_offset 4
 327 001c BD46     		mov	sp, r7
 328              	.LCFI28:
 329              		.cfi_def_cfa_register 13
 330              		@ sp needed
 331 001e 80BC     		pop	{r7}
 332              	.LCFI29:
 333              		.cfi_restore 7
 334              		.cfi_def_cfa_offset 0
 335 0020 7047     		bx	lr
 336              	.L23:
 337 0022 00BF     		.align	2
 338              	.L22:
 339 0024 00100240 		.word	1073876992
 340              		.cfi_endproc
 341              	.LFE85:
 343              		.section	.text.LL_RCC_GetSysClkSource,"ax",%progbits
 344              		.align	1
 345              		.syntax unified
 346              		.thumb
 347              		.thumb_func
 349              	LL_RCC_GetSysClkSource:
 350              	.LFB86:
1016:Drivers/STM32F1xx_HAL_Driver/Inc/stm32f1xx_ll_rcc.h **** 
1017:Drivers/STM32F1xx_HAL_Driver/Inc/stm32f1xx_ll_rcc.h **** /**
1018:Drivers/STM32F1xx_HAL_Driver/Inc/stm32f1xx_ll_rcc.h ****   * @brief  Get the system clock source
1019:Drivers/STM32F1xx_HAL_Driver/Inc/stm32f1xx_ll_rcc.h ****   * @rmtoll CFGR         SWS           LL_RCC_GetSysClkSource
1020:Drivers/STM32F1xx_HAL_Driver/Inc/stm32f1xx_ll_rcc.h ****   * @retval Returned value can be one of the following values:
1021:Drivers/STM32F1xx_HAL_Driver/Inc/stm32f1xx_ll_rcc.h ****   *         @arg @ref LL_RCC_SYS_CLKSOURCE_STATUS_HSI
1022:Drivers/STM32F1xx_HAL_Driver/Inc/stm32f1xx_ll_rcc.h ****   *         @arg @ref LL_RCC_SYS_CLKSOURCE_STATUS_HSE
1023:Drivers/STM32F1xx_HAL_Driver/Inc/stm32f1xx_ll_rcc.h ****   *         @arg @ref LL_RCC_SYS_CLKSOURCE_STATUS_PLL
1024:Drivers/STM32F1xx_HAL_Driver/Inc/stm32f1xx_ll_rcc.h ****   */
1025:Drivers/STM32F1xx_HAL_Driver/Inc/stm32f1xx_ll_rcc.h **** __STATIC_INLINE uint32_t LL_RCC_GetSysClkSource(void)
1026:Drivers/STM32F1xx_HAL_Driver/Inc/stm32f1xx_ll_rcc.h **** {
 351              		.loc 1 1026 1
 352              		.cfi_startproc
 353              		@ args = 0, pretend = 0, frame = 0
 354              		@ frame_needed = 1, uses_anonymous_args = 0
 355              		@ link register save eliminated.
 356 0000 80B4     		push	{r7}
 357              	.LCFI30:
ARM GAS  /tmp/ccmpGAeh.s 			page 25


 358              		.cfi_def_cfa_offset 4
 359              		.cfi_offset 7, -4
 360 0002 00AF     		add	r7, sp, #0
 361              	.LCFI31:
 362              		.cfi_def_cfa_register 7
1027:Drivers/STM32F1xx_HAL_Driver/Inc/stm32f1xx_ll_rcc.h ****   return (uint32_t)(READ_BIT(RCC->CFGR, RCC_CFGR_SWS));
 363              		.loc 1 1027 21
 364 0004 034B     		ldr	r3, .L26
 365 0006 5B68     		ldr	r3, [r3, #4]
 366              		.loc 1 1027 10
 367 0008 03F00C03 		and	r3, r3, #12
1028:Drivers/STM32F1xx_HAL_Driver/Inc/stm32f1xx_ll_rcc.h **** }
 368              		.loc 1 1028 1
 369 000c 1846     		mov	r0, r3
 370 000e BD46     		mov	sp, r7
 371              	.LCFI32:
 372              		.cfi_def_cfa_register 13
 373              		@ sp needed
 374 0010 80BC     		pop	{r7}
 375              	.LCFI33:
 376              		.cfi_restore 7
 377              		.cfi_def_cfa_offset 0
 378 0012 7047     		bx	lr
 379              	.L27:
 380              		.align	2
 381              	.L26:
 382 0014 00100240 		.word	1073876992
 383              		.cfi_endproc
 384              	.LFE86:
 386              		.section	.text.LL_RCC_SetAHBPrescaler,"ax",%progbits
 387              		.align	1
 388              		.syntax unified
 389              		.thumb
 390              		.thumb_func
 392              	LL_RCC_SetAHBPrescaler:
 393              	.LFB87:
1029:Drivers/STM32F1xx_HAL_Driver/Inc/stm32f1xx_ll_rcc.h **** 
1030:Drivers/STM32F1xx_HAL_Driver/Inc/stm32f1xx_ll_rcc.h **** /**
1031:Drivers/STM32F1xx_HAL_Driver/Inc/stm32f1xx_ll_rcc.h ****   * @brief  Set AHB prescaler
1032:Drivers/STM32F1xx_HAL_Driver/Inc/stm32f1xx_ll_rcc.h ****   * @rmtoll CFGR         HPRE          LL_RCC_SetAHBPrescaler
1033:Drivers/STM32F1xx_HAL_Driver/Inc/stm32f1xx_ll_rcc.h ****   * @param  Prescaler This parameter can be one of the following values:
1034:Drivers/STM32F1xx_HAL_Driver/Inc/stm32f1xx_ll_rcc.h ****   *         @arg @ref LL_RCC_SYSCLK_DIV_1
1035:Drivers/STM32F1xx_HAL_Driver/Inc/stm32f1xx_ll_rcc.h ****   *         @arg @ref LL_RCC_SYSCLK_DIV_2
1036:Drivers/STM32F1xx_HAL_Driver/Inc/stm32f1xx_ll_rcc.h ****   *         @arg @ref LL_RCC_SYSCLK_DIV_4
1037:Drivers/STM32F1xx_HAL_Driver/Inc/stm32f1xx_ll_rcc.h ****   *         @arg @ref LL_RCC_SYSCLK_DIV_8
1038:Drivers/STM32F1xx_HAL_Driver/Inc/stm32f1xx_ll_rcc.h ****   *         @arg @ref LL_RCC_SYSCLK_DIV_16
1039:Drivers/STM32F1xx_HAL_Driver/Inc/stm32f1xx_ll_rcc.h ****   *         @arg @ref LL_RCC_SYSCLK_DIV_64
1040:Drivers/STM32F1xx_HAL_Driver/Inc/stm32f1xx_ll_rcc.h ****   *         @arg @ref LL_RCC_SYSCLK_DIV_128
1041:Drivers/STM32F1xx_HAL_Driver/Inc/stm32f1xx_ll_rcc.h ****   *         @arg @ref LL_RCC_SYSCLK_DIV_256
1042:Drivers/STM32F1xx_HAL_Driver/Inc/stm32f1xx_ll_rcc.h ****   *         @arg @ref LL_RCC_SYSCLK_DIV_512
1043:Drivers/STM32F1xx_HAL_Driver/Inc/stm32f1xx_ll_rcc.h ****   * @retval None
1044:Drivers/STM32F1xx_HAL_Driver/Inc/stm32f1xx_ll_rcc.h ****   */
1045:Drivers/STM32F1xx_HAL_Driver/Inc/stm32f1xx_ll_rcc.h **** __STATIC_INLINE void LL_RCC_SetAHBPrescaler(uint32_t Prescaler)
1046:Drivers/STM32F1xx_HAL_Driver/Inc/stm32f1xx_ll_rcc.h **** {
 394              		.loc 1 1046 1
 395              		.cfi_startproc
 396              		@ args = 0, pretend = 0, frame = 8
ARM GAS  /tmp/ccmpGAeh.s 			page 26


 397              		@ frame_needed = 1, uses_anonymous_args = 0
 398              		@ link register save eliminated.
 399 0000 80B4     		push	{r7}
 400              	.LCFI34:
 401              		.cfi_def_cfa_offset 4
 402              		.cfi_offset 7, -4
 403 0002 83B0     		sub	sp, sp, #12
 404              	.LCFI35:
 405              		.cfi_def_cfa_offset 16
 406 0004 00AF     		add	r7, sp, #0
 407              	.LCFI36:
 408              		.cfi_def_cfa_register 7
 409 0006 7860     		str	r0, [r7, #4]
1047:Drivers/STM32F1xx_HAL_Driver/Inc/stm32f1xx_ll_rcc.h ****   MODIFY_REG(RCC->CFGR, RCC_CFGR_HPRE, Prescaler);
 410              		.loc 1 1047 3
 411 0008 064B     		ldr	r3, .L29
 412 000a 5B68     		ldr	r3, [r3, #4]
 413 000c 23F0F002 		bic	r2, r3, #240
 414 0010 0449     		ldr	r1, .L29
 415 0012 7B68     		ldr	r3, [r7, #4]
 416 0014 1343     		orrs	r3, r3, r2
 417 0016 4B60     		str	r3, [r1, #4]
1048:Drivers/STM32F1xx_HAL_Driver/Inc/stm32f1xx_ll_rcc.h **** }
 418              		.loc 1 1048 1
 419 0018 00BF     		nop
 420 001a 0C37     		adds	r7, r7, #12
 421              	.LCFI37:
 422              		.cfi_def_cfa_offset 4
 423 001c BD46     		mov	sp, r7
 424              	.LCFI38:
 425              		.cfi_def_cfa_register 13
 426              		@ sp needed
 427 001e 80BC     		pop	{r7}
 428              	.LCFI39:
 429              		.cfi_restore 7
 430              		.cfi_def_cfa_offset 0
 431 0020 7047     		bx	lr
 432              	.L30:
 433 0022 00BF     		.align	2
 434              	.L29:
 435 0024 00100240 		.word	1073876992
 436              		.cfi_endproc
 437              	.LFE87:
 439              		.section	.text.LL_RCC_SetAPB1Prescaler,"ax",%progbits
 440              		.align	1
 441              		.syntax unified
 442              		.thumb
 443              		.thumb_func
 445              	LL_RCC_SetAPB1Prescaler:
 446              	.LFB88:
1049:Drivers/STM32F1xx_HAL_Driver/Inc/stm32f1xx_ll_rcc.h **** 
1050:Drivers/STM32F1xx_HAL_Driver/Inc/stm32f1xx_ll_rcc.h **** /**
1051:Drivers/STM32F1xx_HAL_Driver/Inc/stm32f1xx_ll_rcc.h ****   * @brief  Set APB1 prescaler
1052:Drivers/STM32F1xx_HAL_Driver/Inc/stm32f1xx_ll_rcc.h ****   * @rmtoll CFGR         PPRE1         LL_RCC_SetAPB1Prescaler
1053:Drivers/STM32F1xx_HAL_Driver/Inc/stm32f1xx_ll_rcc.h ****   * @param  Prescaler This parameter can be one of the following values:
1054:Drivers/STM32F1xx_HAL_Driver/Inc/stm32f1xx_ll_rcc.h ****   *         @arg @ref LL_RCC_APB1_DIV_1
1055:Drivers/STM32F1xx_HAL_Driver/Inc/stm32f1xx_ll_rcc.h ****   *         @arg @ref LL_RCC_APB1_DIV_2
ARM GAS  /tmp/ccmpGAeh.s 			page 27


1056:Drivers/STM32F1xx_HAL_Driver/Inc/stm32f1xx_ll_rcc.h ****   *         @arg @ref LL_RCC_APB1_DIV_4
1057:Drivers/STM32F1xx_HAL_Driver/Inc/stm32f1xx_ll_rcc.h ****   *         @arg @ref LL_RCC_APB1_DIV_8
1058:Drivers/STM32F1xx_HAL_Driver/Inc/stm32f1xx_ll_rcc.h ****   *         @arg @ref LL_RCC_APB1_DIV_16
1059:Drivers/STM32F1xx_HAL_Driver/Inc/stm32f1xx_ll_rcc.h ****   * @retval None
1060:Drivers/STM32F1xx_HAL_Driver/Inc/stm32f1xx_ll_rcc.h ****   */
1061:Drivers/STM32F1xx_HAL_Driver/Inc/stm32f1xx_ll_rcc.h **** __STATIC_INLINE void LL_RCC_SetAPB1Prescaler(uint32_t Prescaler)
1062:Drivers/STM32F1xx_HAL_Driver/Inc/stm32f1xx_ll_rcc.h **** {
 447              		.loc 1 1062 1
 448              		.cfi_startproc
 449              		@ args = 0, pretend = 0, frame = 8
 450              		@ frame_needed = 1, uses_anonymous_args = 0
 451              		@ link register save eliminated.
 452 0000 80B4     		push	{r7}
 453              	.LCFI40:
 454              		.cfi_def_cfa_offset 4
 455              		.cfi_offset 7, -4
 456 0002 83B0     		sub	sp, sp, #12
 457              	.LCFI41:
 458              		.cfi_def_cfa_offset 16
 459 0004 00AF     		add	r7, sp, #0
 460              	.LCFI42:
 461              		.cfi_def_cfa_register 7
 462 0006 7860     		str	r0, [r7, #4]
1063:Drivers/STM32F1xx_HAL_Driver/Inc/stm32f1xx_ll_rcc.h ****   MODIFY_REG(RCC->CFGR, RCC_CFGR_PPRE1, Prescaler);
 463              		.loc 1 1063 3
 464 0008 064B     		ldr	r3, .L32
 465 000a 5B68     		ldr	r3, [r3, #4]
 466 000c 23F4E062 		bic	r2, r3, #1792
 467 0010 0449     		ldr	r1, .L32
 468 0012 7B68     		ldr	r3, [r7, #4]
 469 0014 1343     		orrs	r3, r3, r2
 470 0016 4B60     		str	r3, [r1, #4]
1064:Drivers/STM32F1xx_HAL_Driver/Inc/stm32f1xx_ll_rcc.h **** }
 471              		.loc 1 1064 1
 472 0018 00BF     		nop
 473 001a 0C37     		adds	r7, r7, #12
 474              	.LCFI43:
 475              		.cfi_def_cfa_offset 4
 476 001c BD46     		mov	sp, r7
 477              	.LCFI44:
 478              		.cfi_def_cfa_register 13
 479              		@ sp needed
 480 001e 80BC     		pop	{r7}
 481              	.LCFI45:
 482              		.cfi_restore 7
 483              		.cfi_def_cfa_offset 0
 484 0020 7047     		bx	lr
 485              	.L33:
 486 0022 00BF     		.align	2
 487              	.L32:
 488 0024 00100240 		.word	1073876992
 489              		.cfi_endproc
 490              	.LFE88:
 492              		.section	.text.LL_RCC_SetAPB2Prescaler,"ax",%progbits
 493              		.align	1
 494              		.syntax unified
 495              		.thumb
ARM GAS  /tmp/ccmpGAeh.s 			page 28


 496              		.thumb_func
 498              	LL_RCC_SetAPB2Prescaler:
 499              	.LFB89:
1065:Drivers/STM32F1xx_HAL_Driver/Inc/stm32f1xx_ll_rcc.h **** 
1066:Drivers/STM32F1xx_HAL_Driver/Inc/stm32f1xx_ll_rcc.h **** /**
1067:Drivers/STM32F1xx_HAL_Driver/Inc/stm32f1xx_ll_rcc.h ****   * @brief  Set APB2 prescaler
1068:Drivers/STM32F1xx_HAL_Driver/Inc/stm32f1xx_ll_rcc.h ****   * @rmtoll CFGR         PPRE2         LL_RCC_SetAPB2Prescaler
1069:Drivers/STM32F1xx_HAL_Driver/Inc/stm32f1xx_ll_rcc.h ****   * @param  Prescaler This parameter can be one of the following values:
1070:Drivers/STM32F1xx_HAL_Driver/Inc/stm32f1xx_ll_rcc.h ****   *         @arg @ref LL_RCC_APB2_DIV_1
1071:Drivers/STM32F1xx_HAL_Driver/Inc/stm32f1xx_ll_rcc.h ****   *         @arg @ref LL_RCC_APB2_DIV_2
1072:Drivers/STM32F1xx_HAL_Driver/Inc/stm32f1xx_ll_rcc.h ****   *         @arg @ref LL_RCC_APB2_DIV_4
1073:Drivers/STM32F1xx_HAL_Driver/Inc/stm32f1xx_ll_rcc.h ****   *         @arg @ref LL_RCC_APB2_DIV_8
1074:Drivers/STM32F1xx_HAL_Driver/Inc/stm32f1xx_ll_rcc.h ****   *         @arg @ref LL_RCC_APB2_DIV_16
1075:Drivers/STM32F1xx_HAL_Driver/Inc/stm32f1xx_ll_rcc.h ****   * @retval None
1076:Drivers/STM32F1xx_HAL_Driver/Inc/stm32f1xx_ll_rcc.h ****   */
1077:Drivers/STM32F1xx_HAL_Driver/Inc/stm32f1xx_ll_rcc.h **** __STATIC_INLINE void LL_RCC_SetAPB2Prescaler(uint32_t Prescaler)
1078:Drivers/STM32F1xx_HAL_Driver/Inc/stm32f1xx_ll_rcc.h **** {
 500              		.loc 1 1078 1
 501              		.cfi_startproc
 502              		@ args = 0, pretend = 0, frame = 8
 503              		@ frame_needed = 1, uses_anonymous_args = 0
 504              		@ link register save eliminated.
 505 0000 80B4     		push	{r7}
 506              	.LCFI46:
 507              		.cfi_def_cfa_offset 4
 508              		.cfi_offset 7, -4
 509 0002 83B0     		sub	sp, sp, #12
 510              	.LCFI47:
 511              		.cfi_def_cfa_offset 16
 512 0004 00AF     		add	r7, sp, #0
 513              	.LCFI48:
 514              		.cfi_def_cfa_register 7
 515 0006 7860     		str	r0, [r7, #4]
1079:Drivers/STM32F1xx_HAL_Driver/Inc/stm32f1xx_ll_rcc.h ****   MODIFY_REG(RCC->CFGR, RCC_CFGR_PPRE2, Prescaler);
 516              		.loc 1 1079 3
 517 0008 064B     		ldr	r3, .L35
 518 000a 5B68     		ldr	r3, [r3, #4]
 519 000c 23F46052 		bic	r2, r3, #14336
 520 0010 0449     		ldr	r1, .L35
 521 0012 7B68     		ldr	r3, [r7, #4]
 522 0014 1343     		orrs	r3, r3, r2
 523 0016 4B60     		str	r3, [r1, #4]
1080:Drivers/STM32F1xx_HAL_Driver/Inc/stm32f1xx_ll_rcc.h **** }
 524              		.loc 1 1080 1
 525 0018 00BF     		nop
 526 001a 0C37     		adds	r7, r7, #12
 527              	.LCFI49:
 528              		.cfi_def_cfa_offset 4
 529 001c BD46     		mov	sp, r7
 530              	.LCFI50:
 531              		.cfi_def_cfa_register 13
 532              		@ sp needed
 533 001e 80BC     		pop	{r7}
 534              	.LCFI51:
 535              		.cfi_restore 7
 536              		.cfi_def_cfa_offset 0
 537 0020 7047     		bx	lr
ARM GAS  /tmp/ccmpGAeh.s 			page 29


 538              	.L36:
 539 0022 00BF     		.align	2
 540              	.L35:
 541 0024 00100240 		.word	1073876992
 542              		.cfi_endproc
 543              	.LFE89:
 545              		.section	.text.LL_RCC_GetAHBPrescaler,"ax",%progbits
 546              		.align	1
 547              		.syntax unified
 548              		.thumb
 549              		.thumb_func
 551              	LL_RCC_GetAHBPrescaler:
 552              	.LFB90:
1081:Drivers/STM32F1xx_HAL_Driver/Inc/stm32f1xx_ll_rcc.h **** 
1082:Drivers/STM32F1xx_HAL_Driver/Inc/stm32f1xx_ll_rcc.h **** /**
1083:Drivers/STM32F1xx_HAL_Driver/Inc/stm32f1xx_ll_rcc.h ****   * @brief  Get AHB prescaler
1084:Drivers/STM32F1xx_HAL_Driver/Inc/stm32f1xx_ll_rcc.h ****   * @rmtoll CFGR         HPRE          LL_RCC_GetAHBPrescaler
1085:Drivers/STM32F1xx_HAL_Driver/Inc/stm32f1xx_ll_rcc.h ****   * @retval Returned value can be one of the following values:
1086:Drivers/STM32F1xx_HAL_Driver/Inc/stm32f1xx_ll_rcc.h ****   *         @arg @ref LL_RCC_SYSCLK_DIV_1
1087:Drivers/STM32F1xx_HAL_Driver/Inc/stm32f1xx_ll_rcc.h ****   *         @arg @ref LL_RCC_SYSCLK_DIV_2
1088:Drivers/STM32F1xx_HAL_Driver/Inc/stm32f1xx_ll_rcc.h ****   *         @arg @ref LL_RCC_SYSCLK_DIV_4
1089:Drivers/STM32F1xx_HAL_Driver/Inc/stm32f1xx_ll_rcc.h ****   *         @arg @ref LL_RCC_SYSCLK_DIV_8
1090:Drivers/STM32F1xx_HAL_Driver/Inc/stm32f1xx_ll_rcc.h ****   *         @arg @ref LL_RCC_SYSCLK_DIV_16
1091:Drivers/STM32F1xx_HAL_Driver/Inc/stm32f1xx_ll_rcc.h ****   *         @arg @ref LL_RCC_SYSCLK_DIV_64
1092:Drivers/STM32F1xx_HAL_Driver/Inc/stm32f1xx_ll_rcc.h ****   *         @arg @ref LL_RCC_SYSCLK_DIV_128
1093:Drivers/STM32F1xx_HAL_Driver/Inc/stm32f1xx_ll_rcc.h ****   *         @arg @ref LL_RCC_SYSCLK_DIV_256
1094:Drivers/STM32F1xx_HAL_Driver/Inc/stm32f1xx_ll_rcc.h ****   *         @arg @ref LL_RCC_SYSCLK_DIV_512
1095:Drivers/STM32F1xx_HAL_Driver/Inc/stm32f1xx_ll_rcc.h ****   */
1096:Drivers/STM32F1xx_HAL_Driver/Inc/stm32f1xx_ll_rcc.h **** __STATIC_INLINE uint32_t LL_RCC_GetAHBPrescaler(void)
1097:Drivers/STM32F1xx_HAL_Driver/Inc/stm32f1xx_ll_rcc.h **** {
 553              		.loc 1 1097 1
 554              		.cfi_startproc
 555              		@ args = 0, pretend = 0, frame = 0
 556              		@ frame_needed = 1, uses_anonymous_args = 0
 557              		@ link register save eliminated.
 558 0000 80B4     		push	{r7}
 559              	.LCFI52:
 560              		.cfi_def_cfa_offset 4
 561              		.cfi_offset 7, -4
 562 0002 00AF     		add	r7, sp, #0
 563              	.LCFI53:
 564              		.cfi_def_cfa_register 7
1098:Drivers/STM32F1xx_HAL_Driver/Inc/stm32f1xx_ll_rcc.h ****   return (uint32_t)(READ_BIT(RCC->CFGR, RCC_CFGR_HPRE));
 565              		.loc 1 1098 21
 566 0004 034B     		ldr	r3, .L39
 567 0006 5B68     		ldr	r3, [r3, #4]
 568              		.loc 1 1098 10
 569 0008 03F0F003 		and	r3, r3, #240
1099:Drivers/STM32F1xx_HAL_Driver/Inc/stm32f1xx_ll_rcc.h **** }
 570              		.loc 1 1099 1
 571 000c 1846     		mov	r0, r3
 572 000e BD46     		mov	sp, r7
 573              	.LCFI54:
 574              		.cfi_def_cfa_register 13
 575              		@ sp needed
 576 0010 80BC     		pop	{r7}
 577              	.LCFI55:
ARM GAS  /tmp/ccmpGAeh.s 			page 30


 578              		.cfi_restore 7
 579              		.cfi_def_cfa_offset 0
 580 0012 7047     		bx	lr
 581              	.L40:
 582              		.align	2
 583              	.L39:
 584 0014 00100240 		.word	1073876992
 585              		.cfi_endproc
 586              	.LFE90:
 588              		.section	.text.LL_RCC_PLL_Enable,"ax",%progbits
 589              		.align	1
 590              		.syntax unified
 591              		.thumb
 592              		.thumb_func
 594              	LL_RCC_PLL_Enable:
 595              	.LFB105:
1100:Drivers/STM32F1xx_HAL_Driver/Inc/stm32f1xx_ll_rcc.h **** 
1101:Drivers/STM32F1xx_HAL_Driver/Inc/stm32f1xx_ll_rcc.h **** /**
1102:Drivers/STM32F1xx_HAL_Driver/Inc/stm32f1xx_ll_rcc.h ****   * @brief  Get APB1 prescaler
1103:Drivers/STM32F1xx_HAL_Driver/Inc/stm32f1xx_ll_rcc.h ****   * @rmtoll CFGR         PPRE1         LL_RCC_GetAPB1Prescaler
1104:Drivers/STM32F1xx_HAL_Driver/Inc/stm32f1xx_ll_rcc.h ****   * @retval Returned value can be one of the following values:
1105:Drivers/STM32F1xx_HAL_Driver/Inc/stm32f1xx_ll_rcc.h ****   *         @arg @ref LL_RCC_APB1_DIV_1
1106:Drivers/STM32F1xx_HAL_Driver/Inc/stm32f1xx_ll_rcc.h ****   *         @arg @ref LL_RCC_APB1_DIV_2
1107:Drivers/STM32F1xx_HAL_Driver/Inc/stm32f1xx_ll_rcc.h ****   *         @arg @ref LL_RCC_APB1_DIV_4
1108:Drivers/STM32F1xx_HAL_Driver/Inc/stm32f1xx_ll_rcc.h ****   *         @arg @ref LL_RCC_APB1_DIV_8
1109:Drivers/STM32F1xx_HAL_Driver/Inc/stm32f1xx_ll_rcc.h ****   *         @arg @ref LL_RCC_APB1_DIV_16
1110:Drivers/STM32F1xx_HAL_Driver/Inc/stm32f1xx_ll_rcc.h ****   */
1111:Drivers/STM32F1xx_HAL_Driver/Inc/stm32f1xx_ll_rcc.h **** __STATIC_INLINE uint32_t LL_RCC_GetAPB1Prescaler(void)
1112:Drivers/STM32F1xx_HAL_Driver/Inc/stm32f1xx_ll_rcc.h **** {
1113:Drivers/STM32F1xx_HAL_Driver/Inc/stm32f1xx_ll_rcc.h ****   return (uint32_t)(READ_BIT(RCC->CFGR, RCC_CFGR_PPRE1));
1114:Drivers/STM32F1xx_HAL_Driver/Inc/stm32f1xx_ll_rcc.h **** }
1115:Drivers/STM32F1xx_HAL_Driver/Inc/stm32f1xx_ll_rcc.h **** 
1116:Drivers/STM32F1xx_HAL_Driver/Inc/stm32f1xx_ll_rcc.h **** /**
1117:Drivers/STM32F1xx_HAL_Driver/Inc/stm32f1xx_ll_rcc.h ****   * @brief  Get APB2 prescaler
1118:Drivers/STM32F1xx_HAL_Driver/Inc/stm32f1xx_ll_rcc.h ****   * @rmtoll CFGR         PPRE2         LL_RCC_GetAPB2Prescaler
1119:Drivers/STM32F1xx_HAL_Driver/Inc/stm32f1xx_ll_rcc.h ****   * @retval Returned value can be one of the following values:
1120:Drivers/STM32F1xx_HAL_Driver/Inc/stm32f1xx_ll_rcc.h ****   *         @arg @ref LL_RCC_APB2_DIV_1
1121:Drivers/STM32F1xx_HAL_Driver/Inc/stm32f1xx_ll_rcc.h ****   *         @arg @ref LL_RCC_APB2_DIV_2
1122:Drivers/STM32F1xx_HAL_Driver/Inc/stm32f1xx_ll_rcc.h ****   *         @arg @ref LL_RCC_APB2_DIV_4
1123:Drivers/STM32F1xx_HAL_Driver/Inc/stm32f1xx_ll_rcc.h ****   *         @arg @ref LL_RCC_APB2_DIV_8
1124:Drivers/STM32F1xx_HAL_Driver/Inc/stm32f1xx_ll_rcc.h ****   *         @arg @ref LL_RCC_APB2_DIV_16
1125:Drivers/STM32F1xx_HAL_Driver/Inc/stm32f1xx_ll_rcc.h ****   */
1126:Drivers/STM32F1xx_HAL_Driver/Inc/stm32f1xx_ll_rcc.h **** __STATIC_INLINE uint32_t LL_RCC_GetAPB2Prescaler(void)
1127:Drivers/STM32F1xx_HAL_Driver/Inc/stm32f1xx_ll_rcc.h **** {
1128:Drivers/STM32F1xx_HAL_Driver/Inc/stm32f1xx_ll_rcc.h ****   return (uint32_t)(READ_BIT(RCC->CFGR, RCC_CFGR_PPRE2));
1129:Drivers/STM32F1xx_HAL_Driver/Inc/stm32f1xx_ll_rcc.h **** }
1130:Drivers/STM32F1xx_HAL_Driver/Inc/stm32f1xx_ll_rcc.h **** 
1131:Drivers/STM32F1xx_HAL_Driver/Inc/stm32f1xx_ll_rcc.h **** /**
1132:Drivers/STM32F1xx_HAL_Driver/Inc/stm32f1xx_ll_rcc.h ****   * @}
1133:Drivers/STM32F1xx_HAL_Driver/Inc/stm32f1xx_ll_rcc.h ****   */
1134:Drivers/STM32F1xx_HAL_Driver/Inc/stm32f1xx_ll_rcc.h **** 
1135:Drivers/STM32F1xx_HAL_Driver/Inc/stm32f1xx_ll_rcc.h **** /** @defgroup RCC_LL_EF_MCO MCO
1136:Drivers/STM32F1xx_HAL_Driver/Inc/stm32f1xx_ll_rcc.h ****   * @{
1137:Drivers/STM32F1xx_HAL_Driver/Inc/stm32f1xx_ll_rcc.h ****   */
1138:Drivers/STM32F1xx_HAL_Driver/Inc/stm32f1xx_ll_rcc.h **** 
1139:Drivers/STM32F1xx_HAL_Driver/Inc/stm32f1xx_ll_rcc.h **** /**
1140:Drivers/STM32F1xx_HAL_Driver/Inc/stm32f1xx_ll_rcc.h ****   * @brief  Configure MCOx
ARM GAS  /tmp/ccmpGAeh.s 			page 31


1141:Drivers/STM32F1xx_HAL_Driver/Inc/stm32f1xx_ll_rcc.h ****   * @rmtoll CFGR         MCO           LL_RCC_ConfigMCO
1142:Drivers/STM32F1xx_HAL_Driver/Inc/stm32f1xx_ll_rcc.h ****   * @param  MCOxSource This parameter can be one of the following values:
1143:Drivers/STM32F1xx_HAL_Driver/Inc/stm32f1xx_ll_rcc.h ****   *         @arg @ref LL_RCC_MCO1SOURCE_NOCLOCK
1144:Drivers/STM32F1xx_HAL_Driver/Inc/stm32f1xx_ll_rcc.h ****   *         @arg @ref LL_RCC_MCO1SOURCE_SYSCLK
1145:Drivers/STM32F1xx_HAL_Driver/Inc/stm32f1xx_ll_rcc.h ****   *         @arg @ref LL_RCC_MCO1SOURCE_HSI
1146:Drivers/STM32F1xx_HAL_Driver/Inc/stm32f1xx_ll_rcc.h ****   *         @arg @ref LL_RCC_MCO1SOURCE_HSE
1147:Drivers/STM32F1xx_HAL_Driver/Inc/stm32f1xx_ll_rcc.h ****   *         @arg @ref LL_RCC_MCO1SOURCE_PLLCLK_DIV_2
1148:Drivers/STM32F1xx_HAL_Driver/Inc/stm32f1xx_ll_rcc.h ****   *         @arg @ref LL_RCC_MCO1SOURCE_PLL2CLK (*)
1149:Drivers/STM32F1xx_HAL_Driver/Inc/stm32f1xx_ll_rcc.h ****   *         @arg @ref LL_RCC_MCO1SOURCE_PLLI2SCLK_DIV2 (*)
1150:Drivers/STM32F1xx_HAL_Driver/Inc/stm32f1xx_ll_rcc.h ****   *         @arg @ref LL_RCC_MCO1SOURCE_EXT_HSE (*)
1151:Drivers/STM32F1xx_HAL_Driver/Inc/stm32f1xx_ll_rcc.h ****   *         @arg @ref LL_RCC_MCO1SOURCE_PLLI2SCLK (*)
1152:Drivers/STM32F1xx_HAL_Driver/Inc/stm32f1xx_ll_rcc.h ****   *
1153:Drivers/STM32F1xx_HAL_Driver/Inc/stm32f1xx_ll_rcc.h ****   *         (*) value not defined in all devices
1154:Drivers/STM32F1xx_HAL_Driver/Inc/stm32f1xx_ll_rcc.h ****   * @retval None
1155:Drivers/STM32F1xx_HAL_Driver/Inc/stm32f1xx_ll_rcc.h ****   */
1156:Drivers/STM32F1xx_HAL_Driver/Inc/stm32f1xx_ll_rcc.h **** __STATIC_INLINE void LL_RCC_ConfigMCO(uint32_t MCOxSource)
1157:Drivers/STM32F1xx_HAL_Driver/Inc/stm32f1xx_ll_rcc.h **** {
1158:Drivers/STM32F1xx_HAL_Driver/Inc/stm32f1xx_ll_rcc.h ****   MODIFY_REG(RCC->CFGR, RCC_CFGR_MCOSEL, MCOxSource);
1159:Drivers/STM32F1xx_HAL_Driver/Inc/stm32f1xx_ll_rcc.h **** }
1160:Drivers/STM32F1xx_HAL_Driver/Inc/stm32f1xx_ll_rcc.h **** 
1161:Drivers/STM32F1xx_HAL_Driver/Inc/stm32f1xx_ll_rcc.h **** /**
1162:Drivers/STM32F1xx_HAL_Driver/Inc/stm32f1xx_ll_rcc.h ****   * @}
1163:Drivers/STM32F1xx_HAL_Driver/Inc/stm32f1xx_ll_rcc.h ****   */
1164:Drivers/STM32F1xx_HAL_Driver/Inc/stm32f1xx_ll_rcc.h **** 
1165:Drivers/STM32F1xx_HAL_Driver/Inc/stm32f1xx_ll_rcc.h **** /** @defgroup RCC_LL_EF_Peripheral_Clock_Source Peripheral Clock Source
1166:Drivers/STM32F1xx_HAL_Driver/Inc/stm32f1xx_ll_rcc.h ****   * @{
1167:Drivers/STM32F1xx_HAL_Driver/Inc/stm32f1xx_ll_rcc.h ****   */
1168:Drivers/STM32F1xx_HAL_Driver/Inc/stm32f1xx_ll_rcc.h **** 
1169:Drivers/STM32F1xx_HAL_Driver/Inc/stm32f1xx_ll_rcc.h **** #if defined(RCC_CFGR2_I2S2SRC)
1170:Drivers/STM32F1xx_HAL_Driver/Inc/stm32f1xx_ll_rcc.h **** /**
1171:Drivers/STM32F1xx_HAL_Driver/Inc/stm32f1xx_ll_rcc.h ****   * @brief  Configure I2Sx clock source
1172:Drivers/STM32F1xx_HAL_Driver/Inc/stm32f1xx_ll_rcc.h ****   * @rmtoll CFGR2        I2S2SRC       LL_RCC_SetI2SClockSource\n
1173:Drivers/STM32F1xx_HAL_Driver/Inc/stm32f1xx_ll_rcc.h ****   *         CFGR2        I2S3SRC       LL_RCC_SetI2SClockSource
1174:Drivers/STM32F1xx_HAL_Driver/Inc/stm32f1xx_ll_rcc.h ****   * @param  I2SxSource This parameter can be one of the following values:
1175:Drivers/STM32F1xx_HAL_Driver/Inc/stm32f1xx_ll_rcc.h ****   *         @arg @ref LL_RCC_I2S2_CLKSOURCE_SYSCLK
1176:Drivers/STM32F1xx_HAL_Driver/Inc/stm32f1xx_ll_rcc.h ****   *         @arg @ref LL_RCC_I2S2_CLKSOURCE_PLLI2S_VCO
1177:Drivers/STM32F1xx_HAL_Driver/Inc/stm32f1xx_ll_rcc.h ****   *         @arg @ref LL_RCC_I2S3_CLKSOURCE_SYSCLK
1178:Drivers/STM32F1xx_HAL_Driver/Inc/stm32f1xx_ll_rcc.h ****   *         @arg @ref LL_RCC_I2S3_CLKSOURCE_PLLI2S_VCO
1179:Drivers/STM32F1xx_HAL_Driver/Inc/stm32f1xx_ll_rcc.h ****   * @retval None
1180:Drivers/STM32F1xx_HAL_Driver/Inc/stm32f1xx_ll_rcc.h ****   */
1181:Drivers/STM32F1xx_HAL_Driver/Inc/stm32f1xx_ll_rcc.h **** __STATIC_INLINE void LL_RCC_SetI2SClockSource(uint32_t I2SxSource)
1182:Drivers/STM32F1xx_HAL_Driver/Inc/stm32f1xx_ll_rcc.h **** {
1183:Drivers/STM32F1xx_HAL_Driver/Inc/stm32f1xx_ll_rcc.h ****   MODIFY_REG(RCC->CFGR2, (I2SxSource & 0xFFFF0000U), (I2SxSource << 16U));
1184:Drivers/STM32F1xx_HAL_Driver/Inc/stm32f1xx_ll_rcc.h **** }
1185:Drivers/STM32F1xx_HAL_Driver/Inc/stm32f1xx_ll_rcc.h **** #endif /* RCC_CFGR2_I2S2SRC */
1186:Drivers/STM32F1xx_HAL_Driver/Inc/stm32f1xx_ll_rcc.h **** 
1187:Drivers/STM32F1xx_HAL_Driver/Inc/stm32f1xx_ll_rcc.h **** #if defined(USB_OTG_FS) || defined(USB)
1188:Drivers/STM32F1xx_HAL_Driver/Inc/stm32f1xx_ll_rcc.h **** /**
1189:Drivers/STM32F1xx_HAL_Driver/Inc/stm32f1xx_ll_rcc.h ****   * @brief  Configure USB clock source
1190:Drivers/STM32F1xx_HAL_Driver/Inc/stm32f1xx_ll_rcc.h ****   * @rmtoll CFGR         OTGFSPRE      LL_RCC_SetUSBClockSource\n
1191:Drivers/STM32F1xx_HAL_Driver/Inc/stm32f1xx_ll_rcc.h ****   *         CFGR         USBPRE        LL_RCC_SetUSBClockSource
1192:Drivers/STM32F1xx_HAL_Driver/Inc/stm32f1xx_ll_rcc.h ****   * @param  USBxSource This parameter can be one of the following values:
1193:Drivers/STM32F1xx_HAL_Driver/Inc/stm32f1xx_ll_rcc.h ****   *         @arg @ref LL_RCC_USB_CLKSOURCE_PLL (*)
1194:Drivers/STM32F1xx_HAL_Driver/Inc/stm32f1xx_ll_rcc.h ****   *         @arg @ref LL_RCC_USB_CLKSOURCE_PLL_DIV_1_5 (*)
1195:Drivers/STM32F1xx_HAL_Driver/Inc/stm32f1xx_ll_rcc.h ****   *         @arg @ref LL_RCC_USB_CLKSOURCE_PLL_DIV_2 (*)
1196:Drivers/STM32F1xx_HAL_Driver/Inc/stm32f1xx_ll_rcc.h ****   *         @arg @ref LL_RCC_USB_CLKSOURCE_PLL_DIV_3 (*)
1197:Drivers/STM32F1xx_HAL_Driver/Inc/stm32f1xx_ll_rcc.h ****   *
ARM GAS  /tmp/ccmpGAeh.s 			page 32


1198:Drivers/STM32F1xx_HAL_Driver/Inc/stm32f1xx_ll_rcc.h ****   *         (*) value not defined in all devices
1199:Drivers/STM32F1xx_HAL_Driver/Inc/stm32f1xx_ll_rcc.h ****   * @retval None
1200:Drivers/STM32F1xx_HAL_Driver/Inc/stm32f1xx_ll_rcc.h ****   */
1201:Drivers/STM32F1xx_HAL_Driver/Inc/stm32f1xx_ll_rcc.h **** __STATIC_INLINE void LL_RCC_SetUSBClockSource(uint32_t USBxSource)
1202:Drivers/STM32F1xx_HAL_Driver/Inc/stm32f1xx_ll_rcc.h **** {
1203:Drivers/STM32F1xx_HAL_Driver/Inc/stm32f1xx_ll_rcc.h **** #if defined(RCC_CFGR_USBPRE)
1204:Drivers/STM32F1xx_HAL_Driver/Inc/stm32f1xx_ll_rcc.h ****   MODIFY_REG(RCC->CFGR, RCC_CFGR_USBPRE, USBxSource);
1205:Drivers/STM32F1xx_HAL_Driver/Inc/stm32f1xx_ll_rcc.h **** #else /*RCC_CFGR_OTGFSPRE*/
1206:Drivers/STM32F1xx_HAL_Driver/Inc/stm32f1xx_ll_rcc.h ****   MODIFY_REG(RCC->CFGR, RCC_CFGR_OTGFSPRE, USBxSource);
1207:Drivers/STM32F1xx_HAL_Driver/Inc/stm32f1xx_ll_rcc.h **** #endif /*RCC_CFGR_USBPRE*/
1208:Drivers/STM32F1xx_HAL_Driver/Inc/stm32f1xx_ll_rcc.h **** }
1209:Drivers/STM32F1xx_HAL_Driver/Inc/stm32f1xx_ll_rcc.h **** #endif /* USB_OTG_FS || USB */
1210:Drivers/STM32F1xx_HAL_Driver/Inc/stm32f1xx_ll_rcc.h **** 
1211:Drivers/STM32F1xx_HAL_Driver/Inc/stm32f1xx_ll_rcc.h **** /**
1212:Drivers/STM32F1xx_HAL_Driver/Inc/stm32f1xx_ll_rcc.h ****   * @brief  Configure ADC clock source
1213:Drivers/STM32F1xx_HAL_Driver/Inc/stm32f1xx_ll_rcc.h ****   * @rmtoll CFGR         ADCPRE        LL_RCC_SetADCClockSource
1214:Drivers/STM32F1xx_HAL_Driver/Inc/stm32f1xx_ll_rcc.h ****   * @param  ADCxSource This parameter can be one of the following values:
1215:Drivers/STM32F1xx_HAL_Driver/Inc/stm32f1xx_ll_rcc.h ****   *         @arg @ref LL_RCC_ADC_CLKSRC_PCLK2_DIV_2
1216:Drivers/STM32F1xx_HAL_Driver/Inc/stm32f1xx_ll_rcc.h ****   *         @arg @ref LL_RCC_ADC_CLKSRC_PCLK2_DIV_4
1217:Drivers/STM32F1xx_HAL_Driver/Inc/stm32f1xx_ll_rcc.h ****   *         @arg @ref LL_RCC_ADC_CLKSRC_PCLK2_DIV_6
1218:Drivers/STM32F1xx_HAL_Driver/Inc/stm32f1xx_ll_rcc.h ****   *         @arg @ref LL_RCC_ADC_CLKSRC_PCLK2_DIV_8
1219:Drivers/STM32F1xx_HAL_Driver/Inc/stm32f1xx_ll_rcc.h ****   * @retval None
1220:Drivers/STM32F1xx_HAL_Driver/Inc/stm32f1xx_ll_rcc.h ****   */
1221:Drivers/STM32F1xx_HAL_Driver/Inc/stm32f1xx_ll_rcc.h **** __STATIC_INLINE void LL_RCC_SetADCClockSource(uint32_t ADCxSource)
1222:Drivers/STM32F1xx_HAL_Driver/Inc/stm32f1xx_ll_rcc.h **** {
1223:Drivers/STM32F1xx_HAL_Driver/Inc/stm32f1xx_ll_rcc.h ****   MODIFY_REG(RCC->CFGR, RCC_CFGR_ADCPRE, ADCxSource);
1224:Drivers/STM32F1xx_HAL_Driver/Inc/stm32f1xx_ll_rcc.h **** }
1225:Drivers/STM32F1xx_HAL_Driver/Inc/stm32f1xx_ll_rcc.h **** 
1226:Drivers/STM32F1xx_HAL_Driver/Inc/stm32f1xx_ll_rcc.h **** #if defined(RCC_CFGR2_I2S2SRC)
1227:Drivers/STM32F1xx_HAL_Driver/Inc/stm32f1xx_ll_rcc.h **** /**
1228:Drivers/STM32F1xx_HAL_Driver/Inc/stm32f1xx_ll_rcc.h ****   * @brief  Get I2Sx clock source
1229:Drivers/STM32F1xx_HAL_Driver/Inc/stm32f1xx_ll_rcc.h ****   * @rmtoll CFGR2        I2S2SRC       LL_RCC_GetI2SClockSource\n
1230:Drivers/STM32F1xx_HAL_Driver/Inc/stm32f1xx_ll_rcc.h ****   *         CFGR2        I2S3SRC       LL_RCC_GetI2SClockSource
1231:Drivers/STM32F1xx_HAL_Driver/Inc/stm32f1xx_ll_rcc.h ****   * @param  I2Sx This parameter can be one of the following values:
1232:Drivers/STM32F1xx_HAL_Driver/Inc/stm32f1xx_ll_rcc.h ****   *         @arg @ref LL_RCC_I2S2_CLKSOURCE
1233:Drivers/STM32F1xx_HAL_Driver/Inc/stm32f1xx_ll_rcc.h ****   *         @arg @ref LL_RCC_I2S3_CLKSOURCE
1234:Drivers/STM32F1xx_HAL_Driver/Inc/stm32f1xx_ll_rcc.h ****   * @retval Returned value can be one of the following values:
1235:Drivers/STM32F1xx_HAL_Driver/Inc/stm32f1xx_ll_rcc.h ****   *         @arg @ref LL_RCC_I2S2_CLKSOURCE_SYSCLK
1236:Drivers/STM32F1xx_HAL_Driver/Inc/stm32f1xx_ll_rcc.h ****   *         @arg @ref LL_RCC_I2S2_CLKSOURCE_PLLI2S_VCO
1237:Drivers/STM32F1xx_HAL_Driver/Inc/stm32f1xx_ll_rcc.h ****   *         @arg @ref LL_RCC_I2S3_CLKSOURCE_SYSCLK
1238:Drivers/STM32F1xx_HAL_Driver/Inc/stm32f1xx_ll_rcc.h ****   *         @arg @ref LL_RCC_I2S3_CLKSOURCE_PLLI2S_VCO
1239:Drivers/STM32F1xx_HAL_Driver/Inc/stm32f1xx_ll_rcc.h ****   */
1240:Drivers/STM32F1xx_HAL_Driver/Inc/stm32f1xx_ll_rcc.h **** __STATIC_INLINE uint32_t LL_RCC_GetI2SClockSource(uint32_t I2Sx)
1241:Drivers/STM32F1xx_HAL_Driver/Inc/stm32f1xx_ll_rcc.h **** {
1242:Drivers/STM32F1xx_HAL_Driver/Inc/stm32f1xx_ll_rcc.h ****   return (uint32_t)(READ_BIT(RCC->CFGR2, I2Sx) >> 16U | I2Sx);
1243:Drivers/STM32F1xx_HAL_Driver/Inc/stm32f1xx_ll_rcc.h **** }
1244:Drivers/STM32F1xx_HAL_Driver/Inc/stm32f1xx_ll_rcc.h **** #endif /* RCC_CFGR2_I2S2SRC */
1245:Drivers/STM32F1xx_HAL_Driver/Inc/stm32f1xx_ll_rcc.h **** 
1246:Drivers/STM32F1xx_HAL_Driver/Inc/stm32f1xx_ll_rcc.h **** #if defined(USB_OTG_FS) || defined(USB)
1247:Drivers/STM32F1xx_HAL_Driver/Inc/stm32f1xx_ll_rcc.h **** /**
1248:Drivers/STM32F1xx_HAL_Driver/Inc/stm32f1xx_ll_rcc.h ****   * @brief  Get USBx clock source
1249:Drivers/STM32F1xx_HAL_Driver/Inc/stm32f1xx_ll_rcc.h ****   * @rmtoll CFGR         OTGFSPRE      LL_RCC_GetUSBClockSource\n
1250:Drivers/STM32F1xx_HAL_Driver/Inc/stm32f1xx_ll_rcc.h ****   *         CFGR         USBPRE        LL_RCC_GetUSBClockSource
1251:Drivers/STM32F1xx_HAL_Driver/Inc/stm32f1xx_ll_rcc.h ****   * @param  USBx This parameter can be one of the following values:
1252:Drivers/STM32F1xx_HAL_Driver/Inc/stm32f1xx_ll_rcc.h ****   *         @arg @ref LL_RCC_USB_CLKSOURCE
1253:Drivers/STM32F1xx_HAL_Driver/Inc/stm32f1xx_ll_rcc.h ****   * @retval Returned value can be one of the following values:
1254:Drivers/STM32F1xx_HAL_Driver/Inc/stm32f1xx_ll_rcc.h ****   *         @arg @ref LL_RCC_USB_CLKSOURCE_PLL (*)
ARM GAS  /tmp/ccmpGAeh.s 			page 33


1255:Drivers/STM32F1xx_HAL_Driver/Inc/stm32f1xx_ll_rcc.h ****   *         @arg @ref LL_RCC_USB_CLKSOURCE_PLL_DIV_1_5 (*)
1256:Drivers/STM32F1xx_HAL_Driver/Inc/stm32f1xx_ll_rcc.h ****   *         @arg @ref LL_RCC_USB_CLKSOURCE_PLL_DIV_2 (*)
1257:Drivers/STM32F1xx_HAL_Driver/Inc/stm32f1xx_ll_rcc.h ****   *         @arg @ref LL_RCC_USB_CLKSOURCE_PLL_DIV_3 (*)
1258:Drivers/STM32F1xx_HAL_Driver/Inc/stm32f1xx_ll_rcc.h ****   *
1259:Drivers/STM32F1xx_HAL_Driver/Inc/stm32f1xx_ll_rcc.h ****   *         (*) value not defined in all devices
1260:Drivers/STM32F1xx_HAL_Driver/Inc/stm32f1xx_ll_rcc.h ****   */
1261:Drivers/STM32F1xx_HAL_Driver/Inc/stm32f1xx_ll_rcc.h **** __STATIC_INLINE uint32_t LL_RCC_GetUSBClockSource(uint32_t USBx)
1262:Drivers/STM32F1xx_HAL_Driver/Inc/stm32f1xx_ll_rcc.h **** {
1263:Drivers/STM32F1xx_HAL_Driver/Inc/stm32f1xx_ll_rcc.h ****   return (uint32_t)(READ_BIT(RCC->CFGR, USBx));
1264:Drivers/STM32F1xx_HAL_Driver/Inc/stm32f1xx_ll_rcc.h **** }
1265:Drivers/STM32F1xx_HAL_Driver/Inc/stm32f1xx_ll_rcc.h **** #endif /* USB_OTG_FS || USB */
1266:Drivers/STM32F1xx_HAL_Driver/Inc/stm32f1xx_ll_rcc.h **** 
1267:Drivers/STM32F1xx_HAL_Driver/Inc/stm32f1xx_ll_rcc.h **** /**
1268:Drivers/STM32F1xx_HAL_Driver/Inc/stm32f1xx_ll_rcc.h ****   * @brief  Get ADCx clock source
1269:Drivers/STM32F1xx_HAL_Driver/Inc/stm32f1xx_ll_rcc.h ****   * @rmtoll CFGR         ADCPRE        LL_RCC_GetADCClockSource
1270:Drivers/STM32F1xx_HAL_Driver/Inc/stm32f1xx_ll_rcc.h ****   * @param  ADCx This parameter can be one of the following values:
1271:Drivers/STM32F1xx_HAL_Driver/Inc/stm32f1xx_ll_rcc.h ****   *         @arg @ref LL_RCC_ADC_CLKSOURCE
1272:Drivers/STM32F1xx_HAL_Driver/Inc/stm32f1xx_ll_rcc.h ****   * @retval Returned value can be one of the following values:
1273:Drivers/STM32F1xx_HAL_Driver/Inc/stm32f1xx_ll_rcc.h ****   *         @arg @ref LL_RCC_ADC_CLKSRC_PCLK2_DIV_2
1274:Drivers/STM32F1xx_HAL_Driver/Inc/stm32f1xx_ll_rcc.h ****   *         @arg @ref LL_RCC_ADC_CLKSRC_PCLK2_DIV_4
1275:Drivers/STM32F1xx_HAL_Driver/Inc/stm32f1xx_ll_rcc.h ****   *         @arg @ref LL_RCC_ADC_CLKSRC_PCLK2_DIV_6
1276:Drivers/STM32F1xx_HAL_Driver/Inc/stm32f1xx_ll_rcc.h ****   *         @arg @ref LL_RCC_ADC_CLKSRC_PCLK2_DIV_8
1277:Drivers/STM32F1xx_HAL_Driver/Inc/stm32f1xx_ll_rcc.h ****   */
1278:Drivers/STM32F1xx_HAL_Driver/Inc/stm32f1xx_ll_rcc.h **** __STATIC_INLINE uint32_t LL_RCC_GetADCClockSource(uint32_t ADCx)
1279:Drivers/STM32F1xx_HAL_Driver/Inc/stm32f1xx_ll_rcc.h **** {
1280:Drivers/STM32F1xx_HAL_Driver/Inc/stm32f1xx_ll_rcc.h ****   return (uint32_t)(READ_BIT(RCC->CFGR, ADCx));
1281:Drivers/STM32F1xx_HAL_Driver/Inc/stm32f1xx_ll_rcc.h **** }
1282:Drivers/STM32F1xx_HAL_Driver/Inc/stm32f1xx_ll_rcc.h **** 
1283:Drivers/STM32F1xx_HAL_Driver/Inc/stm32f1xx_ll_rcc.h **** /**
1284:Drivers/STM32F1xx_HAL_Driver/Inc/stm32f1xx_ll_rcc.h ****   * @}
1285:Drivers/STM32F1xx_HAL_Driver/Inc/stm32f1xx_ll_rcc.h ****   */
1286:Drivers/STM32F1xx_HAL_Driver/Inc/stm32f1xx_ll_rcc.h **** 
1287:Drivers/STM32F1xx_HAL_Driver/Inc/stm32f1xx_ll_rcc.h **** /** @defgroup RCC_LL_EF_RTC RTC
1288:Drivers/STM32F1xx_HAL_Driver/Inc/stm32f1xx_ll_rcc.h ****   * @{
1289:Drivers/STM32F1xx_HAL_Driver/Inc/stm32f1xx_ll_rcc.h ****   */
1290:Drivers/STM32F1xx_HAL_Driver/Inc/stm32f1xx_ll_rcc.h **** 
1291:Drivers/STM32F1xx_HAL_Driver/Inc/stm32f1xx_ll_rcc.h **** /**
1292:Drivers/STM32F1xx_HAL_Driver/Inc/stm32f1xx_ll_rcc.h ****   * @brief  Set RTC Clock Source
1293:Drivers/STM32F1xx_HAL_Driver/Inc/stm32f1xx_ll_rcc.h ****   * @note Once the RTC clock source has been selected, it cannot be changed any more unless
1294:Drivers/STM32F1xx_HAL_Driver/Inc/stm32f1xx_ll_rcc.h ****   *       the Backup domain is reset. The BDRST bit can be used to reset them.
1295:Drivers/STM32F1xx_HAL_Driver/Inc/stm32f1xx_ll_rcc.h ****   * @rmtoll BDCR         RTCSEL        LL_RCC_SetRTCClockSource
1296:Drivers/STM32F1xx_HAL_Driver/Inc/stm32f1xx_ll_rcc.h ****   * @param  Source This parameter can be one of the following values:
1297:Drivers/STM32F1xx_HAL_Driver/Inc/stm32f1xx_ll_rcc.h ****   *         @arg @ref LL_RCC_RTC_CLKSOURCE_NONE
1298:Drivers/STM32F1xx_HAL_Driver/Inc/stm32f1xx_ll_rcc.h ****   *         @arg @ref LL_RCC_RTC_CLKSOURCE_LSE
1299:Drivers/STM32F1xx_HAL_Driver/Inc/stm32f1xx_ll_rcc.h ****   *         @arg @ref LL_RCC_RTC_CLKSOURCE_LSI
1300:Drivers/STM32F1xx_HAL_Driver/Inc/stm32f1xx_ll_rcc.h ****   *         @arg @ref LL_RCC_RTC_CLKSOURCE_HSE_DIV128
1301:Drivers/STM32F1xx_HAL_Driver/Inc/stm32f1xx_ll_rcc.h ****   * @retval None
1302:Drivers/STM32F1xx_HAL_Driver/Inc/stm32f1xx_ll_rcc.h ****   */
1303:Drivers/STM32F1xx_HAL_Driver/Inc/stm32f1xx_ll_rcc.h **** __STATIC_INLINE void LL_RCC_SetRTCClockSource(uint32_t Source)
1304:Drivers/STM32F1xx_HAL_Driver/Inc/stm32f1xx_ll_rcc.h **** {
1305:Drivers/STM32F1xx_HAL_Driver/Inc/stm32f1xx_ll_rcc.h ****   MODIFY_REG(RCC->BDCR, RCC_BDCR_RTCSEL, Source);
1306:Drivers/STM32F1xx_HAL_Driver/Inc/stm32f1xx_ll_rcc.h **** }
1307:Drivers/STM32F1xx_HAL_Driver/Inc/stm32f1xx_ll_rcc.h **** 
1308:Drivers/STM32F1xx_HAL_Driver/Inc/stm32f1xx_ll_rcc.h **** /**
1309:Drivers/STM32F1xx_HAL_Driver/Inc/stm32f1xx_ll_rcc.h ****   * @brief  Get RTC Clock Source
1310:Drivers/STM32F1xx_HAL_Driver/Inc/stm32f1xx_ll_rcc.h ****   * @rmtoll BDCR         RTCSEL        LL_RCC_GetRTCClockSource
1311:Drivers/STM32F1xx_HAL_Driver/Inc/stm32f1xx_ll_rcc.h ****   * @retval Returned value can be one of the following values:
ARM GAS  /tmp/ccmpGAeh.s 			page 34


1312:Drivers/STM32F1xx_HAL_Driver/Inc/stm32f1xx_ll_rcc.h ****   *         @arg @ref LL_RCC_RTC_CLKSOURCE_NONE
1313:Drivers/STM32F1xx_HAL_Driver/Inc/stm32f1xx_ll_rcc.h ****   *         @arg @ref LL_RCC_RTC_CLKSOURCE_LSE
1314:Drivers/STM32F1xx_HAL_Driver/Inc/stm32f1xx_ll_rcc.h ****   *         @arg @ref LL_RCC_RTC_CLKSOURCE_LSI
1315:Drivers/STM32F1xx_HAL_Driver/Inc/stm32f1xx_ll_rcc.h ****   *         @arg @ref LL_RCC_RTC_CLKSOURCE_HSE_DIV128
1316:Drivers/STM32F1xx_HAL_Driver/Inc/stm32f1xx_ll_rcc.h ****   */
1317:Drivers/STM32F1xx_HAL_Driver/Inc/stm32f1xx_ll_rcc.h **** __STATIC_INLINE uint32_t LL_RCC_GetRTCClockSource(void)
1318:Drivers/STM32F1xx_HAL_Driver/Inc/stm32f1xx_ll_rcc.h **** {
1319:Drivers/STM32F1xx_HAL_Driver/Inc/stm32f1xx_ll_rcc.h ****   return (uint32_t)(READ_BIT(RCC->BDCR, RCC_BDCR_RTCSEL));
1320:Drivers/STM32F1xx_HAL_Driver/Inc/stm32f1xx_ll_rcc.h **** }
1321:Drivers/STM32F1xx_HAL_Driver/Inc/stm32f1xx_ll_rcc.h **** 
1322:Drivers/STM32F1xx_HAL_Driver/Inc/stm32f1xx_ll_rcc.h **** /**
1323:Drivers/STM32F1xx_HAL_Driver/Inc/stm32f1xx_ll_rcc.h ****   * @brief  Enable RTC
1324:Drivers/STM32F1xx_HAL_Driver/Inc/stm32f1xx_ll_rcc.h ****   * @rmtoll BDCR         RTCEN         LL_RCC_EnableRTC
1325:Drivers/STM32F1xx_HAL_Driver/Inc/stm32f1xx_ll_rcc.h ****   * @retval None
1326:Drivers/STM32F1xx_HAL_Driver/Inc/stm32f1xx_ll_rcc.h ****   */
1327:Drivers/STM32F1xx_HAL_Driver/Inc/stm32f1xx_ll_rcc.h **** __STATIC_INLINE void LL_RCC_EnableRTC(void)
1328:Drivers/STM32F1xx_HAL_Driver/Inc/stm32f1xx_ll_rcc.h **** {
1329:Drivers/STM32F1xx_HAL_Driver/Inc/stm32f1xx_ll_rcc.h ****   SET_BIT(RCC->BDCR, RCC_BDCR_RTCEN);
1330:Drivers/STM32F1xx_HAL_Driver/Inc/stm32f1xx_ll_rcc.h **** }
1331:Drivers/STM32F1xx_HAL_Driver/Inc/stm32f1xx_ll_rcc.h **** 
1332:Drivers/STM32F1xx_HAL_Driver/Inc/stm32f1xx_ll_rcc.h **** /**
1333:Drivers/STM32F1xx_HAL_Driver/Inc/stm32f1xx_ll_rcc.h ****   * @brief  Disable RTC
1334:Drivers/STM32F1xx_HAL_Driver/Inc/stm32f1xx_ll_rcc.h ****   * @rmtoll BDCR         RTCEN         LL_RCC_DisableRTC
1335:Drivers/STM32F1xx_HAL_Driver/Inc/stm32f1xx_ll_rcc.h ****   * @retval None
1336:Drivers/STM32F1xx_HAL_Driver/Inc/stm32f1xx_ll_rcc.h ****   */
1337:Drivers/STM32F1xx_HAL_Driver/Inc/stm32f1xx_ll_rcc.h **** __STATIC_INLINE void LL_RCC_DisableRTC(void)
1338:Drivers/STM32F1xx_HAL_Driver/Inc/stm32f1xx_ll_rcc.h **** {
1339:Drivers/STM32F1xx_HAL_Driver/Inc/stm32f1xx_ll_rcc.h ****   CLEAR_BIT(RCC->BDCR, RCC_BDCR_RTCEN);
1340:Drivers/STM32F1xx_HAL_Driver/Inc/stm32f1xx_ll_rcc.h **** }
1341:Drivers/STM32F1xx_HAL_Driver/Inc/stm32f1xx_ll_rcc.h **** 
1342:Drivers/STM32F1xx_HAL_Driver/Inc/stm32f1xx_ll_rcc.h **** /**
1343:Drivers/STM32F1xx_HAL_Driver/Inc/stm32f1xx_ll_rcc.h ****   * @brief  Check if RTC has been enabled or not
1344:Drivers/STM32F1xx_HAL_Driver/Inc/stm32f1xx_ll_rcc.h ****   * @rmtoll BDCR         RTCEN         LL_RCC_IsEnabledRTC
1345:Drivers/STM32F1xx_HAL_Driver/Inc/stm32f1xx_ll_rcc.h ****   * @retval State of bit (1 or 0).
1346:Drivers/STM32F1xx_HAL_Driver/Inc/stm32f1xx_ll_rcc.h ****   */
1347:Drivers/STM32F1xx_HAL_Driver/Inc/stm32f1xx_ll_rcc.h **** __STATIC_INLINE uint32_t LL_RCC_IsEnabledRTC(void)
1348:Drivers/STM32F1xx_HAL_Driver/Inc/stm32f1xx_ll_rcc.h **** {
1349:Drivers/STM32F1xx_HAL_Driver/Inc/stm32f1xx_ll_rcc.h ****   return (READ_BIT(RCC->BDCR, RCC_BDCR_RTCEN) == (RCC_BDCR_RTCEN));
1350:Drivers/STM32F1xx_HAL_Driver/Inc/stm32f1xx_ll_rcc.h **** }
1351:Drivers/STM32F1xx_HAL_Driver/Inc/stm32f1xx_ll_rcc.h **** 
1352:Drivers/STM32F1xx_HAL_Driver/Inc/stm32f1xx_ll_rcc.h **** /**
1353:Drivers/STM32F1xx_HAL_Driver/Inc/stm32f1xx_ll_rcc.h ****   * @brief  Force the Backup domain reset
1354:Drivers/STM32F1xx_HAL_Driver/Inc/stm32f1xx_ll_rcc.h ****   * @rmtoll BDCR         BDRST         LL_RCC_ForceBackupDomainReset
1355:Drivers/STM32F1xx_HAL_Driver/Inc/stm32f1xx_ll_rcc.h ****   * @retval None
1356:Drivers/STM32F1xx_HAL_Driver/Inc/stm32f1xx_ll_rcc.h ****   */
1357:Drivers/STM32F1xx_HAL_Driver/Inc/stm32f1xx_ll_rcc.h **** __STATIC_INLINE void LL_RCC_ForceBackupDomainReset(void)
1358:Drivers/STM32F1xx_HAL_Driver/Inc/stm32f1xx_ll_rcc.h **** {
1359:Drivers/STM32F1xx_HAL_Driver/Inc/stm32f1xx_ll_rcc.h ****   SET_BIT(RCC->BDCR, RCC_BDCR_BDRST);
1360:Drivers/STM32F1xx_HAL_Driver/Inc/stm32f1xx_ll_rcc.h **** }
1361:Drivers/STM32F1xx_HAL_Driver/Inc/stm32f1xx_ll_rcc.h **** 
1362:Drivers/STM32F1xx_HAL_Driver/Inc/stm32f1xx_ll_rcc.h **** /**
1363:Drivers/STM32F1xx_HAL_Driver/Inc/stm32f1xx_ll_rcc.h ****   * @brief  Release the Backup domain reset
1364:Drivers/STM32F1xx_HAL_Driver/Inc/stm32f1xx_ll_rcc.h ****   * @rmtoll BDCR         BDRST         LL_RCC_ReleaseBackupDomainReset
1365:Drivers/STM32F1xx_HAL_Driver/Inc/stm32f1xx_ll_rcc.h ****   * @retval None
1366:Drivers/STM32F1xx_HAL_Driver/Inc/stm32f1xx_ll_rcc.h ****   */
1367:Drivers/STM32F1xx_HAL_Driver/Inc/stm32f1xx_ll_rcc.h **** __STATIC_INLINE void LL_RCC_ReleaseBackupDomainReset(void)
1368:Drivers/STM32F1xx_HAL_Driver/Inc/stm32f1xx_ll_rcc.h **** {
ARM GAS  /tmp/ccmpGAeh.s 			page 35


1369:Drivers/STM32F1xx_HAL_Driver/Inc/stm32f1xx_ll_rcc.h ****   CLEAR_BIT(RCC->BDCR, RCC_BDCR_BDRST);
1370:Drivers/STM32F1xx_HAL_Driver/Inc/stm32f1xx_ll_rcc.h **** }
1371:Drivers/STM32F1xx_HAL_Driver/Inc/stm32f1xx_ll_rcc.h **** 
1372:Drivers/STM32F1xx_HAL_Driver/Inc/stm32f1xx_ll_rcc.h **** /**
1373:Drivers/STM32F1xx_HAL_Driver/Inc/stm32f1xx_ll_rcc.h ****   * @}
1374:Drivers/STM32F1xx_HAL_Driver/Inc/stm32f1xx_ll_rcc.h ****   */
1375:Drivers/STM32F1xx_HAL_Driver/Inc/stm32f1xx_ll_rcc.h **** 
1376:Drivers/STM32F1xx_HAL_Driver/Inc/stm32f1xx_ll_rcc.h **** /** @defgroup RCC_LL_EF_PLL PLL
1377:Drivers/STM32F1xx_HAL_Driver/Inc/stm32f1xx_ll_rcc.h ****   * @{
1378:Drivers/STM32F1xx_HAL_Driver/Inc/stm32f1xx_ll_rcc.h ****   */
1379:Drivers/STM32F1xx_HAL_Driver/Inc/stm32f1xx_ll_rcc.h **** 
1380:Drivers/STM32F1xx_HAL_Driver/Inc/stm32f1xx_ll_rcc.h **** /**
1381:Drivers/STM32F1xx_HAL_Driver/Inc/stm32f1xx_ll_rcc.h ****   * @brief  Enable PLL
1382:Drivers/STM32F1xx_HAL_Driver/Inc/stm32f1xx_ll_rcc.h ****   * @rmtoll CR           PLLON         LL_RCC_PLL_Enable
1383:Drivers/STM32F1xx_HAL_Driver/Inc/stm32f1xx_ll_rcc.h ****   * @retval None
1384:Drivers/STM32F1xx_HAL_Driver/Inc/stm32f1xx_ll_rcc.h ****   */
1385:Drivers/STM32F1xx_HAL_Driver/Inc/stm32f1xx_ll_rcc.h **** __STATIC_INLINE void LL_RCC_PLL_Enable(void)
1386:Drivers/STM32F1xx_HAL_Driver/Inc/stm32f1xx_ll_rcc.h **** {
 596              		.loc 1 1386 1
 597              		.cfi_startproc
 598              		@ args = 0, pretend = 0, frame = 0
 599              		@ frame_needed = 1, uses_anonymous_args = 0
 600              		@ link register save eliminated.
 601 0000 80B4     		push	{r7}
 602              	.LCFI56:
 603              		.cfi_def_cfa_offset 4
 604              		.cfi_offset 7, -4
 605 0002 00AF     		add	r7, sp, #0
 606              	.LCFI57:
 607              		.cfi_def_cfa_register 7
1387:Drivers/STM32F1xx_HAL_Driver/Inc/stm32f1xx_ll_rcc.h ****   SET_BIT(RCC->CR, RCC_CR_PLLON);
 608              		.loc 1 1387 3
 609 0004 044B     		ldr	r3, .L42
 610 0006 1B68     		ldr	r3, [r3]
 611 0008 034A     		ldr	r2, .L42
 612 000a 43F08073 		orr	r3, r3, #16777216
 613 000e 1360     		str	r3, [r2]
1388:Drivers/STM32F1xx_HAL_Driver/Inc/stm32f1xx_ll_rcc.h **** }
 614              		.loc 1 1388 1
 615 0010 00BF     		nop
 616 0012 BD46     		mov	sp, r7
 617              	.LCFI58:
 618              		.cfi_def_cfa_register 13
 619              		@ sp needed
 620 0014 80BC     		pop	{r7}
 621              	.LCFI59:
 622              		.cfi_restore 7
 623              		.cfi_def_cfa_offset 0
 624 0016 7047     		bx	lr
 625              	.L43:
 626              		.align	2
 627              	.L42:
 628 0018 00100240 		.word	1073876992
 629              		.cfi_endproc
 630              	.LFE105:
 632              		.section	.text.LL_RCC_PLL_IsReady,"ax",%progbits
 633              		.align	1
ARM GAS  /tmp/ccmpGAeh.s 			page 36


 634              		.syntax unified
 635              		.thumb
 636              		.thumb_func
 638              	LL_RCC_PLL_IsReady:
 639              	.LFB107:
1389:Drivers/STM32F1xx_HAL_Driver/Inc/stm32f1xx_ll_rcc.h **** 
1390:Drivers/STM32F1xx_HAL_Driver/Inc/stm32f1xx_ll_rcc.h **** /**
1391:Drivers/STM32F1xx_HAL_Driver/Inc/stm32f1xx_ll_rcc.h ****   * @brief  Disable PLL
1392:Drivers/STM32F1xx_HAL_Driver/Inc/stm32f1xx_ll_rcc.h ****   * @note Cannot be disabled if the PLL clock is used as the system clock
1393:Drivers/STM32F1xx_HAL_Driver/Inc/stm32f1xx_ll_rcc.h ****   * @rmtoll CR           PLLON         LL_RCC_PLL_Disable
1394:Drivers/STM32F1xx_HAL_Driver/Inc/stm32f1xx_ll_rcc.h ****   * @retval None
1395:Drivers/STM32F1xx_HAL_Driver/Inc/stm32f1xx_ll_rcc.h ****   */
1396:Drivers/STM32F1xx_HAL_Driver/Inc/stm32f1xx_ll_rcc.h **** __STATIC_INLINE void LL_RCC_PLL_Disable(void)
1397:Drivers/STM32F1xx_HAL_Driver/Inc/stm32f1xx_ll_rcc.h **** {
1398:Drivers/STM32F1xx_HAL_Driver/Inc/stm32f1xx_ll_rcc.h ****   CLEAR_BIT(RCC->CR, RCC_CR_PLLON);
1399:Drivers/STM32F1xx_HAL_Driver/Inc/stm32f1xx_ll_rcc.h **** }
1400:Drivers/STM32F1xx_HAL_Driver/Inc/stm32f1xx_ll_rcc.h **** 
1401:Drivers/STM32F1xx_HAL_Driver/Inc/stm32f1xx_ll_rcc.h **** /**
1402:Drivers/STM32F1xx_HAL_Driver/Inc/stm32f1xx_ll_rcc.h ****   * @brief  Check if PLL Ready
1403:Drivers/STM32F1xx_HAL_Driver/Inc/stm32f1xx_ll_rcc.h ****   * @rmtoll CR           PLLRDY        LL_RCC_PLL_IsReady
1404:Drivers/STM32F1xx_HAL_Driver/Inc/stm32f1xx_ll_rcc.h ****   * @retval State of bit (1 or 0).
1405:Drivers/STM32F1xx_HAL_Driver/Inc/stm32f1xx_ll_rcc.h ****   */
1406:Drivers/STM32F1xx_HAL_Driver/Inc/stm32f1xx_ll_rcc.h **** __STATIC_INLINE uint32_t LL_RCC_PLL_IsReady(void)
1407:Drivers/STM32F1xx_HAL_Driver/Inc/stm32f1xx_ll_rcc.h **** {
 640              		.loc 1 1407 1
 641              		.cfi_startproc
 642              		@ args = 0, pretend = 0, frame = 0
 643              		@ frame_needed = 1, uses_anonymous_args = 0
 644              		@ link register save eliminated.
 645 0000 80B4     		push	{r7}
 646              	.LCFI60:
 647              		.cfi_def_cfa_offset 4
 648              		.cfi_offset 7, -4
 649 0002 00AF     		add	r7, sp, #0
 650              	.LCFI61:
 651              		.cfi_def_cfa_register 7
1408:Drivers/STM32F1xx_HAL_Driver/Inc/stm32f1xx_ll_rcc.h ****   return (READ_BIT(RCC->CR, RCC_CR_PLLRDY) == (RCC_CR_PLLRDY));
 652              		.loc 1 1408 11
 653 0004 064B     		ldr	r3, .L46
 654 0006 1B68     		ldr	r3, [r3]
 655 0008 03F00073 		and	r3, r3, #33554432
 656              		.loc 1 1408 44
 657 000c B3F1007F 		cmp	r3, #33554432
 658 0010 0CBF     		ite	eq
 659 0012 0123     		moveq	r3, #1
 660 0014 0023     		movne	r3, #0
 661 0016 DBB2     		uxtb	r3, r3
1409:Drivers/STM32F1xx_HAL_Driver/Inc/stm32f1xx_ll_rcc.h **** }
 662              		.loc 1 1409 1
 663 0018 1846     		mov	r0, r3
 664 001a BD46     		mov	sp, r7
 665              	.LCFI62:
 666              		.cfi_def_cfa_register 13
 667              		@ sp needed
 668 001c 80BC     		pop	{r7}
 669              	.LCFI63:
 670              		.cfi_restore 7
ARM GAS  /tmp/ccmpGAeh.s 			page 37


 671              		.cfi_def_cfa_offset 0
 672 001e 7047     		bx	lr
 673              	.L47:
 674              		.align	2
 675              	.L46:
 676 0020 00100240 		.word	1073876992
 677              		.cfi_endproc
 678              	.LFE107:
 680              		.section	.text.LL_RCC_PLL_ConfigDomain_SYS,"ax",%progbits
 681              		.align	1
 682              		.syntax unified
 683              		.thumb
 684              		.thumb_func
 686              	LL_RCC_PLL_ConfigDomain_SYS:
 687              	.LFB108:
1410:Drivers/STM32F1xx_HAL_Driver/Inc/stm32f1xx_ll_rcc.h **** 
1411:Drivers/STM32F1xx_HAL_Driver/Inc/stm32f1xx_ll_rcc.h **** /**
1412:Drivers/STM32F1xx_HAL_Driver/Inc/stm32f1xx_ll_rcc.h ****   * @brief  Configure PLL used for SYSCLK Domain
1413:Drivers/STM32F1xx_HAL_Driver/Inc/stm32f1xx_ll_rcc.h ****   * @rmtoll CFGR         PLLSRC        LL_RCC_PLL_ConfigDomain_SYS\n
1414:Drivers/STM32F1xx_HAL_Driver/Inc/stm32f1xx_ll_rcc.h ****   *         CFGR         PLLXTPRE      LL_RCC_PLL_ConfigDomain_SYS\n
1415:Drivers/STM32F1xx_HAL_Driver/Inc/stm32f1xx_ll_rcc.h ****   *         CFGR         PLLMULL       LL_RCC_PLL_ConfigDomain_SYS\n
1416:Drivers/STM32F1xx_HAL_Driver/Inc/stm32f1xx_ll_rcc.h ****   *         CFGR2        PREDIV1       LL_RCC_PLL_ConfigDomain_SYS\n
1417:Drivers/STM32F1xx_HAL_Driver/Inc/stm32f1xx_ll_rcc.h ****   *         CFGR2        PREDIV1SRC    LL_RCC_PLL_ConfigDomain_SYS
1418:Drivers/STM32F1xx_HAL_Driver/Inc/stm32f1xx_ll_rcc.h ****   * @param  Source This parameter can be one of the following values:
1419:Drivers/STM32F1xx_HAL_Driver/Inc/stm32f1xx_ll_rcc.h ****   *         @arg @ref LL_RCC_PLLSOURCE_HSI_DIV_2
1420:Drivers/STM32F1xx_HAL_Driver/Inc/stm32f1xx_ll_rcc.h ****   *         @arg @ref LL_RCC_PLLSOURCE_HSE_DIV_1
1421:Drivers/STM32F1xx_HAL_Driver/Inc/stm32f1xx_ll_rcc.h ****   *         @arg @ref LL_RCC_PLLSOURCE_HSE_DIV_2 (*)
1422:Drivers/STM32F1xx_HAL_Driver/Inc/stm32f1xx_ll_rcc.h ****   *         @arg @ref LL_RCC_PLLSOURCE_HSE_DIV_3 (*)
1423:Drivers/STM32F1xx_HAL_Driver/Inc/stm32f1xx_ll_rcc.h ****   *         @arg @ref LL_RCC_PLLSOURCE_HSE_DIV_4 (*)
1424:Drivers/STM32F1xx_HAL_Driver/Inc/stm32f1xx_ll_rcc.h ****   *         @arg @ref LL_RCC_PLLSOURCE_HSE_DIV_5 (*)
1425:Drivers/STM32F1xx_HAL_Driver/Inc/stm32f1xx_ll_rcc.h ****   *         @arg @ref LL_RCC_PLLSOURCE_HSE_DIV_6 (*)
1426:Drivers/STM32F1xx_HAL_Driver/Inc/stm32f1xx_ll_rcc.h ****   *         @arg @ref LL_RCC_PLLSOURCE_HSE_DIV_7 (*)
1427:Drivers/STM32F1xx_HAL_Driver/Inc/stm32f1xx_ll_rcc.h ****   *         @arg @ref LL_RCC_PLLSOURCE_HSE_DIV_8 (*)
1428:Drivers/STM32F1xx_HAL_Driver/Inc/stm32f1xx_ll_rcc.h ****   *         @arg @ref LL_RCC_PLLSOURCE_HSE_DIV_9 (*)
1429:Drivers/STM32F1xx_HAL_Driver/Inc/stm32f1xx_ll_rcc.h ****   *         @arg @ref LL_RCC_PLLSOURCE_HSE_DIV_10 (*)
1430:Drivers/STM32F1xx_HAL_Driver/Inc/stm32f1xx_ll_rcc.h ****   *         @arg @ref LL_RCC_PLLSOURCE_HSE_DIV_11 (*)
1431:Drivers/STM32F1xx_HAL_Driver/Inc/stm32f1xx_ll_rcc.h ****   *         @arg @ref LL_RCC_PLLSOURCE_HSE_DIV_12 (*)
1432:Drivers/STM32F1xx_HAL_Driver/Inc/stm32f1xx_ll_rcc.h ****   *         @arg @ref LL_RCC_PLLSOURCE_HSE_DIV_13 (*)
1433:Drivers/STM32F1xx_HAL_Driver/Inc/stm32f1xx_ll_rcc.h ****   *         @arg @ref LL_RCC_PLLSOURCE_HSE_DIV_14 (*)
1434:Drivers/STM32F1xx_HAL_Driver/Inc/stm32f1xx_ll_rcc.h ****   *         @arg @ref LL_RCC_PLLSOURCE_HSE_DIV_15 (*)
1435:Drivers/STM32F1xx_HAL_Driver/Inc/stm32f1xx_ll_rcc.h ****   *         @arg @ref LL_RCC_PLLSOURCE_HSE_DIV_16 (*)
1436:Drivers/STM32F1xx_HAL_Driver/Inc/stm32f1xx_ll_rcc.h ****   *         @arg @ref LL_RCC_PLLSOURCE_PLL2_DIV_1 (*)
1437:Drivers/STM32F1xx_HAL_Driver/Inc/stm32f1xx_ll_rcc.h ****   *         @arg @ref LL_RCC_PLLSOURCE_PLL2_DIV_2 (*)
1438:Drivers/STM32F1xx_HAL_Driver/Inc/stm32f1xx_ll_rcc.h ****   *         @arg @ref LL_RCC_PLLSOURCE_PLL2_DIV_3 (*)
1439:Drivers/STM32F1xx_HAL_Driver/Inc/stm32f1xx_ll_rcc.h ****   *         @arg @ref LL_RCC_PLLSOURCE_PLL2_DIV_4 (*)
1440:Drivers/STM32F1xx_HAL_Driver/Inc/stm32f1xx_ll_rcc.h ****   *         @arg @ref LL_RCC_PLLSOURCE_PLL2_DIV_5 (*)
1441:Drivers/STM32F1xx_HAL_Driver/Inc/stm32f1xx_ll_rcc.h ****   *         @arg @ref LL_RCC_PLLSOURCE_PLL2_DIV_6 (*)
1442:Drivers/STM32F1xx_HAL_Driver/Inc/stm32f1xx_ll_rcc.h ****   *         @arg @ref LL_RCC_PLLSOURCE_PLL2_DIV_7 (*)
1443:Drivers/STM32F1xx_HAL_Driver/Inc/stm32f1xx_ll_rcc.h ****   *         @arg @ref LL_RCC_PLLSOURCE_PLL2_DIV_8 (*)
1444:Drivers/STM32F1xx_HAL_Driver/Inc/stm32f1xx_ll_rcc.h ****   *         @arg @ref LL_RCC_PLLSOURCE_PLL2_DIV_9 (*)
1445:Drivers/STM32F1xx_HAL_Driver/Inc/stm32f1xx_ll_rcc.h ****   *         @arg @ref LL_RCC_PLLSOURCE_PLL2_DIV_10 (*)
1446:Drivers/STM32F1xx_HAL_Driver/Inc/stm32f1xx_ll_rcc.h ****   *         @arg @ref LL_RCC_PLLSOURCE_PLL2_DIV_11 (*)
1447:Drivers/STM32F1xx_HAL_Driver/Inc/stm32f1xx_ll_rcc.h ****   *         @arg @ref LL_RCC_PLLSOURCE_PLL2_DIV_12 (*)
1448:Drivers/STM32F1xx_HAL_Driver/Inc/stm32f1xx_ll_rcc.h ****   *         @arg @ref LL_RCC_PLLSOURCE_PLL2_DIV_13 (*)
1449:Drivers/STM32F1xx_HAL_Driver/Inc/stm32f1xx_ll_rcc.h ****   *         @arg @ref LL_RCC_PLLSOURCE_PLL2_DIV_14 (*)
1450:Drivers/STM32F1xx_HAL_Driver/Inc/stm32f1xx_ll_rcc.h ****   *         @arg @ref LL_RCC_PLLSOURCE_PLL2_DIV_15 (*)
1451:Drivers/STM32F1xx_HAL_Driver/Inc/stm32f1xx_ll_rcc.h ****   *         @arg @ref LL_RCC_PLLSOURCE_PLL2_DIV_16 (*)
ARM GAS  /tmp/ccmpGAeh.s 			page 38


1452:Drivers/STM32F1xx_HAL_Driver/Inc/stm32f1xx_ll_rcc.h ****   *
1453:Drivers/STM32F1xx_HAL_Driver/Inc/stm32f1xx_ll_rcc.h ****   *         (*) value not defined in all devices
1454:Drivers/STM32F1xx_HAL_Driver/Inc/stm32f1xx_ll_rcc.h ****   * @param  PLLMul This parameter can be one of the following values:
1455:Drivers/STM32F1xx_HAL_Driver/Inc/stm32f1xx_ll_rcc.h ****   *         @arg @ref LL_RCC_PLL_MUL_2 (*)
1456:Drivers/STM32F1xx_HAL_Driver/Inc/stm32f1xx_ll_rcc.h ****   *         @arg @ref LL_RCC_PLL_MUL_3 (*)
1457:Drivers/STM32F1xx_HAL_Driver/Inc/stm32f1xx_ll_rcc.h ****   *         @arg @ref LL_RCC_PLL_MUL_4
1458:Drivers/STM32F1xx_HAL_Driver/Inc/stm32f1xx_ll_rcc.h ****   *         @arg @ref LL_RCC_PLL_MUL_5
1459:Drivers/STM32F1xx_HAL_Driver/Inc/stm32f1xx_ll_rcc.h ****   *         @arg @ref LL_RCC_PLL_MUL_6
1460:Drivers/STM32F1xx_HAL_Driver/Inc/stm32f1xx_ll_rcc.h ****   *         @arg @ref LL_RCC_PLL_MUL_7
1461:Drivers/STM32F1xx_HAL_Driver/Inc/stm32f1xx_ll_rcc.h ****   *         @arg @ref LL_RCC_PLL_MUL_8
1462:Drivers/STM32F1xx_HAL_Driver/Inc/stm32f1xx_ll_rcc.h ****   *         @arg @ref LL_RCC_PLL_MUL_9
1463:Drivers/STM32F1xx_HAL_Driver/Inc/stm32f1xx_ll_rcc.h ****   *         @arg @ref LL_RCC_PLL_MUL_6_5 (*)
1464:Drivers/STM32F1xx_HAL_Driver/Inc/stm32f1xx_ll_rcc.h ****   *         @arg @ref LL_RCC_PLL_MUL_10 (*)
1465:Drivers/STM32F1xx_HAL_Driver/Inc/stm32f1xx_ll_rcc.h ****   *         @arg @ref LL_RCC_PLL_MUL_11 (*)
1466:Drivers/STM32F1xx_HAL_Driver/Inc/stm32f1xx_ll_rcc.h ****   *         @arg @ref LL_RCC_PLL_MUL_12 (*)
1467:Drivers/STM32F1xx_HAL_Driver/Inc/stm32f1xx_ll_rcc.h ****   *         @arg @ref LL_RCC_PLL_MUL_13 (*)
1468:Drivers/STM32F1xx_HAL_Driver/Inc/stm32f1xx_ll_rcc.h ****   *         @arg @ref LL_RCC_PLL_MUL_14 (*)
1469:Drivers/STM32F1xx_HAL_Driver/Inc/stm32f1xx_ll_rcc.h ****   *         @arg @ref LL_RCC_PLL_MUL_15 (*)
1470:Drivers/STM32F1xx_HAL_Driver/Inc/stm32f1xx_ll_rcc.h ****   *         @arg @ref LL_RCC_PLL_MUL_16 (*)
1471:Drivers/STM32F1xx_HAL_Driver/Inc/stm32f1xx_ll_rcc.h ****   *
1472:Drivers/STM32F1xx_HAL_Driver/Inc/stm32f1xx_ll_rcc.h ****   *         (*) value not defined in all devices
1473:Drivers/STM32F1xx_HAL_Driver/Inc/stm32f1xx_ll_rcc.h ****   * @retval None
1474:Drivers/STM32F1xx_HAL_Driver/Inc/stm32f1xx_ll_rcc.h ****   */
1475:Drivers/STM32F1xx_HAL_Driver/Inc/stm32f1xx_ll_rcc.h **** __STATIC_INLINE void LL_RCC_PLL_ConfigDomain_SYS(uint32_t Source, uint32_t PLLMul)
1476:Drivers/STM32F1xx_HAL_Driver/Inc/stm32f1xx_ll_rcc.h **** {
 688              		.loc 1 1476 1
 689              		.cfi_startproc
 690              		@ args = 0, pretend = 0, frame = 8
 691              		@ frame_needed = 1, uses_anonymous_args = 0
 692              		@ link register save eliminated.
 693 0000 80B4     		push	{r7}
 694              	.LCFI64:
 695              		.cfi_def_cfa_offset 4
 696              		.cfi_offset 7, -4
 697 0002 83B0     		sub	sp, sp, #12
 698              	.LCFI65:
 699              		.cfi_def_cfa_offset 16
 700 0004 00AF     		add	r7, sp, #0
 701              	.LCFI66:
 702              		.cfi_def_cfa_register 7
 703 0006 7860     		str	r0, [r7, #4]
 704 0008 3960     		str	r1, [r7]
1477:Drivers/STM32F1xx_HAL_Driver/Inc/stm32f1xx_ll_rcc.h ****   MODIFY_REG(RCC->CFGR, RCC_CFGR_PLLSRC | RCC_CFGR_PLLXTPRE | RCC_CFGR_PLLMULL,
 705              		.loc 1 1477 3
 706 000a 084B     		ldr	r3, .L49
 707 000c 5B68     		ldr	r3, [r3, #4]
 708 000e 23F47C12 		bic	r2, r3, #4128768
 709 0012 7B68     		ldr	r3, [r7, #4]
 710 0014 03F44031 		and	r1, r3, #196608
 711 0018 3B68     		ldr	r3, [r7]
 712 001a 0B43     		orrs	r3, r3, r1
 713 001c 0349     		ldr	r1, .L49
 714 001e 1343     		orrs	r3, r3, r2
 715 0020 4B60     		str	r3, [r1, #4]
1478:Drivers/STM32F1xx_HAL_Driver/Inc/stm32f1xx_ll_rcc.h ****              (Source & (RCC_CFGR_PLLSRC | RCC_CFGR_PLLXTPRE)) | PLLMul);
1479:Drivers/STM32F1xx_HAL_Driver/Inc/stm32f1xx_ll_rcc.h **** #if defined(RCC_CFGR2_PREDIV1)
1480:Drivers/STM32F1xx_HAL_Driver/Inc/stm32f1xx_ll_rcc.h **** #if defined(RCC_CFGR2_PREDIV1SRC)
ARM GAS  /tmp/ccmpGAeh.s 			page 39


1481:Drivers/STM32F1xx_HAL_Driver/Inc/stm32f1xx_ll_rcc.h ****   MODIFY_REG(RCC->CFGR2, (RCC_CFGR2_PREDIV1 | RCC_CFGR2_PREDIV1SRC),
1482:Drivers/STM32F1xx_HAL_Driver/Inc/stm32f1xx_ll_rcc.h ****              (Source & RCC_CFGR2_PREDIV1) | ((Source & (RCC_CFGR2_PREDIV1SRC << 4U)) >> 4U));
1483:Drivers/STM32F1xx_HAL_Driver/Inc/stm32f1xx_ll_rcc.h **** #else
1484:Drivers/STM32F1xx_HAL_Driver/Inc/stm32f1xx_ll_rcc.h ****   MODIFY_REG(RCC->CFGR2, RCC_CFGR2_PREDIV1, (Source & RCC_CFGR2_PREDIV1));
1485:Drivers/STM32F1xx_HAL_Driver/Inc/stm32f1xx_ll_rcc.h **** #endif /*RCC_CFGR2_PREDIV1SRC*/
1486:Drivers/STM32F1xx_HAL_Driver/Inc/stm32f1xx_ll_rcc.h **** #endif /*RCC_CFGR2_PREDIV1*/
1487:Drivers/STM32F1xx_HAL_Driver/Inc/stm32f1xx_ll_rcc.h **** }
 716              		.loc 1 1487 1
 717 0022 00BF     		nop
 718 0024 0C37     		adds	r7, r7, #12
 719              	.LCFI67:
 720              		.cfi_def_cfa_offset 4
 721 0026 BD46     		mov	sp, r7
 722              	.LCFI68:
 723              		.cfi_def_cfa_register 13
 724              		@ sp needed
 725 0028 80BC     		pop	{r7}
 726              	.LCFI69:
 727              		.cfi_restore 7
 728              		.cfi_def_cfa_offset 0
 729 002a 7047     		bx	lr
 730              	.L50:
 731              		.align	2
 732              	.L49:
 733 002c 00100240 		.word	1073876992
 734              		.cfi_endproc
 735              	.LFE108:
 737              		.section	.text.LL_InitTick,"ax",%progbits
 738              		.align	1
 739              		.syntax unified
 740              		.thumb
 741              		.thumb_func
 743              	LL_InitTick:
 744              	.LFB151:
 745              		.file 2 "Drivers/STM32F1xx_HAL_Driver/Inc/stm32f1xx_ll_utils.h"
   1:Drivers/STM32F1xx_HAL_Driver/Inc/stm32f1xx_ll_utils.h **** /**
   2:Drivers/STM32F1xx_HAL_Driver/Inc/stm32f1xx_ll_utils.h ****   ******************************************************************************
   3:Drivers/STM32F1xx_HAL_Driver/Inc/stm32f1xx_ll_utils.h ****   * @file    stm32f1xx_ll_utils.h
   4:Drivers/STM32F1xx_HAL_Driver/Inc/stm32f1xx_ll_utils.h ****   * @author  MCD Application Team
   5:Drivers/STM32F1xx_HAL_Driver/Inc/stm32f1xx_ll_utils.h ****   * @brief   Header file of UTILS LL module.
   6:Drivers/STM32F1xx_HAL_Driver/Inc/stm32f1xx_ll_utils.h ****   ******************************************************************************
   7:Drivers/STM32F1xx_HAL_Driver/Inc/stm32f1xx_ll_utils.h ****   * @attention
   8:Drivers/STM32F1xx_HAL_Driver/Inc/stm32f1xx_ll_utils.h ****   *
   9:Drivers/STM32F1xx_HAL_Driver/Inc/stm32f1xx_ll_utils.h ****   * Copyright (c) 2016 STMicroelectronics.
  10:Drivers/STM32F1xx_HAL_Driver/Inc/stm32f1xx_ll_utils.h ****   * All rights reserved.
  11:Drivers/STM32F1xx_HAL_Driver/Inc/stm32f1xx_ll_utils.h ****   *
  12:Drivers/STM32F1xx_HAL_Driver/Inc/stm32f1xx_ll_utils.h ****   * This software is licensed under terms that can be found in the LICENSE file
  13:Drivers/STM32F1xx_HAL_Driver/Inc/stm32f1xx_ll_utils.h ****   * in the root directory of this software component.
  14:Drivers/STM32F1xx_HAL_Driver/Inc/stm32f1xx_ll_utils.h ****   * If no LICENSE file comes with this software, it is provided AS-IS.
  15:Drivers/STM32F1xx_HAL_Driver/Inc/stm32f1xx_ll_utils.h ****   *
  16:Drivers/STM32F1xx_HAL_Driver/Inc/stm32f1xx_ll_utils.h ****   ******************************************************************************
  17:Drivers/STM32F1xx_HAL_Driver/Inc/stm32f1xx_ll_utils.h ****   @verbatim
  18:Drivers/STM32F1xx_HAL_Driver/Inc/stm32f1xx_ll_utils.h ****   ==============================================================================
  19:Drivers/STM32F1xx_HAL_Driver/Inc/stm32f1xx_ll_utils.h ****                      ##### How to use this driver #####
  20:Drivers/STM32F1xx_HAL_Driver/Inc/stm32f1xx_ll_utils.h ****   ==============================================================================
  21:Drivers/STM32F1xx_HAL_Driver/Inc/stm32f1xx_ll_utils.h ****     [..]
  22:Drivers/STM32F1xx_HAL_Driver/Inc/stm32f1xx_ll_utils.h ****     The LL UTILS driver contains a set of generic APIs that can be
ARM GAS  /tmp/ccmpGAeh.s 			page 40


  23:Drivers/STM32F1xx_HAL_Driver/Inc/stm32f1xx_ll_utils.h ****     used by user:
  24:Drivers/STM32F1xx_HAL_Driver/Inc/stm32f1xx_ll_utils.h ****       (+) Device electronic signature
  25:Drivers/STM32F1xx_HAL_Driver/Inc/stm32f1xx_ll_utils.h ****       (+) Timing functions
  26:Drivers/STM32F1xx_HAL_Driver/Inc/stm32f1xx_ll_utils.h ****       (+) PLL configuration functions
  27:Drivers/STM32F1xx_HAL_Driver/Inc/stm32f1xx_ll_utils.h **** 
  28:Drivers/STM32F1xx_HAL_Driver/Inc/stm32f1xx_ll_utils.h ****   @endverbatim
  29:Drivers/STM32F1xx_HAL_Driver/Inc/stm32f1xx_ll_utils.h ****   ******************************************************************************
  30:Drivers/STM32F1xx_HAL_Driver/Inc/stm32f1xx_ll_utils.h ****   */
  31:Drivers/STM32F1xx_HAL_Driver/Inc/stm32f1xx_ll_utils.h **** 
  32:Drivers/STM32F1xx_HAL_Driver/Inc/stm32f1xx_ll_utils.h **** /* Define to prevent recursive inclusion -------------------------------------*/
  33:Drivers/STM32F1xx_HAL_Driver/Inc/stm32f1xx_ll_utils.h **** #ifndef __STM32F1xx_LL_UTILS_H
  34:Drivers/STM32F1xx_HAL_Driver/Inc/stm32f1xx_ll_utils.h **** #define __STM32F1xx_LL_UTILS_H
  35:Drivers/STM32F1xx_HAL_Driver/Inc/stm32f1xx_ll_utils.h **** 
  36:Drivers/STM32F1xx_HAL_Driver/Inc/stm32f1xx_ll_utils.h **** #ifdef __cplusplus
  37:Drivers/STM32F1xx_HAL_Driver/Inc/stm32f1xx_ll_utils.h **** extern "C" {
  38:Drivers/STM32F1xx_HAL_Driver/Inc/stm32f1xx_ll_utils.h **** #endif
  39:Drivers/STM32F1xx_HAL_Driver/Inc/stm32f1xx_ll_utils.h **** 
  40:Drivers/STM32F1xx_HAL_Driver/Inc/stm32f1xx_ll_utils.h **** /* Includes ------------------------------------------------------------------*/
  41:Drivers/STM32F1xx_HAL_Driver/Inc/stm32f1xx_ll_utils.h **** #include "stm32f1xx.h"
  42:Drivers/STM32F1xx_HAL_Driver/Inc/stm32f1xx_ll_utils.h **** 
  43:Drivers/STM32F1xx_HAL_Driver/Inc/stm32f1xx_ll_utils.h **** /** @addtogroup STM32F1xx_LL_Driver
  44:Drivers/STM32F1xx_HAL_Driver/Inc/stm32f1xx_ll_utils.h ****   * @{
  45:Drivers/STM32F1xx_HAL_Driver/Inc/stm32f1xx_ll_utils.h ****   */
  46:Drivers/STM32F1xx_HAL_Driver/Inc/stm32f1xx_ll_utils.h **** 
  47:Drivers/STM32F1xx_HAL_Driver/Inc/stm32f1xx_ll_utils.h **** /** @defgroup UTILS_LL UTILS
  48:Drivers/STM32F1xx_HAL_Driver/Inc/stm32f1xx_ll_utils.h ****   * @{
  49:Drivers/STM32F1xx_HAL_Driver/Inc/stm32f1xx_ll_utils.h ****   */
  50:Drivers/STM32F1xx_HAL_Driver/Inc/stm32f1xx_ll_utils.h **** 
  51:Drivers/STM32F1xx_HAL_Driver/Inc/stm32f1xx_ll_utils.h **** /* Private types -------------------------------------------------------------*/
  52:Drivers/STM32F1xx_HAL_Driver/Inc/stm32f1xx_ll_utils.h **** /* Private variables ---------------------------------------------------------*/
  53:Drivers/STM32F1xx_HAL_Driver/Inc/stm32f1xx_ll_utils.h **** 
  54:Drivers/STM32F1xx_HAL_Driver/Inc/stm32f1xx_ll_utils.h **** /* Private constants ---------------------------------------------------------*/
  55:Drivers/STM32F1xx_HAL_Driver/Inc/stm32f1xx_ll_utils.h **** /** @defgroup UTILS_LL_Private_Constants UTILS Private Constants
  56:Drivers/STM32F1xx_HAL_Driver/Inc/stm32f1xx_ll_utils.h ****   * @{
  57:Drivers/STM32F1xx_HAL_Driver/Inc/stm32f1xx_ll_utils.h ****   */
  58:Drivers/STM32F1xx_HAL_Driver/Inc/stm32f1xx_ll_utils.h **** 
  59:Drivers/STM32F1xx_HAL_Driver/Inc/stm32f1xx_ll_utils.h **** /* Max delay can be used in LL_mDelay */
  60:Drivers/STM32F1xx_HAL_Driver/Inc/stm32f1xx_ll_utils.h **** #define LL_MAX_DELAY                  0xFFFFFFFFU
  61:Drivers/STM32F1xx_HAL_Driver/Inc/stm32f1xx_ll_utils.h **** 
  62:Drivers/STM32F1xx_HAL_Driver/Inc/stm32f1xx_ll_utils.h **** /**
  63:Drivers/STM32F1xx_HAL_Driver/Inc/stm32f1xx_ll_utils.h ****  * @brief Unique device ID register base address
  64:Drivers/STM32F1xx_HAL_Driver/Inc/stm32f1xx_ll_utils.h ****  */
  65:Drivers/STM32F1xx_HAL_Driver/Inc/stm32f1xx_ll_utils.h **** #define UID_BASE_ADDRESS              UID_BASE
  66:Drivers/STM32F1xx_HAL_Driver/Inc/stm32f1xx_ll_utils.h **** 
  67:Drivers/STM32F1xx_HAL_Driver/Inc/stm32f1xx_ll_utils.h **** /**
  68:Drivers/STM32F1xx_HAL_Driver/Inc/stm32f1xx_ll_utils.h ****  * @brief Flash size data register base address
  69:Drivers/STM32F1xx_HAL_Driver/Inc/stm32f1xx_ll_utils.h ****  */
  70:Drivers/STM32F1xx_HAL_Driver/Inc/stm32f1xx_ll_utils.h **** #define FLASHSIZE_BASE_ADDRESS        FLASHSIZE_BASE
  71:Drivers/STM32F1xx_HAL_Driver/Inc/stm32f1xx_ll_utils.h **** 
  72:Drivers/STM32F1xx_HAL_Driver/Inc/stm32f1xx_ll_utils.h **** /**
  73:Drivers/STM32F1xx_HAL_Driver/Inc/stm32f1xx_ll_utils.h ****   * @}
  74:Drivers/STM32F1xx_HAL_Driver/Inc/stm32f1xx_ll_utils.h ****   */
  75:Drivers/STM32F1xx_HAL_Driver/Inc/stm32f1xx_ll_utils.h **** 
  76:Drivers/STM32F1xx_HAL_Driver/Inc/stm32f1xx_ll_utils.h **** /* Private macros ------------------------------------------------------------*/
  77:Drivers/STM32F1xx_HAL_Driver/Inc/stm32f1xx_ll_utils.h **** /** @defgroup UTILS_LL_Private_Macros UTILS Private Macros
  78:Drivers/STM32F1xx_HAL_Driver/Inc/stm32f1xx_ll_utils.h ****   * @{
  79:Drivers/STM32F1xx_HAL_Driver/Inc/stm32f1xx_ll_utils.h ****   */
ARM GAS  /tmp/ccmpGAeh.s 			page 41


  80:Drivers/STM32F1xx_HAL_Driver/Inc/stm32f1xx_ll_utils.h **** /**
  81:Drivers/STM32F1xx_HAL_Driver/Inc/stm32f1xx_ll_utils.h ****   * @}
  82:Drivers/STM32F1xx_HAL_Driver/Inc/stm32f1xx_ll_utils.h ****   */
  83:Drivers/STM32F1xx_HAL_Driver/Inc/stm32f1xx_ll_utils.h **** /* Exported types ------------------------------------------------------------*/
  84:Drivers/STM32F1xx_HAL_Driver/Inc/stm32f1xx_ll_utils.h **** /** @defgroup UTILS_LL_ES_INIT UTILS Exported structures
  85:Drivers/STM32F1xx_HAL_Driver/Inc/stm32f1xx_ll_utils.h ****   * @{
  86:Drivers/STM32F1xx_HAL_Driver/Inc/stm32f1xx_ll_utils.h ****   */
  87:Drivers/STM32F1xx_HAL_Driver/Inc/stm32f1xx_ll_utils.h **** /**
  88:Drivers/STM32F1xx_HAL_Driver/Inc/stm32f1xx_ll_utils.h ****   * @brief  UTILS PLL structure definition
  89:Drivers/STM32F1xx_HAL_Driver/Inc/stm32f1xx_ll_utils.h ****   */
  90:Drivers/STM32F1xx_HAL_Driver/Inc/stm32f1xx_ll_utils.h **** typedef struct
  91:Drivers/STM32F1xx_HAL_Driver/Inc/stm32f1xx_ll_utils.h **** {
  92:Drivers/STM32F1xx_HAL_Driver/Inc/stm32f1xx_ll_utils.h ****   uint32_t PLLMul;   /*!< Multiplication factor for PLL VCO input clock.
  93:Drivers/STM32F1xx_HAL_Driver/Inc/stm32f1xx_ll_utils.h ****                           This parameter can be a value of @ref RCC_LL_EC_PLL_MUL
  94:Drivers/STM32F1xx_HAL_Driver/Inc/stm32f1xx_ll_utils.h **** 
  95:Drivers/STM32F1xx_HAL_Driver/Inc/stm32f1xx_ll_utils.h ****                           This feature can be modified afterwards using unitary function
  96:Drivers/STM32F1xx_HAL_Driver/Inc/stm32f1xx_ll_utils.h ****                           @ref LL_RCC_PLL_ConfigDomain_SYS(). */
  97:Drivers/STM32F1xx_HAL_Driver/Inc/stm32f1xx_ll_utils.h **** 
  98:Drivers/STM32F1xx_HAL_Driver/Inc/stm32f1xx_ll_utils.h ****   uint32_t Prediv;   /*!< Division factor for HSE used as PLL clock source.
  99:Drivers/STM32F1xx_HAL_Driver/Inc/stm32f1xx_ll_utils.h ****                           This parameter can be a value of @ref RCC_LL_EC_PREDIV_DIV
 100:Drivers/STM32F1xx_HAL_Driver/Inc/stm32f1xx_ll_utils.h **** 
 101:Drivers/STM32F1xx_HAL_Driver/Inc/stm32f1xx_ll_utils.h ****                           This feature can be modified afterwards using unitary function
 102:Drivers/STM32F1xx_HAL_Driver/Inc/stm32f1xx_ll_utils.h ****                           @ref LL_RCC_PLL_ConfigDomain_SYS(). */
 103:Drivers/STM32F1xx_HAL_Driver/Inc/stm32f1xx_ll_utils.h **** } LL_UTILS_PLLInitTypeDef;
 104:Drivers/STM32F1xx_HAL_Driver/Inc/stm32f1xx_ll_utils.h **** 
 105:Drivers/STM32F1xx_HAL_Driver/Inc/stm32f1xx_ll_utils.h **** /**
 106:Drivers/STM32F1xx_HAL_Driver/Inc/stm32f1xx_ll_utils.h ****   * @brief  UTILS System, AHB and APB buses clock configuration structure definition
 107:Drivers/STM32F1xx_HAL_Driver/Inc/stm32f1xx_ll_utils.h ****   */
 108:Drivers/STM32F1xx_HAL_Driver/Inc/stm32f1xx_ll_utils.h **** typedef struct
 109:Drivers/STM32F1xx_HAL_Driver/Inc/stm32f1xx_ll_utils.h **** {
 110:Drivers/STM32F1xx_HAL_Driver/Inc/stm32f1xx_ll_utils.h ****   uint32_t AHBCLKDivider;         /*!< The AHB clock (HCLK) divider. This clock is derived from the
 111:Drivers/STM32F1xx_HAL_Driver/Inc/stm32f1xx_ll_utils.h ****                                        This parameter can be a value of @ref RCC_LL_EC_SYSCLK_DIV
 112:Drivers/STM32F1xx_HAL_Driver/Inc/stm32f1xx_ll_utils.h **** 
 113:Drivers/STM32F1xx_HAL_Driver/Inc/stm32f1xx_ll_utils.h ****                                        This feature can be modified afterwards using unitary functi
 114:Drivers/STM32F1xx_HAL_Driver/Inc/stm32f1xx_ll_utils.h ****                                        @ref LL_RCC_SetAHBPrescaler(). */
 115:Drivers/STM32F1xx_HAL_Driver/Inc/stm32f1xx_ll_utils.h **** 
 116:Drivers/STM32F1xx_HAL_Driver/Inc/stm32f1xx_ll_utils.h ****   uint32_t APB1CLKDivider;        /*!< The APB1 clock (PCLK1) divider. This clock is derived from t
 117:Drivers/STM32F1xx_HAL_Driver/Inc/stm32f1xx_ll_utils.h ****                                        This parameter can be a value of @ref RCC_LL_EC_APB1_DIV
 118:Drivers/STM32F1xx_HAL_Driver/Inc/stm32f1xx_ll_utils.h **** 
 119:Drivers/STM32F1xx_HAL_Driver/Inc/stm32f1xx_ll_utils.h ****                                        This feature can be modified afterwards using unitary functi
 120:Drivers/STM32F1xx_HAL_Driver/Inc/stm32f1xx_ll_utils.h ****                                        @ref LL_RCC_SetAPB1Prescaler(). */
 121:Drivers/STM32F1xx_HAL_Driver/Inc/stm32f1xx_ll_utils.h **** 
 122:Drivers/STM32F1xx_HAL_Driver/Inc/stm32f1xx_ll_utils.h ****   uint32_t APB2CLKDivider;        /*!< The APB2 clock (PCLK2) divider. This clock is derived from t
 123:Drivers/STM32F1xx_HAL_Driver/Inc/stm32f1xx_ll_utils.h ****                                        This parameter can be a value of @ref RCC_LL_EC_APB2_DIV
 124:Drivers/STM32F1xx_HAL_Driver/Inc/stm32f1xx_ll_utils.h **** 
 125:Drivers/STM32F1xx_HAL_Driver/Inc/stm32f1xx_ll_utils.h ****                                        This feature can be modified afterwards using unitary functi
 126:Drivers/STM32F1xx_HAL_Driver/Inc/stm32f1xx_ll_utils.h ****                                        @ref LL_RCC_SetAPB2Prescaler(). */
 127:Drivers/STM32F1xx_HAL_Driver/Inc/stm32f1xx_ll_utils.h **** 
 128:Drivers/STM32F1xx_HAL_Driver/Inc/stm32f1xx_ll_utils.h **** } LL_UTILS_ClkInitTypeDef;
 129:Drivers/STM32F1xx_HAL_Driver/Inc/stm32f1xx_ll_utils.h **** 
 130:Drivers/STM32F1xx_HAL_Driver/Inc/stm32f1xx_ll_utils.h **** /**
 131:Drivers/STM32F1xx_HAL_Driver/Inc/stm32f1xx_ll_utils.h ****   * @}
 132:Drivers/STM32F1xx_HAL_Driver/Inc/stm32f1xx_ll_utils.h ****   */
 133:Drivers/STM32F1xx_HAL_Driver/Inc/stm32f1xx_ll_utils.h **** 
 134:Drivers/STM32F1xx_HAL_Driver/Inc/stm32f1xx_ll_utils.h **** /* Exported constants --------------------------------------------------------*/
 135:Drivers/STM32F1xx_HAL_Driver/Inc/stm32f1xx_ll_utils.h **** /** @defgroup UTILS_LL_Exported_Constants UTILS Exported Constants
 136:Drivers/STM32F1xx_HAL_Driver/Inc/stm32f1xx_ll_utils.h ****   * @{
ARM GAS  /tmp/ccmpGAeh.s 			page 42


 137:Drivers/STM32F1xx_HAL_Driver/Inc/stm32f1xx_ll_utils.h ****   */
 138:Drivers/STM32F1xx_HAL_Driver/Inc/stm32f1xx_ll_utils.h **** 
 139:Drivers/STM32F1xx_HAL_Driver/Inc/stm32f1xx_ll_utils.h **** /** @defgroup UTILS_EC_HSE_BYPASS HSE Bypass activation
 140:Drivers/STM32F1xx_HAL_Driver/Inc/stm32f1xx_ll_utils.h ****   * @{
 141:Drivers/STM32F1xx_HAL_Driver/Inc/stm32f1xx_ll_utils.h ****   */
 142:Drivers/STM32F1xx_HAL_Driver/Inc/stm32f1xx_ll_utils.h **** #define LL_UTILS_HSEBYPASS_OFF        0x00000000U       /*!< HSE Bypass is not enabled             
 143:Drivers/STM32F1xx_HAL_Driver/Inc/stm32f1xx_ll_utils.h **** #define LL_UTILS_HSEBYPASS_ON         0x00000001U       /*!< HSE Bypass is enabled                 
 144:Drivers/STM32F1xx_HAL_Driver/Inc/stm32f1xx_ll_utils.h **** /**
 145:Drivers/STM32F1xx_HAL_Driver/Inc/stm32f1xx_ll_utils.h ****   * @}
 146:Drivers/STM32F1xx_HAL_Driver/Inc/stm32f1xx_ll_utils.h ****   */
 147:Drivers/STM32F1xx_HAL_Driver/Inc/stm32f1xx_ll_utils.h **** 
 148:Drivers/STM32F1xx_HAL_Driver/Inc/stm32f1xx_ll_utils.h **** /**
 149:Drivers/STM32F1xx_HAL_Driver/Inc/stm32f1xx_ll_utils.h ****   * @}
 150:Drivers/STM32F1xx_HAL_Driver/Inc/stm32f1xx_ll_utils.h ****   */
 151:Drivers/STM32F1xx_HAL_Driver/Inc/stm32f1xx_ll_utils.h **** 
 152:Drivers/STM32F1xx_HAL_Driver/Inc/stm32f1xx_ll_utils.h **** /* Exported macro ------------------------------------------------------------*/
 153:Drivers/STM32F1xx_HAL_Driver/Inc/stm32f1xx_ll_utils.h **** 
 154:Drivers/STM32F1xx_HAL_Driver/Inc/stm32f1xx_ll_utils.h **** /* Exported functions --------------------------------------------------------*/
 155:Drivers/STM32F1xx_HAL_Driver/Inc/stm32f1xx_ll_utils.h **** /** @defgroup UTILS_LL_Exported_Functions UTILS Exported Functions
 156:Drivers/STM32F1xx_HAL_Driver/Inc/stm32f1xx_ll_utils.h ****   * @{
 157:Drivers/STM32F1xx_HAL_Driver/Inc/stm32f1xx_ll_utils.h ****   */
 158:Drivers/STM32F1xx_HAL_Driver/Inc/stm32f1xx_ll_utils.h **** 
 159:Drivers/STM32F1xx_HAL_Driver/Inc/stm32f1xx_ll_utils.h **** /** @defgroup UTILS_EF_DEVICE_ELECTRONIC_SIGNATURE DEVICE ELECTRONIC SIGNATURE
 160:Drivers/STM32F1xx_HAL_Driver/Inc/stm32f1xx_ll_utils.h ****   * @{
 161:Drivers/STM32F1xx_HAL_Driver/Inc/stm32f1xx_ll_utils.h ****   */
 162:Drivers/STM32F1xx_HAL_Driver/Inc/stm32f1xx_ll_utils.h **** 
 163:Drivers/STM32F1xx_HAL_Driver/Inc/stm32f1xx_ll_utils.h **** /**
 164:Drivers/STM32F1xx_HAL_Driver/Inc/stm32f1xx_ll_utils.h ****   * @brief  Get Word0 of the unique device identifier (UID based on 96 bits)
 165:Drivers/STM32F1xx_HAL_Driver/Inc/stm32f1xx_ll_utils.h ****   * @retval UID[31:0]
 166:Drivers/STM32F1xx_HAL_Driver/Inc/stm32f1xx_ll_utils.h ****   */
 167:Drivers/STM32F1xx_HAL_Driver/Inc/stm32f1xx_ll_utils.h **** __STATIC_INLINE uint32_t LL_GetUID_Word0(void)
 168:Drivers/STM32F1xx_HAL_Driver/Inc/stm32f1xx_ll_utils.h **** {
 169:Drivers/STM32F1xx_HAL_Driver/Inc/stm32f1xx_ll_utils.h ****   return (uint32_t)(READ_REG(*((uint32_t *)UID_BASE_ADDRESS)));
 170:Drivers/STM32F1xx_HAL_Driver/Inc/stm32f1xx_ll_utils.h **** }
 171:Drivers/STM32F1xx_HAL_Driver/Inc/stm32f1xx_ll_utils.h **** 
 172:Drivers/STM32F1xx_HAL_Driver/Inc/stm32f1xx_ll_utils.h **** /**
 173:Drivers/STM32F1xx_HAL_Driver/Inc/stm32f1xx_ll_utils.h ****   * @brief  Get Word1 of the unique device identifier (UID based on 96 bits)
 174:Drivers/STM32F1xx_HAL_Driver/Inc/stm32f1xx_ll_utils.h ****   * @retval UID[63:32]
 175:Drivers/STM32F1xx_HAL_Driver/Inc/stm32f1xx_ll_utils.h ****   */
 176:Drivers/STM32F1xx_HAL_Driver/Inc/stm32f1xx_ll_utils.h **** __STATIC_INLINE uint32_t LL_GetUID_Word1(void)
 177:Drivers/STM32F1xx_HAL_Driver/Inc/stm32f1xx_ll_utils.h **** {
 178:Drivers/STM32F1xx_HAL_Driver/Inc/stm32f1xx_ll_utils.h ****   return (uint32_t)(READ_REG(*((uint32_t *)(UID_BASE_ADDRESS + 4U))));
 179:Drivers/STM32F1xx_HAL_Driver/Inc/stm32f1xx_ll_utils.h **** }
 180:Drivers/STM32F1xx_HAL_Driver/Inc/stm32f1xx_ll_utils.h **** 
 181:Drivers/STM32F1xx_HAL_Driver/Inc/stm32f1xx_ll_utils.h **** /**
 182:Drivers/STM32F1xx_HAL_Driver/Inc/stm32f1xx_ll_utils.h ****   * @brief  Get Word2 of the unique device identifier (UID based on 96 bits)
 183:Drivers/STM32F1xx_HAL_Driver/Inc/stm32f1xx_ll_utils.h ****   * @retval UID[95:64]
 184:Drivers/STM32F1xx_HAL_Driver/Inc/stm32f1xx_ll_utils.h ****   */
 185:Drivers/STM32F1xx_HAL_Driver/Inc/stm32f1xx_ll_utils.h **** __STATIC_INLINE uint32_t LL_GetUID_Word2(void)
 186:Drivers/STM32F1xx_HAL_Driver/Inc/stm32f1xx_ll_utils.h **** {
 187:Drivers/STM32F1xx_HAL_Driver/Inc/stm32f1xx_ll_utils.h ****   return (uint32_t)(READ_REG(*((uint32_t *)(UID_BASE_ADDRESS + 8U))));
 188:Drivers/STM32F1xx_HAL_Driver/Inc/stm32f1xx_ll_utils.h **** }
 189:Drivers/STM32F1xx_HAL_Driver/Inc/stm32f1xx_ll_utils.h **** 
 190:Drivers/STM32F1xx_HAL_Driver/Inc/stm32f1xx_ll_utils.h **** /**
 191:Drivers/STM32F1xx_HAL_Driver/Inc/stm32f1xx_ll_utils.h ****   * @brief  Get Flash memory size
 192:Drivers/STM32F1xx_HAL_Driver/Inc/stm32f1xx_ll_utils.h ****   * @note   This bitfield indicates the size of the device Flash memory expressed in
 193:Drivers/STM32F1xx_HAL_Driver/Inc/stm32f1xx_ll_utils.h ****   *         Kbytes. As an example, 0x040 corresponds to 64 Kbytes.
ARM GAS  /tmp/ccmpGAeh.s 			page 43


 194:Drivers/STM32F1xx_HAL_Driver/Inc/stm32f1xx_ll_utils.h ****   * @retval FLASH_SIZE[15:0]: Flash memory size
 195:Drivers/STM32F1xx_HAL_Driver/Inc/stm32f1xx_ll_utils.h ****   */
 196:Drivers/STM32F1xx_HAL_Driver/Inc/stm32f1xx_ll_utils.h **** __STATIC_INLINE uint32_t LL_GetFlashSize(void)
 197:Drivers/STM32F1xx_HAL_Driver/Inc/stm32f1xx_ll_utils.h **** {
 198:Drivers/STM32F1xx_HAL_Driver/Inc/stm32f1xx_ll_utils.h ****   return (uint16_t)(READ_REG(*((uint32_t *)FLASHSIZE_BASE_ADDRESS)));
 199:Drivers/STM32F1xx_HAL_Driver/Inc/stm32f1xx_ll_utils.h **** }
 200:Drivers/STM32F1xx_HAL_Driver/Inc/stm32f1xx_ll_utils.h **** 
 201:Drivers/STM32F1xx_HAL_Driver/Inc/stm32f1xx_ll_utils.h **** 
 202:Drivers/STM32F1xx_HAL_Driver/Inc/stm32f1xx_ll_utils.h **** /**
 203:Drivers/STM32F1xx_HAL_Driver/Inc/stm32f1xx_ll_utils.h ****   * @}
 204:Drivers/STM32F1xx_HAL_Driver/Inc/stm32f1xx_ll_utils.h ****   */
 205:Drivers/STM32F1xx_HAL_Driver/Inc/stm32f1xx_ll_utils.h **** 
 206:Drivers/STM32F1xx_HAL_Driver/Inc/stm32f1xx_ll_utils.h **** /** @defgroup UTILS_LL_EF_DELAY DELAY
 207:Drivers/STM32F1xx_HAL_Driver/Inc/stm32f1xx_ll_utils.h ****   * @{
 208:Drivers/STM32F1xx_HAL_Driver/Inc/stm32f1xx_ll_utils.h ****   */
 209:Drivers/STM32F1xx_HAL_Driver/Inc/stm32f1xx_ll_utils.h **** 
 210:Drivers/STM32F1xx_HAL_Driver/Inc/stm32f1xx_ll_utils.h **** /**
 211:Drivers/STM32F1xx_HAL_Driver/Inc/stm32f1xx_ll_utils.h ****   * @brief  This function configures the Cortex-M SysTick source of the time base.
 212:Drivers/STM32F1xx_HAL_Driver/Inc/stm32f1xx_ll_utils.h ****   * @param  HCLKFrequency HCLK frequency in Hz (can be calculated thanks to RCC helper macro)
 213:Drivers/STM32F1xx_HAL_Driver/Inc/stm32f1xx_ll_utils.h ****   * @note   When a RTOS is used, it is recommended to avoid changing the SysTick
 214:Drivers/STM32F1xx_HAL_Driver/Inc/stm32f1xx_ll_utils.h ****   *         configuration by calling this function, for a delay use rather osDelay RTOS service.
 215:Drivers/STM32F1xx_HAL_Driver/Inc/stm32f1xx_ll_utils.h ****   * @param  Ticks Number of ticks
 216:Drivers/STM32F1xx_HAL_Driver/Inc/stm32f1xx_ll_utils.h ****   * @retval None
 217:Drivers/STM32F1xx_HAL_Driver/Inc/stm32f1xx_ll_utils.h ****   */
 218:Drivers/STM32F1xx_HAL_Driver/Inc/stm32f1xx_ll_utils.h **** __STATIC_INLINE void LL_InitTick(uint32_t HCLKFrequency, uint32_t Ticks)
 219:Drivers/STM32F1xx_HAL_Driver/Inc/stm32f1xx_ll_utils.h **** {
 746              		.loc 2 219 1
 747              		.cfi_startproc
 748              		@ args = 0, pretend = 0, frame = 8
 749              		@ frame_needed = 1, uses_anonymous_args = 0
 750              		@ link register save eliminated.
 751 0000 80B4     		push	{r7}
 752              	.LCFI70:
 753              		.cfi_def_cfa_offset 4
 754              		.cfi_offset 7, -4
 755 0002 83B0     		sub	sp, sp, #12
 756              	.LCFI71:
 757              		.cfi_def_cfa_offset 16
 758 0004 00AF     		add	r7, sp, #0
 759              	.LCFI72:
 760              		.cfi_def_cfa_register 7
 761 0006 7860     		str	r0, [r7, #4]
 762 0008 3960     		str	r1, [r7]
 220:Drivers/STM32F1xx_HAL_Driver/Inc/stm32f1xx_ll_utils.h ****   /* Configure the SysTick to have interrupt in 1ms time base */
 221:Drivers/STM32F1xx_HAL_Driver/Inc/stm32f1xx_ll_utils.h ****   SysTick->LOAD  = (uint32_t)((HCLKFrequency / Ticks) - 1UL);  /* set reload register */
 763              		.loc 2 221 46
 764 000a 7A68     		ldr	r2, [r7, #4]
 765 000c 3B68     		ldr	r3, [r7]
 766 000e B2FBF3F3 		udiv	r3, r2, r3
 767              		.loc 2 221 10
 768 0012 074A     		ldr	r2, .L52
 769              		.loc 2 221 20
 770 0014 013B     		subs	r3, r3, #1
 771              		.loc 2 221 18
 772 0016 5360     		str	r3, [r2, #4]
 222:Drivers/STM32F1xx_HAL_Driver/Inc/stm32f1xx_ll_utils.h ****   SysTick->VAL   = 0UL;                                       /* Load the SysTick Counter Value */
 773              		.loc 2 222 10
ARM GAS  /tmp/ccmpGAeh.s 			page 44


 774 0018 054B     		ldr	r3, .L52
 775              		.loc 2 222 18
 776 001a 0022     		movs	r2, #0
 777 001c 9A60     		str	r2, [r3, #8]
 223:Drivers/STM32F1xx_HAL_Driver/Inc/stm32f1xx_ll_utils.h ****   SysTick->CTRL  = SysTick_CTRL_CLKSOURCE_Msk |
 778              		.loc 2 223 10
 779 001e 044B     		ldr	r3, .L52
 780              		.loc 2 223 18
 781 0020 0522     		movs	r2, #5
 782 0022 1A60     		str	r2, [r3]
 224:Drivers/STM32F1xx_HAL_Driver/Inc/stm32f1xx_ll_utils.h ****                    SysTick_CTRL_ENABLE_Msk;                   /* Enable the Systick Timer */
 225:Drivers/STM32F1xx_HAL_Driver/Inc/stm32f1xx_ll_utils.h **** }
 783              		.loc 2 225 1
 784 0024 00BF     		nop
 785 0026 0C37     		adds	r7, r7, #12
 786              	.LCFI73:
 787              		.cfi_def_cfa_offset 4
 788 0028 BD46     		mov	sp, r7
 789              	.LCFI74:
 790              		.cfi_def_cfa_register 13
 791              		@ sp needed
 792 002a 80BC     		pop	{r7}
 793              	.LCFI75:
 794              		.cfi_restore 7
 795              		.cfi_def_cfa_offset 0
 796 002c 7047     		bx	lr
 797              	.L53:
 798 002e 00BF     		.align	2
 799              	.L52:
 800 0030 10E000E0 		.word	-536813552
 801              		.cfi_endproc
 802              	.LFE151:
 804              		.section	.text.LL_FLASH_SetLatency,"ax",%progbits
 805              		.align	1
 806              		.syntax unified
 807              		.thumb
 808              		.thumb_func
 810              	LL_FLASH_SetLatency:
 811              	.LFB166:
 812              		.file 3 "Drivers/STM32F1xx_HAL_Driver/Inc/stm32f1xx_ll_system.h"
   1:Drivers/STM32F1xx_HAL_Driver/Inc/stm32f1xx_ll_system.h **** /**
   2:Drivers/STM32F1xx_HAL_Driver/Inc/stm32f1xx_ll_system.h ****   ******************************************************************************
   3:Drivers/STM32F1xx_HAL_Driver/Inc/stm32f1xx_ll_system.h ****   * @file    stm32f1xx_ll_system.h
   4:Drivers/STM32F1xx_HAL_Driver/Inc/stm32f1xx_ll_system.h ****   * @author  MCD Application Team
   5:Drivers/STM32F1xx_HAL_Driver/Inc/stm32f1xx_ll_system.h ****   * @brief   Header file of SYSTEM LL module.
   6:Drivers/STM32F1xx_HAL_Driver/Inc/stm32f1xx_ll_system.h ****   *
   7:Drivers/STM32F1xx_HAL_Driver/Inc/stm32f1xx_ll_system.h ****   ******************************************************************************
   8:Drivers/STM32F1xx_HAL_Driver/Inc/stm32f1xx_ll_system.h ****   * @attention
   9:Drivers/STM32F1xx_HAL_Driver/Inc/stm32f1xx_ll_system.h ****   *
  10:Drivers/STM32F1xx_HAL_Driver/Inc/stm32f1xx_ll_system.h ****   * Copyright (c) 2016 STMicroelectronics.
  11:Drivers/STM32F1xx_HAL_Driver/Inc/stm32f1xx_ll_system.h ****   * All rights reserved.
  12:Drivers/STM32F1xx_HAL_Driver/Inc/stm32f1xx_ll_system.h ****   *
  13:Drivers/STM32F1xx_HAL_Driver/Inc/stm32f1xx_ll_system.h ****   * This software is licensed under terms that can be found in the LICENSE file
  14:Drivers/STM32F1xx_HAL_Driver/Inc/stm32f1xx_ll_system.h ****   * in the root directory of this software component.
  15:Drivers/STM32F1xx_HAL_Driver/Inc/stm32f1xx_ll_system.h ****   * If no LICENSE file comes with this software, it is provided AS-IS.
  16:Drivers/STM32F1xx_HAL_Driver/Inc/stm32f1xx_ll_system.h ****   *
  17:Drivers/STM32F1xx_HAL_Driver/Inc/stm32f1xx_ll_system.h ****   ******************************************************************************
ARM GAS  /tmp/ccmpGAeh.s 			page 45


  18:Drivers/STM32F1xx_HAL_Driver/Inc/stm32f1xx_ll_system.h ****   @verbatim
  19:Drivers/STM32F1xx_HAL_Driver/Inc/stm32f1xx_ll_system.h ****   ==============================================================================
  20:Drivers/STM32F1xx_HAL_Driver/Inc/stm32f1xx_ll_system.h ****                      ##### How to use this driver #####
  21:Drivers/STM32F1xx_HAL_Driver/Inc/stm32f1xx_ll_system.h ****   ==============================================================================
  22:Drivers/STM32F1xx_HAL_Driver/Inc/stm32f1xx_ll_system.h ****     [..]
  23:Drivers/STM32F1xx_HAL_Driver/Inc/stm32f1xx_ll_system.h ****     The LL SYSTEM driver contains a set of generic APIs that can be
  24:Drivers/STM32F1xx_HAL_Driver/Inc/stm32f1xx_ll_system.h ****     used by user:
  25:Drivers/STM32F1xx_HAL_Driver/Inc/stm32f1xx_ll_system.h ****       (+) Some of the FLASH features need to be handled in the SYSTEM file.
  26:Drivers/STM32F1xx_HAL_Driver/Inc/stm32f1xx_ll_system.h ****       (+) Access to DBGCMU registers
  27:Drivers/STM32F1xx_HAL_Driver/Inc/stm32f1xx_ll_system.h ****       (+) Access to SYSCFG registers
  28:Drivers/STM32F1xx_HAL_Driver/Inc/stm32f1xx_ll_system.h **** 
  29:Drivers/STM32F1xx_HAL_Driver/Inc/stm32f1xx_ll_system.h ****   @endverbatim
  30:Drivers/STM32F1xx_HAL_Driver/Inc/stm32f1xx_ll_system.h ****   ******************************************************************************
  31:Drivers/STM32F1xx_HAL_Driver/Inc/stm32f1xx_ll_system.h ****   */
  32:Drivers/STM32F1xx_HAL_Driver/Inc/stm32f1xx_ll_system.h **** 
  33:Drivers/STM32F1xx_HAL_Driver/Inc/stm32f1xx_ll_system.h **** /* Define to prevent recursive inclusion -------------------------------------*/
  34:Drivers/STM32F1xx_HAL_Driver/Inc/stm32f1xx_ll_system.h **** #ifndef __STM32F1xx_LL_SYSTEM_H
  35:Drivers/STM32F1xx_HAL_Driver/Inc/stm32f1xx_ll_system.h **** #define __STM32F1xx_LL_SYSTEM_H
  36:Drivers/STM32F1xx_HAL_Driver/Inc/stm32f1xx_ll_system.h **** 
  37:Drivers/STM32F1xx_HAL_Driver/Inc/stm32f1xx_ll_system.h **** #ifdef __cplusplus
  38:Drivers/STM32F1xx_HAL_Driver/Inc/stm32f1xx_ll_system.h **** extern "C" {
  39:Drivers/STM32F1xx_HAL_Driver/Inc/stm32f1xx_ll_system.h **** #endif
  40:Drivers/STM32F1xx_HAL_Driver/Inc/stm32f1xx_ll_system.h **** 
  41:Drivers/STM32F1xx_HAL_Driver/Inc/stm32f1xx_ll_system.h **** /* Includes ------------------------------------------------------------------*/
  42:Drivers/STM32F1xx_HAL_Driver/Inc/stm32f1xx_ll_system.h **** #include "stm32f1xx.h"
  43:Drivers/STM32F1xx_HAL_Driver/Inc/stm32f1xx_ll_system.h **** 
  44:Drivers/STM32F1xx_HAL_Driver/Inc/stm32f1xx_ll_system.h **** /** @addtogroup STM32F1xx_LL_Driver
  45:Drivers/STM32F1xx_HAL_Driver/Inc/stm32f1xx_ll_system.h ****   * @{
  46:Drivers/STM32F1xx_HAL_Driver/Inc/stm32f1xx_ll_system.h ****   */
  47:Drivers/STM32F1xx_HAL_Driver/Inc/stm32f1xx_ll_system.h **** 
  48:Drivers/STM32F1xx_HAL_Driver/Inc/stm32f1xx_ll_system.h **** #if defined (FLASH) || defined (DBGMCU)
  49:Drivers/STM32F1xx_HAL_Driver/Inc/stm32f1xx_ll_system.h **** 
  50:Drivers/STM32F1xx_HAL_Driver/Inc/stm32f1xx_ll_system.h **** /** @defgroup SYSTEM_LL SYSTEM
  51:Drivers/STM32F1xx_HAL_Driver/Inc/stm32f1xx_ll_system.h ****   * @{
  52:Drivers/STM32F1xx_HAL_Driver/Inc/stm32f1xx_ll_system.h ****   */
  53:Drivers/STM32F1xx_HAL_Driver/Inc/stm32f1xx_ll_system.h **** 
  54:Drivers/STM32F1xx_HAL_Driver/Inc/stm32f1xx_ll_system.h **** /* Private types -------------------------------------------------------------*/
  55:Drivers/STM32F1xx_HAL_Driver/Inc/stm32f1xx_ll_system.h **** /* Private variables ---------------------------------------------------------*/
  56:Drivers/STM32F1xx_HAL_Driver/Inc/stm32f1xx_ll_system.h **** 
  57:Drivers/STM32F1xx_HAL_Driver/Inc/stm32f1xx_ll_system.h **** /* Private constants ---------------------------------------------------------*/
  58:Drivers/STM32F1xx_HAL_Driver/Inc/stm32f1xx_ll_system.h **** /** @defgroup SYSTEM_LL_Private_Constants SYSTEM Private Constants
  59:Drivers/STM32F1xx_HAL_Driver/Inc/stm32f1xx_ll_system.h ****   * @{
  60:Drivers/STM32F1xx_HAL_Driver/Inc/stm32f1xx_ll_system.h ****   */
  61:Drivers/STM32F1xx_HAL_Driver/Inc/stm32f1xx_ll_system.h **** 
  62:Drivers/STM32F1xx_HAL_Driver/Inc/stm32f1xx_ll_system.h **** /**
  63:Drivers/STM32F1xx_HAL_Driver/Inc/stm32f1xx_ll_system.h ****   * @}
  64:Drivers/STM32F1xx_HAL_Driver/Inc/stm32f1xx_ll_system.h ****   */
  65:Drivers/STM32F1xx_HAL_Driver/Inc/stm32f1xx_ll_system.h **** 
  66:Drivers/STM32F1xx_HAL_Driver/Inc/stm32f1xx_ll_system.h **** /* Private macros ------------------------------------------------------------*/
  67:Drivers/STM32F1xx_HAL_Driver/Inc/stm32f1xx_ll_system.h **** 
  68:Drivers/STM32F1xx_HAL_Driver/Inc/stm32f1xx_ll_system.h **** /* Exported types ------------------------------------------------------------*/
  69:Drivers/STM32F1xx_HAL_Driver/Inc/stm32f1xx_ll_system.h **** /* Exported constants --------------------------------------------------------*/
  70:Drivers/STM32F1xx_HAL_Driver/Inc/stm32f1xx_ll_system.h **** /** @defgroup SYSTEM_LL_Exported_Constants SYSTEM Exported Constants
  71:Drivers/STM32F1xx_HAL_Driver/Inc/stm32f1xx_ll_system.h ****   * @{
  72:Drivers/STM32F1xx_HAL_Driver/Inc/stm32f1xx_ll_system.h ****   */
  73:Drivers/STM32F1xx_HAL_Driver/Inc/stm32f1xx_ll_system.h **** 
  74:Drivers/STM32F1xx_HAL_Driver/Inc/stm32f1xx_ll_system.h **** 
ARM GAS  /tmp/ccmpGAeh.s 			page 46


  75:Drivers/STM32F1xx_HAL_Driver/Inc/stm32f1xx_ll_system.h **** 
  76:Drivers/STM32F1xx_HAL_Driver/Inc/stm32f1xx_ll_system.h **** /** @defgroup SYSTEM_LL_EC_TRACE DBGMCU TRACE Pin Assignment
  77:Drivers/STM32F1xx_HAL_Driver/Inc/stm32f1xx_ll_system.h ****   * @{
  78:Drivers/STM32F1xx_HAL_Driver/Inc/stm32f1xx_ll_system.h ****   */
  79:Drivers/STM32F1xx_HAL_Driver/Inc/stm32f1xx_ll_system.h **** #define LL_DBGMCU_TRACE_NONE               0x00000000U                                     /*!< TRA
  80:Drivers/STM32F1xx_HAL_Driver/Inc/stm32f1xx_ll_system.h **** #define LL_DBGMCU_TRACE_ASYNCH             DBGMCU_CR_TRACE_IOEN                            /*!< TRA
  81:Drivers/STM32F1xx_HAL_Driver/Inc/stm32f1xx_ll_system.h **** #define LL_DBGMCU_TRACE_SYNCH_SIZE1        (DBGMCU_CR_TRACE_IOEN | DBGMCU_CR_TRACE_MODE_0) /*!< TRA
  82:Drivers/STM32F1xx_HAL_Driver/Inc/stm32f1xx_ll_system.h **** #define LL_DBGMCU_TRACE_SYNCH_SIZE2        (DBGMCU_CR_TRACE_IOEN | DBGMCU_CR_TRACE_MODE_1) /*!< TRA
  83:Drivers/STM32F1xx_HAL_Driver/Inc/stm32f1xx_ll_system.h **** #define LL_DBGMCU_TRACE_SYNCH_SIZE4        (DBGMCU_CR_TRACE_IOEN | DBGMCU_CR_TRACE_MODE)   /*!< TRA
  84:Drivers/STM32F1xx_HAL_Driver/Inc/stm32f1xx_ll_system.h **** /**
  85:Drivers/STM32F1xx_HAL_Driver/Inc/stm32f1xx_ll_system.h ****   * @}
  86:Drivers/STM32F1xx_HAL_Driver/Inc/stm32f1xx_ll_system.h ****   */
  87:Drivers/STM32F1xx_HAL_Driver/Inc/stm32f1xx_ll_system.h **** 
  88:Drivers/STM32F1xx_HAL_Driver/Inc/stm32f1xx_ll_system.h **** /** @defgroup SYSTEM_LL_EC_APB1_GRP1_STOP_IP DBGMCU APB1 GRP1 STOP IP
  89:Drivers/STM32F1xx_HAL_Driver/Inc/stm32f1xx_ll_system.h ****   * @{
  90:Drivers/STM32F1xx_HAL_Driver/Inc/stm32f1xx_ll_system.h ****   */
  91:Drivers/STM32F1xx_HAL_Driver/Inc/stm32f1xx_ll_system.h **** #define LL_DBGMCU_APB1_GRP1_TIM2_STOP      DBGMCU_CR_DBG_TIM2_STOP          /*!< TIM2 counter stopp
  92:Drivers/STM32F1xx_HAL_Driver/Inc/stm32f1xx_ll_system.h **** #define LL_DBGMCU_APB1_GRP1_TIM3_STOP      DBGMCU_CR_DBG_TIM3_STOP          /*!< TIM3 counter stopp
  93:Drivers/STM32F1xx_HAL_Driver/Inc/stm32f1xx_ll_system.h **** #define LL_DBGMCU_APB1_GRP1_TIM4_STOP      DBGMCU_CR_DBG_TIM4_STOP          /*!< TIM4 counter stopp
  94:Drivers/STM32F1xx_HAL_Driver/Inc/stm32f1xx_ll_system.h **** #if defined(DBGMCU_CR_DBG_TIM5_STOP)
  95:Drivers/STM32F1xx_HAL_Driver/Inc/stm32f1xx_ll_system.h **** #define LL_DBGMCU_APB1_GRP1_TIM5_STOP      DBGMCU_CR_DBG_TIM5_STOP          /*!< TIM5 counter stopp
  96:Drivers/STM32F1xx_HAL_Driver/Inc/stm32f1xx_ll_system.h **** #endif /* DBGMCU_CR_DBG_TIM5_STOP */
  97:Drivers/STM32F1xx_HAL_Driver/Inc/stm32f1xx_ll_system.h **** #if defined(DBGMCU_CR_DBG_TIM6_STOP)
  98:Drivers/STM32F1xx_HAL_Driver/Inc/stm32f1xx_ll_system.h **** #define LL_DBGMCU_APB1_GRP1_TIM6_STOP      DBGMCU_CR_DBG_TIM6_STOP          /*!< TIM6 counter stopp
  99:Drivers/STM32F1xx_HAL_Driver/Inc/stm32f1xx_ll_system.h **** #endif /* DBGMCU_CR_DBG_TIM6_STOP */
 100:Drivers/STM32F1xx_HAL_Driver/Inc/stm32f1xx_ll_system.h **** #if defined(DBGMCU_CR_DBG_TIM7_STOP)
 101:Drivers/STM32F1xx_HAL_Driver/Inc/stm32f1xx_ll_system.h **** #define LL_DBGMCU_APB1_GRP1_TIM7_STOP      DBGMCU_CR_DBG_TIM7_STOP          /*!< TIM7 counter stopp
 102:Drivers/STM32F1xx_HAL_Driver/Inc/stm32f1xx_ll_system.h **** #endif /* DBGMCU_CR_DBG_TIM7_STOP */
 103:Drivers/STM32F1xx_HAL_Driver/Inc/stm32f1xx_ll_system.h **** #if defined(DBGMCU_CR_DBG_TIM12_STOP)
 104:Drivers/STM32F1xx_HAL_Driver/Inc/stm32f1xx_ll_system.h **** #define LL_DBGMCU_APB1_GRP1_TIM12_STOP     DBGMCU_CR_DBG_TIM12_STOP         /*!< TIM12 counter stop
 105:Drivers/STM32F1xx_HAL_Driver/Inc/stm32f1xx_ll_system.h **** #endif /* DBGMCU_CR_DBG_TIM12_STOP */
 106:Drivers/STM32F1xx_HAL_Driver/Inc/stm32f1xx_ll_system.h **** #if defined(DBGMCU_CR_DBG_TIM13_STOP)
 107:Drivers/STM32F1xx_HAL_Driver/Inc/stm32f1xx_ll_system.h **** #define LL_DBGMCU_APB1_GRP1_TIM13_STOP     DBGMCU_CR_DBG_TIM13_STOP         /*!< TIM13 counter stop
 108:Drivers/STM32F1xx_HAL_Driver/Inc/stm32f1xx_ll_system.h **** #endif /* DBGMCU_CR_DBG_TIM13_STOP */
 109:Drivers/STM32F1xx_HAL_Driver/Inc/stm32f1xx_ll_system.h **** #if defined(DBGMCU_CR_DBG_TIM14_STOP)
 110:Drivers/STM32F1xx_HAL_Driver/Inc/stm32f1xx_ll_system.h **** #define LL_DBGMCU_APB1_GRP1_TIM14_STOP     DBGMCU_CR_DBG_TIM14_STOP         /*!< TIM14 counter stop
 111:Drivers/STM32F1xx_HAL_Driver/Inc/stm32f1xx_ll_system.h **** #endif /* DBGMCU_CR_DBG_TIM14_STOP */
 112:Drivers/STM32F1xx_HAL_Driver/Inc/stm32f1xx_ll_system.h **** #define LL_DBGMCU_APB1_GRP1_WWDG_STOP      DBGMCU_CR_DBG_WWDG_STOP          /*!< Debug Window Watch
 113:Drivers/STM32F1xx_HAL_Driver/Inc/stm32f1xx_ll_system.h **** #define LL_DBGMCU_APB1_GRP1_IWDG_STOP      DBGMCU_CR_DBG_IWDG_STOP          /*!< Debug Independent 
 114:Drivers/STM32F1xx_HAL_Driver/Inc/stm32f1xx_ll_system.h **** #define LL_DBGMCU_APB1_GRP1_I2C1_STOP      DBGMCU_CR_DBG_I2C1_SMBUS_TIMEOUT /*!< I2C1 SMBUS timeout
 115:Drivers/STM32F1xx_HAL_Driver/Inc/stm32f1xx_ll_system.h **** #if defined(DBGMCU_CR_DBG_I2C2_SMBUS_TIMEOUT)
 116:Drivers/STM32F1xx_HAL_Driver/Inc/stm32f1xx_ll_system.h **** #define LL_DBGMCU_APB1_GRP1_I2C2_STOP      DBGMCU_CR_DBG_I2C2_SMBUS_TIMEOUT /*!< I2C2 SMBUS timeout
 117:Drivers/STM32F1xx_HAL_Driver/Inc/stm32f1xx_ll_system.h **** #endif /* DBGMCU_CR_DBG_I2C2_SMBUS_TIMEOUT */
 118:Drivers/STM32F1xx_HAL_Driver/Inc/stm32f1xx_ll_system.h **** #if defined(DBGMCU_CR_DBG_CAN1_STOP)
 119:Drivers/STM32F1xx_HAL_Driver/Inc/stm32f1xx_ll_system.h **** #define LL_DBGMCU_APB1_GRP1_CAN1_STOP      DBGMCU_CR_DBG_CAN1_STOP          /*!< CAN1 debug stopped
 120:Drivers/STM32F1xx_HAL_Driver/Inc/stm32f1xx_ll_system.h **** #endif /* DBGMCU_CR_DBG_CAN1_STOP */
 121:Drivers/STM32F1xx_HAL_Driver/Inc/stm32f1xx_ll_system.h **** #if defined(DBGMCU_CR_DBG_CAN2_STOP)
 122:Drivers/STM32F1xx_HAL_Driver/Inc/stm32f1xx_ll_system.h **** #define LL_DBGMCU_APB1_GRP1_CAN2_STOP      DBGMCU_CR_DBG_CAN2_STOP          /*!< CAN2 debug stopped
 123:Drivers/STM32F1xx_HAL_Driver/Inc/stm32f1xx_ll_system.h **** #endif /* DBGMCU_CR_DBG_CAN2_STOP */
 124:Drivers/STM32F1xx_HAL_Driver/Inc/stm32f1xx_ll_system.h **** /**
 125:Drivers/STM32F1xx_HAL_Driver/Inc/stm32f1xx_ll_system.h ****   * @}
 126:Drivers/STM32F1xx_HAL_Driver/Inc/stm32f1xx_ll_system.h ****   */
 127:Drivers/STM32F1xx_HAL_Driver/Inc/stm32f1xx_ll_system.h **** 
 128:Drivers/STM32F1xx_HAL_Driver/Inc/stm32f1xx_ll_system.h **** /** @defgroup SYSTEM_LL_EC_APB2_GRP1_STOP_IP DBGMCU APB2 GRP1 STOP IP
 129:Drivers/STM32F1xx_HAL_Driver/Inc/stm32f1xx_ll_system.h ****   * @{
 130:Drivers/STM32F1xx_HAL_Driver/Inc/stm32f1xx_ll_system.h ****   */
 131:Drivers/STM32F1xx_HAL_Driver/Inc/stm32f1xx_ll_system.h **** #define LL_DBGMCU_APB2_GRP1_TIM1_STOP      DBGMCU_CR_DBG_TIM1_STOP   /*!< TIM1 counter stopped when
ARM GAS  /tmp/ccmpGAeh.s 			page 47


 132:Drivers/STM32F1xx_HAL_Driver/Inc/stm32f1xx_ll_system.h **** #if defined(DBGMCU_CR_DBG_TIM8_STOP)
 133:Drivers/STM32F1xx_HAL_Driver/Inc/stm32f1xx_ll_system.h **** #define LL_DBGMCU_APB2_GRP1_TIM8_STOP      DBGMCU_CR_DBG_TIM8_STOP   /*!< TIM8 counter stopped when
 134:Drivers/STM32F1xx_HAL_Driver/Inc/stm32f1xx_ll_system.h **** #endif /* DBGMCU_CR_DBG_CAN1_STOP */
 135:Drivers/STM32F1xx_HAL_Driver/Inc/stm32f1xx_ll_system.h **** #if defined(DBGMCU_CR_DBG_TIM9_STOP)
 136:Drivers/STM32F1xx_HAL_Driver/Inc/stm32f1xx_ll_system.h **** #define LL_DBGMCU_APB2_GRP1_TIM9_STOP      DBGMCU_CR_DBG_TIM9_STOP   /*!< TIM9 counter stopped when
 137:Drivers/STM32F1xx_HAL_Driver/Inc/stm32f1xx_ll_system.h **** #endif /* DBGMCU_CR_DBG_TIM9_STOP */
 138:Drivers/STM32F1xx_HAL_Driver/Inc/stm32f1xx_ll_system.h **** #if defined(DBGMCU_CR_DBG_TIM10_STOP)
 139:Drivers/STM32F1xx_HAL_Driver/Inc/stm32f1xx_ll_system.h **** #define LL_DBGMCU_APB2_GRP1_TIM10_STOP     DBGMCU_CR_DBG_TIM10_STOP   /*!< TIM10 counter stopped wh
 140:Drivers/STM32F1xx_HAL_Driver/Inc/stm32f1xx_ll_system.h **** #endif /* DBGMCU_CR_DBG_TIM10_STOP */
 141:Drivers/STM32F1xx_HAL_Driver/Inc/stm32f1xx_ll_system.h **** #if defined(DBGMCU_CR_DBG_TIM11_STOP)
 142:Drivers/STM32F1xx_HAL_Driver/Inc/stm32f1xx_ll_system.h **** #define LL_DBGMCU_APB2_GRP1_TIM11_STOP     DBGMCU_CR_DBG_TIM11_STOP   /*!< TIM11 counter stopped wh
 143:Drivers/STM32F1xx_HAL_Driver/Inc/stm32f1xx_ll_system.h **** #endif /* DBGMCU_CR_DBG_TIM11_STOP */
 144:Drivers/STM32F1xx_HAL_Driver/Inc/stm32f1xx_ll_system.h **** #if defined(DBGMCU_CR_DBG_TIM15_STOP)
 145:Drivers/STM32F1xx_HAL_Driver/Inc/stm32f1xx_ll_system.h **** #define LL_DBGMCU_APB2_GRP1_TIM15_STOP     DBGMCU_CR_DBG_TIM15_STOP   /*!< TIM15 counter stopped wh
 146:Drivers/STM32F1xx_HAL_Driver/Inc/stm32f1xx_ll_system.h **** #endif /* DBGMCU_CR_DBG_TIM15_STOP */
 147:Drivers/STM32F1xx_HAL_Driver/Inc/stm32f1xx_ll_system.h **** #if defined(DBGMCU_CR_DBG_TIM16_STOP)
 148:Drivers/STM32F1xx_HAL_Driver/Inc/stm32f1xx_ll_system.h **** #define LL_DBGMCU_APB2_GRP1_TIM16_STOP     DBGMCU_CR_DBG_TIM16_STOP   /*!< TIM16 counter stopped wh
 149:Drivers/STM32F1xx_HAL_Driver/Inc/stm32f1xx_ll_system.h **** #endif /* DBGMCU_CR_DBG_TIM16_STOP */
 150:Drivers/STM32F1xx_HAL_Driver/Inc/stm32f1xx_ll_system.h **** #if defined(DBGMCU_CR_DBG_TIM17_STOP)
 151:Drivers/STM32F1xx_HAL_Driver/Inc/stm32f1xx_ll_system.h **** #define LL_DBGMCU_APB2_GRP1_TIM17_STOP     DBGMCU_CR_DBG_TIM17_STOP   /*!< TIM17 counter stopped wh
 152:Drivers/STM32F1xx_HAL_Driver/Inc/stm32f1xx_ll_system.h **** #endif /* DBGMCU_CR_DBG_TIM17_STOP */
 153:Drivers/STM32F1xx_HAL_Driver/Inc/stm32f1xx_ll_system.h **** /**
 154:Drivers/STM32F1xx_HAL_Driver/Inc/stm32f1xx_ll_system.h ****   * @}
 155:Drivers/STM32F1xx_HAL_Driver/Inc/stm32f1xx_ll_system.h ****   */
 156:Drivers/STM32F1xx_HAL_Driver/Inc/stm32f1xx_ll_system.h **** 
 157:Drivers/STM32F1xx_HAL_Driver/Inc/stm32f1xx_ll_system.h **** /** @defgroup SYSTEM_LL_EC_LATENCY FLASH LATENCY
 158:Drivers/STM32F1xx_HAL_Driver/Inc/stm32f1xx_ll_system.h ****   * @{
 159:Drivers/STM32F1xx_HAL_Driver/Inc/stm32f1xx_ll_system.h ****   */
 160:Drivers/STM32F1xx_HAL_Driver/Inc/stm32f1xx_ll_system.h **** #if defined(FLASH_ACR_LATENCY)
 161:Drivers/STM32F1xx_HAL_Driver/Inc/stm32f1xx_ll_system.h **** #define LL_FLASH_LATENCY_0                 0x00000000U             /*!< FLASH Zero Latency cycle */
 162:Drivers/STM32F1xx_HAL_Driver/Inc/stm32f1xx_ll_system.h **** #define LL_FLASH_LATENCY_1                 FLASH_ACR_LATENCY_0     /*!< FLASH One Latency cycle */
 163:Drivers/STM32F1xx_HAL_Driver/Inc/stm32f1xx_ll_system.h **** #define LL_FLASH_LATENCY_2                 FLASH_ACR_LATENCY_1     /*!< FLASH Two wait states */
 164:Drivers/STM32F1xx_HAL_Driver/Inc/stm32f1xx_ll_system.h **** #else
 165:Drivers/STM32F1xx_HAL_Driver/Inc/stm32f1xx_ll_system.h **** #endif /* FLASH_ACR_LATENCY */
 166:Drivers/STM32F1xx_HAL_Driver/Inc/stm32f1xx_ll_system.h **** /**
 167:Drivers/STM32F1xx_HAL_Driver/Inc/stm32f1xx_ll_system.h ****   * @}
 168:Drivers/STM32F1xx_HAL_Driver/Inc/stm32f1xx_ll_system.h ****   */
 169:Drivers/STM32F1xx_HAL_Driver/Inc/stm32f1xx_ll_system.h **** 
 170:Drivers/STM32F1xx_HAL_Driver/Inc/stm32f1xx_ll_system.h **** /**
 171:Drivers/STM32F1xx_HAL_Driver/Inc/stm32f1xx_ll_system.h ****   * @}
 172:Drivers/STM32F1xx_HAL_Driver/Inc/stm32f1xx_ll_system.h ****   */
 173:Drivers/STM32F1xx_HAL_Driver/Inc/stm32f1xx_ll_system.h **** 
 174:Drivers/STM32F1xx_HAL_Driver/Inc/stm32f1xx_ll_system.h **** /* Exported macro ------------------------------------------------------------*/
 175:Drivers/STM32F1xx_HAL_Driver/Inc/stm32f1xx_ll_system.h **** 
 176:Drivers/STM32F1xx_HAL_Driver/Inc/stm32f1xx_ll_system.h **** /* Exported functions --------------------------------------------------------*/
 177:Drivers/STM32F1xx_HAL_Driver/Inc/stm32f1xx_ll_system.h **** /** @defgroup SYSTEM_LL_Exported_Functions SYSTEM Exported Functions
 178:Drivers/STM32F1xx_HAL_Driver/Inc/stm32f1xx_ll_system.h ****   * @{
 179:Drivers/STM32F1xx_HAL_Driver/Inc/stm32f1xx_ll_system.h ****   */
 180:Drivers/STM32F1xx_HAL_Driver/Inc/stm32f1xx_ll_system.h **** 
 181:Drivers/STM32F1xx_HAL_Driver/Inc/stm32f1xx_ll_system.h **** 
 182:Drivers/STM32F1xx_HAL_Driver/Inc/stm32f1xx_ll_system.h **** 
 183:Drivers/STM32F1xx_HAL_Driver/Inc/stm32f1xx_ll_system.h **** /** @defgroup SYSTEM_LL_EF_DBGMCU DBGMCU
 184:Drivers/STM32F1xx_HAL_Driver/Inc/stm32f1xx_ll_system.h ****   * @{
 185:Drivers/STM32F1xx_HAL_Driver/Inc/stm32f1xx_ll_system.h ****   */
 186:Drivers/STM32F1xx_HAL_Driver/Inc/stm32f1xx_ll_system.h **** 
 187:Drivers/STM32F1xx_HAL_Driver/Inc/stm32f1xx_ll_system.h **** /**
 188:Drivers/STM32F1xx_HAL_Driver/Inc/stm32f1xx_ll_system.h ****   * @brief  Return the device identifier
ARM GAS  /tmp/ccmpGAeh.s 			page 48


 189:Drivers/STM32F1xx_HAL_Driver/Inc/stm32f1xx_ll_system.h ****   * @note For Low Density devices, the device ID is 0x412
 190:Drivers/STM32F1xx_HAL_Driver/Inc/stm32f1xx_ll_system.h ****   * @note For Medium Density devices, the device ID is 0x410
 191:Drivers/STM32F1xx_HAL_Driver/Inc/stm32f1xx_ll_system.h ****   * @note For High Density devices, the device ID is 0x414
 192:Drivers/STM32F1xx_HAL_Driver/Inc/stm32f1xx_ll_system.h ****   * @note For XL Density devices, the device ID is 0x430
 193:Drivers/STM32F1xx_HAL_Driver/Inc/stm32f1xx_ll_system.h ****   * @note For Connectivity Line devices, the device ID is 0x418
 194:Drivers/STM32F1xx_HAL_Driver/Inc/stm32f1xx_ll_system.h ****   * @rmtoll DBGMCU_IDCODE DEV_ID        LL_DBGMCU_GetDeviceID
 195:Drivers/STM32F1xx_HAL_Driver/Inc/stm32f1xx_ll_system.h ****   * @retval Values between Min_Data=0x00 and Max_Data=0xFFF
 196:Drivers/STM32F1xx_HAL_Driver/Inc/stm32f1xx_ll_system.h ****   */
 197:Drivers/STM32F1xx_HAL_Driver/Inc/stm32f1xx_ll_system.h **** __STATIC_INLINE uint32_t LL_DBGMCU_GetDeviceID(void)
 198:Drivers/STM32F1xx_HAL_Driver/Inc/stm32f1xx_ll_system.h **** {
 199:Drivers/STM32F1xx_HAL_Driver/Inc/stm32f1xx_ll_system.h ****   return (uint32_t)(READ_BIT(DBGMCU->IDCODE, DBGMCU_IDCODE_DEV_ID));
 200:Drivers/STM32F1xx_HAL_Driver/Inc/stm32f1xx_ll_system.h **** }
 201:Drivers/STM32F1xx_HAL_Driver/Inc/stm32f1xx_ll_system.h **** 
 202:Drivers/STM32F1xx_HAL_Driver/Inc/stm32f1xx_ll_system.h **** /**
 203:Drivers/STM32F1xx_HAL_Driver/Inc/stm32f1xx_ll_system.h ****   * @brief  Return the device revision identifier
 204:Drivers/STM32F1xx_HAL_Driver/Inc/stm32f1xx_ll_system.h ****   * @note This field indicates the revision of the device.
 205:Drivers/STM32F1xx_HAL_Driver/Inc/stm32f1xx_ll_system.h ****           For example, it is read as revA -> 0x1000,for Low Density devices
 206:Drivers/STM32F1xx_HAL_Driver/Inc/stm32f1xx_ll_system.h ****           For example, it is read as revA -> 0x0000, revB -> 0x2000, revZ -> 0x2001, rev1,2,3,X or 
 207:Drivers/STM32F1xx_HAL_Driver/Inc/stm32f1xx_ll_system.h ****           For example, it is read as revA or 1 -> 0x1000, revZ -> 0x1001,rev1,2,3,X or Y -> 0x1003,
 208:Drivers/STM32F1xx_HAL_Driver/Inc/stm32f1xx_ll_system.h ****           For example, it is read as revA or 1 -> 0x1003,for XL Density devices
 209:Drivers/STM32F1xx_HAL_Driver/Inc/stm32f1xx_ll_system.h ****           For example, it is read as revA -> 0x1000, revZ -> 0x1001 for  Connectivity line devices
 210:Drivers/STM32F1xx_HAL_Driver/Inc/stm32f1xx_ll_system.h ****   * @rmtoll DBGMCU_IDCODE REV_ID        LL_DBGMCU_GetRevisionID
 211:Drivers/STM32F1xx_HAL_Driver/Inc/stm32f1xx_ll_system.h ****   * @retval Values between Min_Data=0x00 and Max_Data=0xFFFF
 212:Drivers/STM32F1xx_HAL_Driver/Inc/stm32f1xx_ll_system.h ****   */
 213:Drivers/STM32F1xx_HAL_Driver/Inc/stm32f1xx_ll_system.h **** __STATIC_INLINE uint32_t LL_DBGMCU_GetRevisionID(void)
 214:Drivers/STM32F1xx_HAL_Driver/Inc/stm32f1xx_ll_system.h **** {
 215:Drivers/STM32F1xx_HAL_Driver/Inc/stm32f1xx_ll_system.h ****   return (uint32_t)(READ_BIT(DBGMCU->IDCODE, DBGMCU_IDCODE_REV_ID) >> DBGMCU_IDCODE_REV_ID_Pos);
 216:Drivers/STM32F1xx_HAL_Driver/Inc/stm32f1xx_ll_system.h **** }
 217:Drivers/STM32F1xx_HAL_Driver/Inc/stm32f1xx_ll_system.h **** 
 218:Drivers/STM32F1xx_HAL_Driver/Inc/stm32f1xx_ll_system.h **** /**
 219:Drivers/STM32F1xx_HAL_Driver/Inc/stm32f1xx_ll_system.h ****   * @brief  Enable the Debug Module during SLEEP mode
 220:Drivers/STM32F1xx_HAL_Driver/Inc/stm32f1xx_ll_system.h ****   * @rmtoll DBGMCU_CR    DBG_SLEEP     LL_DBGMCU_EnableDBGSleepMode
 221:Drivers/STM32F1xx_HAL_Driver/Inc/stm32f1xx_ll_system.h ****   * @retval None
 222:Drivers/STM32F1xx_HAL_Driver/Inc/stm32f1xx_ll_system.h ****   */
 223:Drivers/STM32F1xx_HAL_Driver/Inc/stm32f1xx_ll_system.h **** __STATIC_INLINE void LL_DBGMCU_EnableDBGSleepMode(void)
 224:Drivers/STM32F1xx_HAL_Driver/Inc/stm32f1xx_ll_system.h **** {
 225:Drivers/STM32F1xx_HAL_Driver/Inc/stm32f1xx_ll_system.h ****   SET_BIT(DBGMCU->CR, DBGMCU_CR_DBG_SLEEP);
 226:Drivers/STM32F1xx_HAL_Driver/Inc/stm32f1xx_ll_system.h **** }
 227:Drivers/STM32F1xx_HAL_Driver/Inc/stm32f1xx_ll_system.h **** 
 228:Drivers/STM32F1xx_HAL_Driver/Inc/stm32f1xx_ll_system.h **** /**
 229:Drivers/STM32F1xx_HAL_Driver/Inc/stm32f1xx_ll_system.h ****   * @brief  Disable the Debug Module during SLEEP mode
 230:Drivers/STM32F1xx_HAL_Driver/Inc/stm32f1xx_ll_system.h ****   * @rmtoll DBGMCU_CR    DBG_SLEEP     LL_DBGMCU_DisableDBGSleepMode
 231:Drivers/STM32F1xx_HAL_Driver/Inc/stm32f1xx_ll_system.h ****   * @retval None
 232:Drivers/STM32F1xx_HAL_Driver/Inc/stm32f1xx_ll_system.h ****   */
 233:Drivers/STM32F1xx_HAL_Driver/Inc/stm32f1xx_ll_system.h **** __STATIC_INLINE void LL_DBGMCU_DisableDBGSleepMode(void)
 234:Drivers/STM32F1xx_HAL_Driver/Inc/stm32f1xx_ll_system.h **** {
 235:Drivers/STM32F1xx_HAL_Driver/Inc/stm32f1xx_ll_system.h ****   CLEAR_BIT(DBGMCU->CR, DBGMCU_CR_DBG_SLEEP);
 236:Drivers/STM32F1xx_HAL_Driver/Inc/stm32f1xx_ll_system.h **** }
 237:Drivers/STM32F1xx_HAL_Driver/Inc/stm32f1xx_ll_system.h **** 
 238:Drivers/STM32F1xx_HAL_Driver/Inc/stm32f1xx_ll_system.h **** /**
 239:Drivers/STM32F1xx_HAL_Driver/Inc/stm32f1xx_ll_system.h ****   * @brief  Enable the Debug Module during STOP mode
 240:Drivers/STM32F1xx_HAL_Driver/Inc/stm32f1xx_ll_system.h ****   * @rmtoll DBGMCU_CR    DBG_STOP      LL_DBGMCU_EnableDBGStopMode
 241:Drivers/STM32F1xx_HAL_Driver/Inc/stm32f1xx_ll_system.h ****   * @retval None
 242:Drivers/STM32F1xx_HAL_Driver/Inc/stm32f1xx_ll_system.h ****   */
 243:Drivers/STM32F1xx_HAL_Driver/Inc/stm32f1xx_ll_system.h **** __STATIC_INLINE void LL_DBGMCU_EnableDBGStopMode(void)
 244:Drivers/STM32F1xx_HAL_Driver/Inc/stm32f1xx_ll_system.h **** {
 245:Drivers/STM32F1xx_HAL_Driver/Inc/stm32f1xx_ll_system.h ****   SET_BIT(DBGMCU->CR, DBGMCU_CR_DBG_STOP);
ARM GAS  /tmp/ccmpGAeh.s 			page 49


 246:Drivers/STM32F1xx_HAL_Driver/Inc/stm32f1xx_ll_system.h **** }
 247:Drivers/STM32F1xx_HAL_Driver/Inc/stm32f1xx_ll_system.h **** 
 248:Drivers/STM32F1xx_HAL_Driver/Inc/stm32f1xx_ll_system.h **** /**
 249:Drivers/STM32F1xx_HAL_Driver/Inc/stm32f1xx_ll_system.h ****   * @brief  Disable the Debug Module during STOP mode
 250:Drivers/STM32F1xx_HAL_Driver/Inc/stm32f1xx_ll_system.h ****   * @rmtoll DBGMCU_CR    DBG_STOP      LL_DBGMCU_DisableDBGStopMode
 251:Drivers/STM32F1xx_HAL_Driver/Inc/stm32f1xx_ll_system.h ****   * @retval None
 252:Drivers/STM32F1xx_HAL_Driver/Inc/stm32f1xx_ll_system.h ****   */
 253:Drivers/STM32F1xx_HAL_Driver/Inc/stm32f1xx_ll_system.h **** __STATIC_INLINE void LL_DBGMCU_DisableDBGStopMode(void)
 254:Drivers/STM32F1xx_HAL_Driver/Inc/stm32f1xx_ll_system.h **** {
 255:Drivers/STM32F1xx_HAL_Driver/Inc/stm32f1xx_ll_system.h ****   CLEAR_BIT(DBGMCU->CR, DBGMCU_CR_DBG_STOP);
 256:Drivers/STM32F1xx_HAL_Driver/Inc/stm32f1xx_ll_system.h **** }
 257:Drivers/STM32F1xx_HAL_Driver/Inc/stm32f1xx_ll_system.h **** 
 258:Drivers/STM32F1xx_HAL_Driver/Inc/stm32f1xx_ll_system.h **** /**
 259:Drivers/STM32F1xx_HAL_Driver/Inc/stm32f1xx_ll_system.h ****   * @brief  Enable the Debug Module during STANDBY mode
 260:Drivers/STM32F1xx_HAL_Driver/Inc/stm32f1xx_ll_system.h ****   * @rmtoll DBGMCU_CR    DBG_STANDBY   LL_DBGMCU_EnableDBGStandbyMode
 261:Drivers/STM32F1xx_HAL_Driver/Inc/stm32f1xx_ll_system.h ****   * @retval None
 262:Drivers/STM32F1xx_HAL_Driver/Inc/stm32f1xx_ll_system.h ****   */
 263:Drivers/STM32F1xx_HAL_Driver/Inc/stm32f1xx_ll_system.h **** __STATIC_INLINE void LL_DBGMCU_EnableDBGStandbyMode(void)
 264:Drivers/STM32F1xx_HAL_Driver/Inc/stm32f1xx_ll_system.h **** {
 265:Drivers/STM32F1xx_HAL_Driver/Inc/stm32f1xx_ll_system.h ****   SET_BIT(DBGMCU->CR, DBGMCU_CR_DBG_STANDBY);
 266:Drivers/STM32F1xx_HAL_Driver/Inc/stm32f1xx_ll_system.h **** }
 267:Drivers/STM32F1xx_HAL_Driver/Inc/stm32f1xx_ll_system.h **** 
 268:Drivers/STM32F1xx_HAL_Driver/Inc/stm32f1xx_ll_system.h **** /**
 269:Drivers/STM32F1xx_HAL_Driver/Inc/stm32f1xx_ll_system.h ****   * @brief  Disable the Debug Module during STANDBY mode
 270:Drivers/STM32F1xx_HAL_Driver/Inc/stm32f1xx_ll_system.h ****   * @rmtoll DBGMCU_CR    DBG_STANDBY   LL_DBGMCU_DisableDBGStandbyMode
 271:Drivers/STM32F1xx_HAL_Driver/Inc/stm32f1xx_ll_system.h ****   * @retval None
 272:Drivers/STM32F1xx_HAL_Driver/Inc/stm32f1xx_ll_system.h ****   */
 273:Drivers/STM32F1xx_HAL_Driver/Inc/stm32f1xx_ll_system.h **** __STATIC_INLINE void LL_DBGMCU_DisableDBGStandbyMode(void)
 274:Drivers/STM32F1xx_HAL_Driver/Inc/stm32f1xx_ll_system.h **** {
 275:Drivers/STM32F1xx_HAL_Driver/Inc/stm32f1xx_ll_system.h ****   CLEAR_BIT(DBGMCU->CR, DBGMCU_CR_DBG_STANDBY);
 276:Drivers/STM32F1xx_HAL_Driver/Inc/stm32f1xx_ll_system.h **** }
 277:Drivers/STM32F1xx_HAL_Driver/Inc/stm32f1xx_ll_system.h **** 
 278:Drivers/STM32F1xx_HAL_Driver/Inc/stm32f1xx_ll_system.h **** /**
 279:Drivers/STM32F1xx_HAL_Driver/Inc/stm32f1xx_ll_system.h ****   * @brief  Set Trace pin assignment control
 280:Drivers/STM32F1xx_HAL_Driver/Inc/stm32f1xx_ll_system.h ****   * @rmtoll DBGMCU_CR    TRACE_IOEN    LL_DBGMCU_SetTracePinAssignment\n
 281:Drivers/STM32F1xx_HAL_Driver/Inc/stm32f1xx_ll_system.h ****   *         DBGMCU_CR    TRACE_MODE    LL_DBGMCU_SetTracePinAssignment
 282:Drivers/STM32F1xx_HAL_Driver/Inc/stm32f1xx_ll_system.h ****   * @param  PinAssignment This parameter can be one of the following values:
 283:Drivers/STM32F1xx_HAL_Driver/Inc/stm32f1xx_ll_system.h ****   *         @arg @ref LL_DBGMCU_TRACE_NONE
 284:Drivers/STM32F1xx_HAL_Driver/Inc/stm32f1xx_ll_system.h ****   *         @arg @ref LL_DBGMCU_TRACE_ASYNCH
 285:Drivers/STM32F1xx_HAL_Driver/Inc/stm32f1xx_ll_system.h ****   *         @arg @ref LL_DBGMCU_TRACE_SYNCH_SIZE1
 286:Drivers/STM32F1xx_HAL_Driver/Inc/stm32f1xx_ll_system.h ****   *         @arg @ref LL_DBGMCU_TRACE_SYNCH_SIZE2
 287:Drivers/STM32F1xx_HAL_Driver/Inc/stm32f1xx_ll_system.h ****   *         @arg @ref LL_DBGMCU_TRACE_SYNCH_SIZE4
 288:Drivers/STM32F1xx_HAL_Driver/Inc/stm32f1xx_ll_system.h ****   * @retval None
 289:Drivers/STM32F1xx_HAL_Driver/Inc/stm32f1xx_ll_system.h ****   */
 290:Drivers/STM32F1xx_HAL_Driver/Inc/stm32f1xx_ll_system.h **** __STATIC_INLINE void LL_DBGMCU_SetTracePinAssignment(uint32_t PinAssignment)
 291:Drivers/STM32F1xx_HAL_Driver/Inc/stm32f1xx_ll_system.h **** {
 292:Drivers/STM32F1xx_HAL_Driver/Inc/stm32f1xx_ll_system.h ****   MODIFY_REG(DBGMCU->CR, DBGMCU_CR_TRACE_IOEN | DBGMCU_CR_TRACE_MODE, PinAssignment);
 293:Drivers/STM32F1xx_HAL_Driver/Inc/stm32f1xx_ll_system.h **** }
 294:Drivers/STM32F1xx_HAL_Driver/Inc/stm32f1xx_ll_system.h **** 
 295:Drivers/STM32F1xx_HAL_Driver/Inc/stm32f1xx_ll_system.h **** /**
 296:Drivers/STM32F1xx_HAL_Driver/Inc/stm32f1xx_ll_system.h ****   * @brief  Get Trace pin assignment control
 297:Drivers/STM32F1xx_HAL_Driver/Inc/stm32f1xx_ll_system.h ****   * @rmtoll DBGMCU_CR    TRACE_IOEN    LL_DBGMCU_GetTracePinAssignment\n
 298:Drivers/STM32F1xx_HAL_Driver/Inc/stm32f1xx_ll_system.h ****   *         DBGMCU_CR    TRACE_MODE    LL_DBGMCU_GetTracePinAssignment
 299:Drivers/STM32F1xx_HAL_Driver/Inc/stm32f1xx_ll_system.h ****   * @retval Returned value can be one of the following values:
 300:Drivers/STM32F1xx_HAL_Driver/Inc/stm32f1xx_ll_system.h ****   *         @arg @ref LL_DBGMCU_TRACE_NONE
 301:Drivers/STM32F1xx_HAL_Driver/Inc/stm32f1xx_ll_system.h ****   *         @arg @ref LL_DBGMCU_TRACE_ASYNCH
 302:Drivers/STM32F1xx_HAL_Driver/Inc/stm32f1xx_ll_system.h ****   *         @arg @ref LL_DBGMCU_TRACE_SYNCH_SIZE1
ARM GAS  /tmp/ccmpGAeh.s 			page 50


 303:Drivers/STM32F1xx_HAL_Driver/Inc/stm32f1xx_ll_system.h ****   *         @arg @ref LL_DBGMCU_TRACE_SYNCH_SIZE2
 304:Drivers/STM32F1xx_HAL_Driver/Inc/stm32f1xx_ll_system.h ****   *         @arg @ref LL_DBGMCU_TRACE_SYNCH_SIZE4
 305:Drivers/STM32F1xx_HAL_Driver/Inc/stm32f1xx_ll_system.h ****   */
 306:Drivers/STM32F1xx_HAL_Driver/Inc/stm32f1xx_ll_system.h **** __STATIC_INLINE uint32_t LL_DBGMCU_GetTracePinAssignment(void)
 307:Drivers/STM32F1xx_HAL_Driver/Inc/stm32f1xx_ll_system.h **** {
 308:Drivers/STM32F1xx_HAL_Driver/Inc/stm32f1xx_ll_system.h ****   return (uint32_t)(READ_BIT(DBGMCU->CR, DBGMCU_CR_TRACE_IOEN | DBGMCU_CR_TRACE_MODE));
 309:Drivers/STM32F1xx_HAL_Driver/Inc/stm32f1xx_ll_system.h **** }
 310:Drivers/STM32F1xx_HAL_Driver/Inc/stm32f1xx_ll_system.h **** 
 311:Drivers/STM32F1xx_HAL_Driver/Inc/stm32f1xx_ll_system.h **** /**
 312:Drivers/STM32F1xx_HAL_Driver/Inc/stm32f1xx_ll_system.h ****   * @brief  Freeze APB1 peripherals (group1 peripherals)
 313:Drivers/STM32F1xx_HAL_Driver/Inc/stm32f1xx_ll_system.h ****   * @rmtoll DBGMCU_CR_APB1      DBG_TIM2_STOP           LL_DBGMCU_APB1_GRP1_FreezePeriph\n
 314:Drivers/STM32F1xx_HAL_Driver/Inc/stm32f1xx_ll_system.h ****   *         DBGMCU_CR_APB1      DBG_TIM3_STOP           LL_DBGMCU_APB1_GRP1_FreezePeriph\n
 315:Drivers/STM32F1xx_HAL_Driver/Inc/stm32f1xx_ll_system.h ****   *         DBGMCU_CR_APB1      DBG_TIM4_STOP           LL_DBGMCU_APB1_GRP1_FreezePeriph\n
 316:Drivers/STM32F1xx_HAL_Driver/Inc/stm32f1xx_ll_system.h ****   *         DBGMCU_CR_APB1      DBG_TIM5_STOP           LL_DBGMCU_APB1_GRP1_FreezePeriph\n
 317:Drivers/STM32F1xx_HAL_Driver/Inc/stm32f1xx_ll_system.h ****   *         DBGMCU_CR_APB1      DBG_TIM6_STOP           LL_DBGMCU_APB1_GRP1_FreezePeriph\n
 318:Drivers/STM32F1xx_HAL_Driver/Inc/stm32f1xx_ll_system.h ****   *         DBGMCU_CR_APB1      DBG_TIM7_STOP           LL_DBGMCU_APB1_GRP1_FreezePeriph\n
 319:Drivers/STM32F1xx_HAL_Driver/Inc/stm32f1xx_ll_system.h ****   *         DBGMCU_CR_APB1      DBG_TIM12_STOP          LL_DBGMCU_APB1_GRP1_FreezePeriph\n
 320:Drivers/STM32F1xx_HAL_Driver/Inc/stm32f1xx_ll_system.h ****   *         DBGMCU_CR_APB1      DBG_TIM13_STOP          LL_DBGMCU_APB1_GRP1_FreezePeriph\n
 321:Drivers/STM32F1xx_HAL_Driver/Inc/stm32f1xx_ll_system.h ****   *         DBGMCU_CR_APB1      DBG_TIM14_STOP          LL_DBGMCU_APB1_GRP1_FreezePeriph\n
 322:Drivers/STM32F1xx_HAL_Driver/Inc/stm32f1xx_ll_system.h ****   *         DBGMCU_CR_APB1      DBG_RTC_STOP            LL_DBGMCU_APB1_GRP1_FreezePeriph\n
 323:Drivers/STM32F1xx_HAL_Driver/Inc/stm32f1xx_ll_system.h ****   *         DBGMCU_CR_APB1      DBG_WWDG_STOP           LL_DBGMCU_APB1_GRP1_FreezePeriph\n
 324:Drivers/STM32F1xx_HAL_Driver/Inc/stm32f1xx_ll_system.h ****   *         DBGMCU_CR_APB1      DBG_IWDG_STOP           LL_DBGMCU_APB1_GRP1_FreezePeriph\n
 325:Drivers/STM32F1xx_HAL_Driver/Inc/stm32f1xx_ll_system.h ****   *         DBGMCU_CR_APB1      DBG_I2C1_SMBUS_TIMEOUT  LL_DBGMCU_APB1_GRP1_FreezePeriph\n
 326:Drivers/STM32F1xx_HAL_Driver/Inc/stm32f1xx_ll_system.h ****   *         DBGMCU_CR_APB1      DBG_I2C2_SMBUS_TIMEOUT  LL_DBGMCU_APB1_GRP1_FreezePeriph\n
 327:Drivers/STM32F1xx_HAL_Driver/Inc/stm32f1xx_ll_system.h ****   *         DBGMCU_CR_APB1      DBG_CAN1_STOP           LL_DBGMCU_APB1_GRP1_FreezePeriph\n
 328:Drivers/STM32F1xx_HAL_Driver/Inc/stm32f1xx_ll_system.h ****   *         DBGMCU_CR_APB1      DBG_CAN2_STOP           LL_DBGMCU_APB1_GRP1_FreezePeriph
 329:Drivers/STM32F1xx_HAL_Driver/Inc/stm32f1xx_ll_system.h ****   * @param  Periphs This parameter can be a combination of the following values:
 330:Drivers/STM32F1xx_HAL_Driver/Inc/stm32f1xx_ll_system.h ****   *         @arg @ref LL_DBGMCU_APB1_GRP1_TIM2_STOP
 331:Drivers/STM32F1xx_HAL_Driver/Inc/stm32f1xx_ll_system.h ****   *         @arg @ref LL_DBGMCU_APB1_GRP1_TIM3_STOP
 332:Drivers/STM32F1xx_HAL_Driver/Inc/stm32f1xx_ll_system.h ****   *         @arg @ref LL_DBGMCU_APB1_GRP1_TIM4_STOP
 333:Drivers/STM32F1xx_HAL_Driver/Inc/stm32f1xx_ll_system.h ****   *         @arg @ref LL_DBGMCU_APB1_GRP1_TIM5_STOP
 334:Drivers/STM32F1xx_HAL_Driver/Inc/stm32f1xx_ll_system.h ****   *         @arg @ref LL_DBGMCU_APB1_GRP1_TIM6_STOP
 335:Drivers/STM32F1xx_HAL_Driver/Inc/stm32f1xx_ll_system.h ****   *         @arg @ref LL_DBGMCU_APB1_GRP1_TIM7_STOP
 336:Drivers/STM32F1xx_HAL_Driver/Inc/stm32f1xx_ll_system.h ****   *         @arg @ref LL_DBGMCU_APB1_GRP1_TIM12_STOP
 337:Drivers/STM32F1xx_HAL_Driver/Inc/stm32f1xx_ll_system.h ****   *         @arg @ref LL_DBGMCU_APB1_GRP1_TIM13_STOP
 338:Drivers/STM32F1xx_HAL_Driver/Inc/stm32f1xx_ll_system.h ****   *         @arg @ref LL_DBGMCU_APB1_GRP1_TIM14_STOP
 339:Drivers/STM32F1xx_HAL_Driver/Inc/stm32f1xx_ll_system.h ****   *         @arg @ref LL_DBGMCU_APB1_GRP1_WWDG_STOP
 340:Drivers/STM32F1xx_HAL_Driver/Inc/stm32f1xx_ll_system.h ****   *         @arg @ref LL_DBGMCU_APB1_GRP1_IWDG_STOP
 341:Drivers/STM32F1xx_HAL_Driver/Inc/stm32f1xx_ll_system.h ****   *         @arg @ref LL_DBGMCU_APB1_GRP1_I2C1_STOP
 342:Drivers/STM32F1xx_HAL_Driver/Inc/stm32f1xx_ll_system.h ****   *         @arg @ref LL_DBGMCU_APB1_GRP1_I2C2_STOP (*)
 343:Drivers/STM32F1xx_HAL_Driver/Inc/stm32f1xx_ll_system.h ****   *         @arg @ref LL_DBGMCU_APB1_GRP1_CAN1_STOP (*)
 344:Drivers/STM32F1xx_HAL_Driver/Inc/stm32f1xx_ll_system.h ****   *         @arg @ref LL_DBGMCU_APB1_GRP1_CAN2_STOP (*)
 345:Drivers/STM32F1xx_HAL_Driver/Inc/stm32f1xx_ll_system.h ****   *
 346:Drivers/STM32F1xx_HAL_Driver/Inc/stm32f1xx_ll_system.h ****   *         (*) value not defined in all devices.
 347:Drivers/STM32F1xx_HAL_Driver/Inc/stm32f1xx_ll_system.h ****   * @retval None
 348:Drivers/STM32F1xx_HAL_Driver/Inc/stm32f1xx_ll_system.h ****   */
 349:Drivers/STM32F1xx_HAL_Driver/Inc/stm32f1xx_ll_system.h **** __STATIC_INLINE void LL_DBGMCU_APB1_GRP1_FreezePeriph(uint32_t Periphs)
 350:Drivers/STM32F1xx_HAL_Driver/Inc/stm32f1xx_ll_system.h **** {
 351:Drivers/STM32F1xx_HAL_Driver/Inc/stm32f1xx_ll_system.h ****   SET_BIT(DBGMCU->CR, Periphs);
 352:Drivers/STM32F1xx_HAL_Driver/Inc/stm32f1xx_ll_system.h **** }
 353:Drivers/STM32F1xx_HAL_Driver/Inc/stm32f1xx_ll_system.h **** 
 354:Drivers/STM32F1xx_HAL_Driver/Inc/stm32f1xx_ll_system.h **** /**
 355:Drivers/STM32F1xx_HAL_Driver/Inc/stm32f1xx_ll_system.h ****   * @brief  Unfreeze APB1 peripherals (group1 peripherals)
 356:Drivers/STM32F1xx_HAL_Driver/Inc/stm32f1xx_ll_system.h ****   * @rmtoll DBGMCU_CR_APB1      DBG_TIM2_STOP           LL_DBGMCU_APB1_GRP1_UnFreezePeriph\n
 357:Drivers/STM32F1xx_HAL_Driver/Inc/stm32f1xx_ll_system.h ****   *         DBGMCU_CR_APB1      DBG_TIM3_STOP           LL_DBGMCU_APB1_GRP1_UnFreezePeriph\n
 358:Drivers/STM32F1xx_HAL_Driver/Inc/stm32f1xx_ll_system.h ****   *         DBGMCU_CR_APB1      DBG_TIM4_STOP           LL_DBGMCU_APB1_GRP1_UnFreezePeriph\n
 359:Drivers/STM32F1xx_HAL_Driver/Inc/stm32f1xx_ll_system.h ****   *         DBGMCU_CR_APB1      DBG_TIM5_STOP           LL_DBGMCU_APB1_GRP1_UnFreezePeriph\n
ARM GAS  /tmp/ccmpGAeh.s 			page 51


 360:Drivers/STM32F1xx_HAL_Driver/Inc/stm32f1xx_ll_system.h ****   *         DBGMCU_CR_APB1      DBG_TIM6_STOP           LL_DBGMCU_APB1_GRP1_UnFreezePeriph\n
 361:Drivers/STM32F1xx_HAL_Driver/Inc/stm32f1xx_ll_system.h ****   *         DBGMCU_CR_APB1      DBG_TIM7_STOP           LL_DBGMCU_APB1_GRP1_UnFreezePeriph\n
 362:Drivers/STM32F1xx_HAL_Driver/Inc/stm32f1xx_ll_system.h ****   *         DBGMCU_CR_APB1      DBG_TIM12_STOP          LL_DBGMCU_APB1_GRP1_UnFreezePeriph\n
 363:Drivers/STM32F1xx_HAL_Driver/Inc/stm32f1xx_ll_system.h ****   *         DBGMCU_CR_APB1      DBG_TIM13_STOP          LL_DBGMCU_APB1_GRP1_UnFreezePeriph\n
 364:Drivers/STM32F1xx_HAL_Driver/Inc/stm32f1xx_ll_system.h ****   *         DBGMCU_CR_APB1      DBG_TIM14_STOP          LL_DBGMCU_APB1_GRP1_UnFreezePeriph\n
 365:Drivers/STM32F1xx_HAL_Driver/Inc/stm32f1xx_ll_system.h ****   *         DBGMCU_CR_APB1      DBG_RTC_STOP            LL_DBGMCU_APB1_GRP1_UnFreezePeriph\n
 366:Drivers/STM32F1xx_HAL_Driver/Inc/stm32f1xx_ll_system.h ****   *         DBGMCU_CR_APB1      DBG_WWDG_STOP           LL_DBGMCU_APB1_GRP1_UnFreezePeriph\n
 367:Drivers/STM32F1xx_HAL_Driver/Inc/stm32f1xx_ll_system.h ****   *         DBGMCU_CR_APB1      DBG_IWDG_STOP           LL_DBGMCU_APB1_GRP1_UnFreezePeriph\n
 368:Drivers/STM32F1xx_HAL_Driver/Inc/stm32f1xx_ll_system.h ****   *         DBGMCU_CR_APB1      DBG_I2C1_SMBUS_TIMEOUT  LL_DBGMCU_APB1_GRP1_UnFreezePeriph\n
 369:Drivers/STM32F1xx_HAL_Driver/Inc/stm32f1xx_ll_system.h ****   *         DBGMCU_CR_APB1      DBG_I2C2_SMBUS_TIMEOUT  LL_DBGMCU_APB1_GRP1_UnFreezePeriph\n
 370:Drivers/STM32F1xx_HAL_Driver/Inc/stm32f1xx_ll_system.h ****   *         DBGMCU_CR_APB1      DBG_CAN1_STOP           LL_DBGMCU_APB1_GRP1_UnFreezePeriph\n
 371:Drivers/STM32F1xx_HAL_Driver/Inc/stm32f1xx_ll_system.h ****   *         DBGMCU_CR_APB1      DBG_CAN2_STOP           LL_DBGMCU_APB1_GRP1_UnFreezePeriph
 372:Drivers/STM32F1xx_HAL_Driver/Inc/stm32f1xx_ll_system.h ****   * @param  Periphs This parameter can be a combination of the following values:
 373:Drivers/STM32F1xx_HAL_Driver/Inc/stm32f1xx_ll_system.h ****   *         @arg @ref LL_DBGMCU_APB1_GRP1_TIM2_STOP
 374:Drivers/STM32F1xx_HAL_Driver/Inc/stm32f1xx_ll_system.h ****   *         @arg @ref LL_DBGMCU_APB1_GRP1_TIM3_STOP
 375:Drivers/STM32F1xx_HAL_Driver/Inc/stm32f1xx_ll_system.h ****   *         @arg @ref LL_DBGMCU_APB1_GRP1_TIM4_STOP
 376:Drivers/STM32F1xx_HAL_Driver/Inc/stm32f1xx_ll_system.h ****   *         @arg @ref LL_DBGMCU_APB1_GRP1_TIM5_STOP
 377:Drivers/STM32F1xx_HAL_Driver/Inc/stm32f1xx_ll_system.h ****   *         @arg @ref LL_DBGMCU_APB1_GRP1_TIM6_STOP
 378:Drivers/STM32F1xx_HAL_Driver/Inc/stm32f1xx_ll_system.h ****   *         @arg @ref LL_DBGMCU_APB1_GRP1_TIM7_STOP
 379:Drivers/STM32F1xx_HAL_Driver/Inc/stm32f1xx_ll_system.h ****   *         @arg @ref LL_DBGMCU_APB1_GRP1_TIM12_STOP
 380:Drivers/STM32F1xx_HAL_Driver/Inc/stm32f1xx_ll_system.h ****   *         @arg @ref LL_DBGMCU_APB1_GRP1_TIM13_STOP
 381:Drivers/STM32F1xx_HAL_Driver/Inc/stm32f1xx_ll_system.h ****   *         @arg @ref LL_DBGMCU_APB1_GRP1_TIM14_STOP
 382:Drivers/STM32F1xx_HAL_Driver/Inc/stm32f1xx_ll_system.h ****   *         @arg @ref LL_DBGMCU_APB1_GRP1_RTC_STOP
 383:Drivers/STM32F1xx_HAL_Driver/Inc/stm32f1xx_ll_system.h ****   *         @arg @ref LL_DBGMCU_APB1_GRP1_WWDG_STOP
 384:Drivers/STM32F1xx_HAL_Driver/Inc/stm32f1xx_ll_system.h ****   *         @arg @ref LL_DBGMCU_APB1_GRP1_IWDG_STOP
 385:Drivers/STM32F1xx_HAL_Driver/Inc/stm32f1xx_ll_system.h ****   *         @arg @ref LL_DBGMCU_APB1_GRP1_I2C1_STOP
 386:Drivers/STM32F1xx_HAL_Driver/Inc/stm32f1xx_ll_system.h ****   *         @arg @ref LL_DBGMCU_APB1_GRP1_I2C2_STOP (*)
 387:Drivers/STM32F1xx_HAL_Driver/Inc/stm32f1xx_ll_system.h ****   *         @arg @ref LL_DBGMCU_APB1_GRP1_CAN1_STOP (*)
 388:Drivers/STM32F1xx_HAL_Driver/Inc/stm32f1xx_ll_system.h ****   *         @arg @ref LL_DBGMCU_APB1_GRP1_CAN2_STOP (*)
 389:Drivers/STM32F1xx_HAL_Driver/Inc/stm32f1xx_ll_system.h ****   *
 390:Drivers/STM32F1xx_HAL_Driver/Inc/stm32f1xx_ll_system.h ****   *         (*) value not defined in all devices.
 391:Drivers/STM32F1xx_HAL_Driver/Inc/stm32f1xx_ll_system.h ****   * @retval None
 392:Drivers/STM32F1xx_HAL_Driver/Inc/stm32f1xx_ll_system.h ****   */
 393:Drivers/STM32F1xx_HAL_Driver/Inc/stm32f1xx_ll_system.h **** __STATIC_INLINE void LL_DBGMCU_APB1_GRP1_UnFreezePeriph(uint32_t Periphs)
 394:Drivers/STM32F1xx_HAL_Driver/Inc/stm32f1xx_ll_system.h **** {
 395:Drivers/STM32F1xx_HAL_Driver/Inc/stm32f1xx_ll_system.h ****   CLEAR_BIT(DBGMCU->CR, Periphs);
 396:Drivers/STM32F1xx_HAL_Driver/Inc/stm32f1xx_ll_system.h **** }
 397:Drivers/STM32F1xx_HAL_Driver/Inc/stm32f1xx_ll_system.h **** 
 398:Drivers/STM32F1xx_HAL_Driver/Inc/stm32f1xx_ll_system.h **** /**
 399:Drivers/STM32F1xx_HAL_Driver/Inc/stm32f1xx_ll_system.h ****   * @brief  Freeze APB2 peripherals
 400:Drivers/STM32F1xx_HAL_Driver/Inc/stm32f1xx_ll_system.h ****   * @rmtoll DBGMCU_CR_APB2      DBG_TIM1_STOP    LL_DBGMCU_APB2_GRP1_FreezePeriph\n
 401:Drivers/STM32F1xx_HAL_Driver/Inc/stm32f1xx_ll_system.h ****   *         DBGMCU_CR_APB2      DBG_TIM8_STOP    LL_DBGMCU_APB2_GRP1_FreezePeriph\n
 402:Drivers/STM32F1xx_HAL_Driver/Inc/stm32f1xx_ll_system.h ****   *         DBGMCU_CR_APB2      DBG_TIM9_STOP    LL_DBGMCU_APB2_GRP1_FreezePeriph\n
 403:Drivers/STM32F1xx_HAL_Driver/Inc/stm32f1xx_ll_system.h ****   *         DBGMCU_CR_APB2      DBG_TIM10_STOP   LL_DBGMCU_APB2_GRP1_FreezePeriph\n
 404:Drivers/STM32F1xx_HAL_Driver/Inc/stm32f1xx_ll_system.h ****   *         DBGMCU_CR_APB2      DBG_TIM11_STOP   LL_DBGMCU_APB2_GRP1_FreezePeriph\n
 405:Drivers/STM32F1xx_HAL_Driver/Inc/stm32f1xx_ll_system.h ****   *         DBGMCU_CR_APB2      DBG_TIM15_STOP   LL_DBGMCU_APB2_GRP1_FreezePeriph\n
 406:Drivers/STM32F1xx_HAL_Driver/Inc/stm32f1xx_ll_system.h ****   *         DBGMCU_CR_APB2      DBG_TIM16_STOP   LL_DBGMCU_APB2_GRP1_FreezePeriph\n
 407:Drivers/STM32F1xx_HAL_Driver/Inc/stm32f1xx_ll_system.h ****   *         DBGMCU_CR_APB2      DBG_TIM17_STOP   LL_DBGMCU_APB2_GRP1_FreezePeriph
 408:Drivers/STM32F1xx_HAL_Driver/Inc/stm32f1xx_ll_system.h ****   * @param  Periphs This parameter can be a combination of the following values:
 409:Drivers/STM32F1xx_HAL_Driver/Inc/stm32f1xx_ll_system.h ****   *         @arg @ref LL_DBGMCU_APB2_GRP1_TIM1_STOP
 410:Drivers/STM32F1xx_HAL_Driver/Inc/stm32f1xx_ll_system.h ****   *         @arg @ref LL_DBGMCU_APB2_GRP1_TIM8_STOP (*)
 411:Drivers/STM32F1xx_HAL_Driver/Inc/stm32f1xx_ll_system.h ****   *         @arg @ref LL_DBGMCU_APB2_GRP1_TIM9_STOP (*)
 412:Drivers/STM32F1xx_HAL_Driver/Inc/stm32f1xx_ll_system.h ****   *         @arg @ref LL_DBGMCU_APB2_GRP1_TIM10_STOP (*)
 413:Drivers/STM32F1xx_HAL_Driver/Inc/stm32f1xx_ll_system.h ****   *         @arg @ref LL_DBGMCU_APB2_GRP1_TIM11_STOP (*)
 414:Drivers/STM32F1xx_HAL_Driver/Inc/stm32f1xx_ll_system.h ****   *         @arg @ref LL_DBGMCU_APB2_GRP1_TIM15_STOP (*)
 415:Drivers/STM32F1xx_HAL_Driver/Inc/stm32f1xx_ll_system.h ****   *         @arg @ref LL_DBGMCU_APB2_GRP1_TIM16_STOP (*)
 416:Drivers/STM32F1xx_HAL_Driver/Inc/stm32f1xx_ll_system.h ****   *         @arg @ref LL_DBGMCU_APB2_GRP1_TIM17_STOP (*)
ARM GAS  /tmp/ccmpGAeh.s 			page 52


 417:Drivers/STM32F1xx_HAL_Driver/Inc/stm32f1xx_ll_system.h ****   *
 418:Drivers/STM32F1xx_HAL_Driver/Inc/stm32f1xx_ll_system.h ****   *         (*) value not defined in all devices.
 419:Drivers/STM32F1xx_HAL_Driver/Inc/stm32f1xx_ll_system.h ****   * @retval None
 420:Drivers/STM32F1xx_HAL_Driver/Inc/stm32f1xx_ll_system.h ****   */
 421:Drivers/STM32F1xx_HAL_Driver/Inc/stm32f1xx_ll_system.h **** __STATIC_INLINE void LL_DBGMCU_APB2_GRP1_FreezePeriph(uint32_t Periphs)
 422:Drivers/STM32F1xx_HAL_Driver/Inc/stm32f1xx_ll_system.h **** {
 423:Drivers/STM32F1xx_HAL_Driver/Inc/stm32f1xx_ll_system.h ****   SET_BIT(DBGMCU->CR, Periphs);
 424:Drivers/STM32F1xx_HAL_Driver/Inc/stm32f1xx_ll_system.h **** }
 425:Drivers/STM32F1xx_HAL_Driver/Inc/stm32f1xx_ll_system.h **** 
 426:Drivers/STM32F1xx_HAL_Driver/Inc/stm32f1xx_ll_system.h **** /**
 427:Drivers/STM32F1xx_HAL_Driver/Inc/stm32f1xx_ll_system.h ****   * @brief  Unfreeze APB2 peripherals
 428:Drivers/STM32F1xx_HAL_Driver/Inc/stm32f1xx_ll_system.h ****   * @rmtoll DBGMCU_CR_APB2      DBG_TIM1_STOP    LL_DBGMCU_APB2_GRP1_FreezePeriph\n
 429:Drivers/STM32F1xx_HAL_Driver/Inc/stm32f1xx_ll_system.h ****   *         DBGMCU_CR_APB2      DBG_TIM8_STOP    LL_DBGMCU_APB2_GRP1_FreezePeriph\n
 430:Drivers/STM32F1xx_HAL_Driver/Inc/stm32f1xx_ll_system.h ****   *         DBGMCU_CR_APB2      DBG_TIM9_STOP    LL_DBGMCU_APB2_GRP1_FreezePeriph\n
 431:Drivers/STM32F1xx_HAL_Driver/Inc/stm32f1xx_ll_system.h ****   *         DBGMCU_CR_APB2      DBG_TIM10_STOP   LL_DBGMCU_APB2_GRP1_FreezePeriph\n
 432:Drivers/STM32F1xx_HAL_Driver/Inc/stm32f1xx_ll_system.h ****   *         DBGMCU_CR_APB2      DBG_TIM11_STOP   LL_DBGMCU_APB2_GRP1_FreezePeriph\n
 433:Drivers/STM32F1xx_HAL_Driver/Inc/stm32f1xx_ll_system.h ****   *         DBGMCU_CR_APB2      DBG_TIM15_STOP   LL_DBGMCU_APB2_GRP1_FreezePeriph\n
 434:Drivers/STM32F1xx_HAL_Driver/Inc/stm32f1xx_ll_system.h ****   *         DBGMCU_CR_APB2      DBG_TIM16_STOP   LL_DBGMCU_APB2_GRP1_FreezePeriph\n
 435:Drivers/STM32F1xx_HAL_Driver/Inc/stm32f1xx_ll_system.h ****   *         DBGMCU_CR_APB2      DBG_TIM17_STOP   LL_DBGMCU_APB2_GRP1_FreezePeriph
 436:Drivers/STM32F1xx_HAL_Driver/Inc/stm32f1xx_ll_system.h ****   * @param  Periphs This parameter can be a combination of the following values:
 437:Drivers/STM32F1xx_HAL_Driver/Inc/stm32f1xx_ll_system.h ****   *         @arg @ref LL_DBGMCU_APB2_GRP1_TIM1_STOP
 438:Drivers/STM32F1xx_HAL_Driver/Inc/stm32f1xx_ll_system.h ****   *         @arg @ref LL_DBGMCU_APB2_GRP1_TIM8_STOP (*)
 439:Drivers/STM32F1xx_HAL_Driver/Inc/stm32f1xx_ll_system.h ****   *         @arg @ref LL_DBGMCU_APB2_GRP1_TIM9_STOP (*)
 440:Drivers/STM32F1xx_HAL_Driver/Inc/stm32f1xx_ll_system.h ****   *         @arg @ref LL_DBGMCU_APB2_GRP1_TIM10_STOP (*)
 441:Drivers/STM32F1xx_HAL_Driver/Inc/stm32f1xx_ll_system.h ****   *         @arg @ref LL_DBGMCU_APB2_GRP1_TIM11_STOP (*)
 442:Drivers/STM32F1xx_HAL_Driver/Inc/stm32f1xx_ll_system.h ****   *         @arg @ref LL_DBGMCU_APB2_GRP1_TIM15_STOP (*)
 443:Drivers/STM32F1xx_HAL_Driver/Inc/stm32f1xx_ll_system.h ****   *         @arg @ref LL_DBGMCU_APB2_GRP1_TIM16_STOP (*)
 444:Drivers/STM32F1xx_HAL_Driver/Inc/stm32f1xx_ll_system.h ****   *         @arg @ref LL_DBGMCU_APB2_GRP1_TIM17_STOP (*)
 445:Drivers/STM32F1xx_HAL_Driver/Inc/stm32f1xx_ll_system.h ****   *
 446:Drivers/STM32F1xx_HAL_Driver/Inc/stm32f1xx_ll_system.h ****   *         (*) value not defined in all devices.
 447:Drivers/STM32F1xx_HAL_Driver/Inc/stm32f1xx_ll_system.h ****   * @retval None
 448:Drivers/STM32F1xx_HAL_Driver/Inc/stm32f1xx_ll_system.h ****   */
 449:Drivers/STM32F1xx_HAL_Driver/Inc/stm32f1xx_ll_system.h **** __STATIC_INLINE void LL_DBGMCU_APB2_GRP1_UnFreezePeriph(uint32_t Periphs)
