ARM GAS  /tmp/cc17XZfc.s 			page 1


   1              		.cpu cortex-m3
   2              		.arch armv7-m
   3              		.fpu softvfp
   4              		.eabi_attribute 20, 1
   5              		.eabi_attribute 21, 1
   6              		.eabi_attribute 23, 3
   7              		.eabi_attribute 24, 1
   8              		.eabi_attribute 25, 1
   9              		.eabi_attribute 26, 1
  10              		.eabi_attribute 30, 6
  11              		.eabi_attribute 34, 1
  12              		.eabi_attribute 18, 4
  13              		.file	"stm32f1xx_hal_uart.c"
  14              		.text
  15              	.Ltext0:
  16              		.cfi_sections	.debug_frame
  17              		.section	.text.HAL_UART_Init,"ax",%progbits
  18              		.align	1
  19              		.global	HAL_UART_Init
  20              		.syntax unified
  21              		.thumb
  22              		.thumb_func
  24              	HAL_UART_Init:
  25              	.LFB65:
  26              		.file 1 "Drivers/STM32F1xx_HAL_Driver/Src/stm32f1xx_hal_uart.c"
   1:Drivers/STM32F1xx_HAL_Driver/Src/stm32f1xx_hal_uart.c **** /**
   2:Drivers/STM32F1xx_HAL_Driver/Src/stm32f1xx_hal_uart.c ****   ******************************************************************************
   3:Drivers/STM32F1xx_HAL_Driver/Src/stm32f1xx_hal_uart.c ****   * @file    stm32f1xx_hal_uart.c
   4:Drivers/STM32F1xx_HAL_Driver/Src/stm32f1xx_hal_uart.c ****   * @author  MCD Application Team
   5:Drivers/STM32F1xx_HAL_Driver/Src/stm32f1xx_hal_uart.c ****   * @brief   UART HAL module driver.
   6:Drivers/STM32F1xx_HAL_Driver/Src/stm32f1xx_hal_uart.c ****   *          This file provides firmware functions to manage the following
   7:Drivers/STM32F1xx_HAL_Driver/Src/stm32f1xx_hal_uart.c ****   *          functionalities of the Universal Asynchronous Receiver Transmitter Peripheral (UART).
   8:Drivers/STM32F1xx_HAL_Driver/Src/stm32f1xx_hal_uart.c ****   *           + Initialization and de-initialization functions
   9:Drivers/STM32F1xx_HAL_Driver/Src/stm32f1xx_hal_uart.c ****   *           + IO operation functions
  10:Drivers/STM32F1xx_HAL_Driver/Src/stm32f1xx_hal_uart.c ****   *           + Peripheral Control functions
  11:Drivers/STM32F1xx_HAL_Driver/Src/stm32f1xx_hal_uart.c ****   *           + Peripheral State and Errors functions
  12:Drivers/STM32F1xx_HAL_Driver/Src/stm32f1xx_hal_uart.c ****   *
  13:Drivers/STM32F1xx_HAL_Driver/Src/stm32f1xx_hal_uart.c ****   ******************************************************************************
  14:Drivers/STM32F1xx_HAL_Driver/Src/stm32f1xx_hal_uart.c ****   * @attention
  15:Drivers/STM32F1xx_HAL_Driver/Src/stm32f1xx_hal_uart.c ****   *
  16:Drivers/STM32F1xx_HAL_Driver/Src/stm32f1xx_hal_uart.c ****   * Copyright (c) 2016 STMicroelectronics.
  17:Drivers/STM32F1xx_HAL_Driver/Src/stm32f1xx_hal_uart.c ****   * All rights reserved.
  18:Drivers/STM32F1xx_HAL_Driver/Src/stm32f1xx_hal_uart.c ****   *
  19:Drivers/STM32F1xx_HAL_Driver/Src/stm32f1xx_hal_uart.c ****   * This software is licensed under terms that can be found in the LICENSE file
  20:Drivers/STM32F1xx_HAL_Driver/Src/stm32f1xx_hal_uart.c ****   * in the root directory of this software component.
  21:Drivers/STM32F1xx_HAL_Driver/Src/stm32f1xx_hal_uart.c ****   * If no LICENSE file comes with this software, it is provided AS-IS.
  22:Drivers/STM32F1xx_HAL_Driver/Src/stm32f1xx_hal_uart.c ****   *
  23:Drivers/STM32F1xx_HAL_Driver/Src/stm32f1xx_hal_uart.c ****   ******************************************************************************
  24:Drivers/STM32F1xx_HAL_Driver/Src/stm32f1xx_hal_uart.c ****   @verbatim
  25:Drivers/STM32F1xx_HAL_Driver/Src/stm32f1xx_hal_uart.c ****   ==============================================================================
  26:Drivers/STM32F1xx_HAL_Driver/Src/stm32f1xx_hal_uart.c ****                         ##### How to use this driver #####
  27:Drivers/STM32F1xx_HAL_Driver/Src/stm32f1xx_hal_uart.c ****   ==============================================================================
  28:Drivers/STM32F1xx_HAL_Driver/Src/stm32f1xx_hal_uart.c ****   [..]
  29:Drivers/STM32F1xx_HAL_Driver/Src/stm32f1xx_hal_uart.c ****     The UART HAL driver can be used as follows:
  30:Drivers/STM32F1xx_HAL_Driver/Src/stm32f1xx_hal_uart.c **** 
  31:Drivers/STM32F1xx_HAL_Driver/Src/stm32f1xx_hal_uart.c ****     (#) Declare a UART_HandleTypeDef handle structure (eg. UART_HandleTypeDef huart).
  32:Drivers/STM32F1xx_HAL_Driver/Src/stm32f1xx_hal_uart.c ****     (#) Initialize the UART low level resources by implementing the HAL_UART_MspInit() API:
ARM GAS  /tmp/cc17XZfc.s 			page 2


  33:Drivers/STM32F1xx_HAL_Driver/Src/stm32f1xx_hal_uart.c ****         (##) Enable the USARTx interface clock.
  34:Drivers/STM32F1xx_HAL_Driver/Src/stm32f1xx_hal_uart.c ****         (##) UART pins configuration:
  35:Drivers/STM32F1xx_HAL_Driver/Src/stm32f1xx_hal_uart.c ****             (+++) Enable the clock for the UART GPIOs.
  36:Drivers/STM32F1xx_HAL_Driver/Src/stm32f1xx_hal_uart.c ****             (+++) Configure the UART TX/RX pins as alternate function pull-up.
  37:Drivers/STM32F1xx_HAL_Driver/Src/stm32f1xx_hal_uart.c ****         (##) NVIC configuration if you need to use interrupt process (HAL_UART_Transmit_IT()
  38:Drivers/STM32F1xx_HAL_Driver/Src/stm32f1xx_hal_uart.c ****              and HAL_UART_Receive_IT() APIs):
  39:Drivers/STM32F1xx_HAL_Driver/Src/stm32f1xx_hal_uart.c ****             (+++) Configure the USARTx interrupt priority.
  40:Drivers/STM32F1xx_HAL_Driver/Src/stm32f1xx_hal_uart.c ****             (+++) Enable the NVIC USART IRQ handle.
  41:Drivers/STM32F1xx_HAL_Driver/Src/stm32f1xx_hal_uart.c ****         (##) DMA Configuration if you need to use DMA process (HAL_UART_Transmit_DMA()
  42:Drivers/STM32F1xx_HAL_Driver/Src/stm32f1xx_hal_uart.c ****              and HAL_UART_Receive_DMA() APIs):
  43:Drivers/STM32F1xx_HAL_Driver/Src/stm32f1xx_hal_uart.c ****             (+++) Declare a DMA handle structure for the Tx/Rx channel.
  44:Drivers/STM32F1xx_HAL_Driver/Src/stm32f1xx_hal_uart.c ****             (+++) Enable the DMAx interface clock.
  45:Drivers/STM32F1xx_HAL_Driver/Src/stm32f1xx_hal_uart.c ****             (+++) Configure the declared DMA handle structure with the required
  46:Drivers/STM32F1xx_HAL_Driver/Src/stm32f1xx_hal_uart.c ****                   Tx/Rx parameters.
  47:Drivers/STM32F1xx_HAL_Driver/Src/stm32f1xx_hal_uart.c ****             (+++) Configure the DMA Tx/Rx channel.
  48:Drivers/STM32F1xx_HAL_Driver/Src/stm32f1xx_hal_uart.c ****             (+++) Associate the initialized DMA handle to the UART DMA Tx/Rx handle.
  49:Drivers/STM32F1xx_HAL_Driver/Src/stm32f1xx_hal_uart.c ****             (+++) Configure the priority and enable the NVIC for the transfer complete
  50:Drivers/STM32F1xx_HAL_Driver/Src/stm32f1xx_hal_uart.c ****                   interrupt on the DMA Tx/Rx channel.
  51:Drivers/STM32F1xx_HAL_Driver/Src/stm32f1xx_hal_uart.c ****             (+++) Configure the USARTx interrupt priority and enable the NVIC USART IRQ handle
  52:Drivers/STM32F1xx_HAL_Driver/Src/stm32f1xx_hal_uart.c ****                   (used for last byte sending completion detection in DMA non circular mode)
  53:Drivers/STM32F1xx_HAL_Driver/Src/stm32f1xx_hal_uart.c **** 
  54:Drivers/STM32F1xx_HAL_Driver/Src/stm32f1xx_hal_uart.c ****     (#) Program the Baud Rate, Word Length, Stop Bit, Parity, Hardware
  55:Drivers/STM32F1xx_HAL_Driver/Src/stm32f1xx_hal_uart.c ****         flow control and Mode(Receiver/Transmitter) in the huart Init structure.
  56:Drivers/STM32F1xx_HAL_Driver/Src/stm32f1xx_hal_uart.c **** 
  57:Drivers/STM32F1xx_HAL_Driver/Src/stm32f1xx_hal_uart.c ****     (#) For the UART asynchronous mode, initialize the UART registers by calling
  58:Drivers/STM32F1xx_HAL_Driver/Src/stm32f1xx_hal_uart.c ****         the HAL_UART_Init() API.
  59:Drivers/STM32F1xx_HAL_Driver/Src/stm32f1xx_hal_uart.c **** 
  60:Drivers/STM32F1xx_HAL_Driver/Src/stm32f1xx_hal_uart.c ****     (#) For the UART Half duplex mode, initialize the UART registers by calling
  61:Drivers/STM32F1xx_HAL_Driver/Src/stm32f1xx_hal_uart.c ****         the HAL_HalfDuplex_Init() API.
  62:Drivers/STM32F1xx_HAL_Driver/Src/stm32f1xx_hal_uart.c **** 
  63:Drivers/STM32F1xx_HAL_Driver/Src/stm32f1xx_hal_uart.c ****     (#) For the LIN mode, initialize the UART registers by calling the HAL_LIN_Init() API.
  64:Drivers/STM32F1xx_HAL_Driver/Src/stm32f1xx_hal_uart.c **** 
  65:Drivers/STM32F1xx_HAL_Driver/Src/stm32f1xx_hal_uart.c ****     (#) For the Multi-Processor mode, initialize the UART registers by calling
  66:Drivers/STM32F1xx_HAL_Driver/Src/stm32f1xx_hal_uart.c ****         the HAL_MultiProcessor_Init() API.
  67:Drivers/STM32F1xx_HAL_Driver/Src/stm32f1xx_hal_uart.c **** 
  68:Drivers/STM32F1xx_HAL_Driver/Src/stm32f1xx_hal_uart.c ****      [..]
  69:Drivers/STM32F1xx_HAL_Driver/Src/stm32f1xx_hal_uart.c ****        (@) The specific UART interrupts (Transmission complete interrupt,
  70:Drivers/STM32F1xx_HAL_Driver/Src/stm32f1xx_hal_uart.c ****             RXNE interrupt and Error Interrupts) will be managed using the macros
  71:Drivers/STM32F1xx_HAL_Driver/Src/stm32f1xx_hal_uart.c ****             __HAL_UART_ENABLE_IT() and __HAL_UART_DISABLE_IT() inside the transmit
  72:Drivers/STM32F1xx_HAL_Driver/Src/stm32f1xx_hal_uart.c ****             and receive process.
  73:Drivers/STM32F1xx_HAL_Driver/Src/stm32f1xx_hal_uart.c **** 
  74:Drivers/STM32F1xx_HAL_Driver/Src/stm32f1xx_hal_uart.c ****      [..]
  75:Drivers/STM32F1xx_HAL_Driver/Src/stm32f1xx_hal_uart.c ****        (@) These APIs (HAL_UART_Init() and HAL_HalfDuplex_Init()) configure also the
  76:Drivers/STM32F1xx_HAL_Driver/Src/stm32f1xx_hal_uart.c ****             low level Hardware GPIO, CLOCK, CORTEX...etc) by calling the customized
  77:Drivers/STM32F1xx_HAL_Driver/Src/stm32f1xx_hal_uart.c ****             HAL_UART_MspInit() API.
  78:Drivers/STM32F1xx_HAL_Driver/Src/stm32f1xx_hal_uart.c **** 
  79:Drivers/STM32F1xx_HAL_Driver/Src/stm32f1xx_hal_uart.c ****     ##### Callback registration #####
  80:Drivers/STM32F1xx_HAL_Driver/Src/stm32f1xx_hal_uart.c ****     ==================================
  81:Drivers/STM32F1xx_HAL_Driver/Src/stm32f1xx_hal_uart.c **** 
  82:Drivers/STM32F1xx_HAL_Driver/Src/stm32f1xx_hal_uart.c ****     [..]
  83:Drivers/STM32F1xx_HAL_Driver/Src/stm32f1xx_hal_uart.c ****     The compilation define USE_HAL_UART_REGISTER_CALLBACKS when set to 1
  84:Drivers/STM32F1xx_HAL_Driver/Src/stm32f1xx_hal_uart.c ****     allows the user to configure dynamically the driver callbacks.
  85:Drivers/STM32F1xx_HAL_Driver/Src/stm32f1xx_hal_uart.c **** 
  86:Drivers/STM32F1xx_HAL_Driver/Src/stm32f1xx_hal_uart.c ****     [..]
  87:Drivers/STM32F1xx_HAL_Driver/Src/stm32f1xx_hal_uart.c ****     Use Function HAL_UART_RegisterCallback() to register a user callback.
  88:Drivers/STM32F1xx_HAL_Driver/Src/stm32f1xx_hal_uart.c ****     Function HAL_UART_RegisterCallback() allows to register following callbacks:
  89:Drivers/STM32F1xx_HAL_Driver/Src/stm32f1xx_hal_uart.c ****     (+) TxHalfCpltCallback        : Tx Half Complete Callback.
ARM GAS  /tmp/cc17XZfc.s 			page 3


  90:Drivers/STM32F1xx_HAL_Driver/Src/stm32f1xx_hal_uart.c ****     (+) TxCpltCallback            : Tx Complete Callback.
  91:Drivers/STM32F1xx_HAL_Driver/Src/stm32f1xx_hal_uart.c ****     (+) RxHalfCpltCallback        : Rx Half Complete Callback.
  92:Drivers/STM32F1xx_HAL_Driver/Src/stm32f1xx_hal_uart.c ****     (+) RxCpltCallback            : Rx Complete Callback.
  93:Drivers/STM32F1xx_HAL_Driver/Src/stm32f1xx_hal_uart.c ****     (+) ErrorCallback             : Error Callback.
  94:Drivers/STM32F1xx_HAL_Driver/Src/stm32f1xx_hal_uart.c ****     (+) AbortCpltCallback         : Abort Complete Callback.
  95:Drivers/STM32F1xx_HAL_Driver/Src/stm32f1xx_hal_uart.c ****     (+) AbortTransmitCpltCallback : Abort Transmit Complete Callback.
  96:Drivers/STM32F1xx_HAL_Driver/Src/stm32f1xx_hal_uart.c ****     (+) AbortReceiveCpltCallback  : Abort Receive Complete Callback.
  97:Drivers/STM32F1xx_HAL_Driver/Src/stm32f1xx_hal_uart.c ****     (+) MspInitCallback           : UART MspInit.
  98:Drivers/STM32F1xx_HAL_Driver/Src/stm32f1xx_hal_uart.c ****     (+) MspDeInitCallback         : UART MspDeInit.
  99:Drivers/STM32F1xx_HAL_Driver/Src/stm32f1xx_hal_uart.c ****     This function takes as parameters the HAL peripheral handle, the Callback ID
 100:Drivers/STM32F1xx_HAL_Driver/Src/stm32f1xx_hal_uart.c ****     and a pointer to the user callback function.
 101:Drivers/STM32F1xx_HAL_Driver/Src/stm32f1xx_hal_uart.c **** 
 102:Drivers/STM32F1xx_HAL_Driver/Src/stm32f1xx_hal_uart.c ****     [..]
 103:Drivers/STM32F1xx_HAL_Driver/Src/stm32f1xx_hal_uart.c ****     Use function HAL_UART_UnRegisterCallback() to reset a callback to the default
 104:Drivers/STM32F1xx_HAL_Driver/Src/stm32f1xx_hal_uart.c ****     weak (surcharged) function.
 105:Drivers/STM32F1xx_HAL_Driver/Src/stm32f1xx_hal_uart.c ****     HAL_UART_UnRegisterCallback() takes as parameters the HAL peripheral handle,
 106:Drivers/STM32F1xx_HAL_Driver/Src/stm32f1xx_hal_uart.c ****     and the Callback ID.
 107:Drivers/STM32F1xx_HAL_Driver/Src/stm32f1xx_hal_uart.c ****     This function allows to reset following callbacks:
 108:Drivers/STM32F1xx_HAL_Driver/Src/stm32f1xx_hal_uart.c ****     (+) TxHalfCpltCallback        : Tx Half Complete Callback.
 109:Drivers/STM32F1xx_HAL_Driver/Src/stm32f1xx_hal_uart.c ****     (+) TxCpltCallback            : Tx Complete Callback.
 110:Drivers/STM32F1xx_HAL_Driver/Src/stm32f1xx_hal_uart.c ****     (+) RxHalfCpltCallback        : Rx Half Complete Callback.
 111:Drivers/STM32F1xx_HAL_Driver/Src/stm32f1xx_hal_uart.c ****     (+) RxCpltCallback            : Rx Complete Callback.
 112:Drivers/STM32F1xx_HAL_Driver/Src/stm32f1xx_hal_uart.c ****     (+) ErrorCallback             : Error Callback.
 113:Drivers/STM32F1xx_HAL_Driver/Src/stm32f1xx_hal_uart.c ****     (+) AbortCpltCallback         : Abort Complete Callback.
 114:Drivers/STM32F1xx_HAL_Driver/Src/stm32f1xx_hal_uart.c ****     (+) AbortTransmitCpltCallback : Abort Transmit Complete Callback.
 115:Drivers/STM32F1xx_HAL_Driver/Src/stm32f1xx_hal_uart.c ****     (+) AbortReceiveCpltCallback  : Abort Receive Complete Callback.
 116:Drivers/STM32F1xx_HAL_Driver/Src/stm32f1xx_hal_uart.c ****     (+) MspInitCallback           : UART MspInit.
 117:Drivers/STM32F1xx_HAL_Driver/Src/stm32f1xx_hal_uart.c ****     (+) MspDeInitCallback         : UART MspDeInit.
 118:Drivers/STM32F1xx_HAL_Driver/Src/stm32f1xx_hal_uart.c **** 
 119:Drivers/STM32F1xx_HAL_Driver/Src/stm32f1xx_hal_uart.c ****     [..]
 120:Drivers/STM32F1xx_HAL_Driver/Src/stm32f1xx_hal_uart.c ****     For specific callback RxEventCallback, use dedicated registration/reset functions:
 121:Drivers/STM32F1xx_HAL_Driver/Src/stm32f1xx_hal_uart.c ****     respectively HAL_UART_RegisterRxEventCallback() , HAL_UART_UnRegisterRxEventCallback().
 122:Drivers/STM32F1xx_HAL_Driver/Src/stm32f1xx_hal_uart.c **** 
 123:Drivers/STM32F1xx_HAL_Driver/Src/stm32f1xx_hal_uart.c ****     [..]
 124:Drivers/STM32F1xx_HAL_Driver/Src/stm32f1xx_hal_uart.c ****     By default, after the HAL_UART_Init() and when the state is HAL_UART_STATE_RESET
 125:Drivers/STM32F1xx_HAL_Driver/Src/stm32f1xx_hal_uart.c ****     all callbacks are set to the corresponding weak (surcharged) functions:
 126:Drivers/STM32F1xx_HAL_Driver/Src/stm32f1xx_hal_uart.c ****     examples HAL_UART_TxCpltCallback(), HAL_UART_RxHalfCpltCallback().
 127:Drivers/STM32F1xx_HAL_Driver/Src/stm32f1xx_hal_uart.c ****     Exception done for MspInit and MspDeInit functions that are respectively
 128:Drivers/STM32F1xx_HAL_Driver/Src/stm32f1xx_hal_uart.c ****     reset to the legacy weak (surcharged) functions in the HAL_UART_Init()
 129:Drivers/STM32F1xx_HAL_Driver/Src/stm32f1xx_hal_uart.c ****     and HAL_UART_DeInit() only when these callbacks are null (not registered beforehand).
 130:Drivers/STM32F1xx_HAL_Driver/Src/stm32f1xx_hal_uart.c ****     If not, MspInit or MspDeInit are not null, the HAL_UART_Init() and HAL_UART_DeInit()
 131:Drivers/STM32F1xx_HAL_Driver/Src/stm32f1xx_hal_uart.c ****     keep and use the user MspInit/MspDeInit callbacks (registered beforehand).
 132:Drivers/STM32F1xx_HAL_Driver/Src/stm32f1xx_hal_uart.c **** 
 133:Drivers/STM32F1xx_HAL_Driver/Src/stm32f1xx_hal_uart.c ****     [..]
 134:Drivers/STM32F1xx_HAL_Driver/Src/stm32f1xx_hal_uart.c ****     Callbacks can be registered/unregistered in HAL_UART_STATE_READY state only.
 135:Drivers/STM32F1xx_HAL_Driver/Src/stm32f1xx_hal_uart.c ****     Exception done MspInit/MspDeInit that can be registered/unregistered
 136:Drivers/STM32F1xx_HAL_Driver/Src/stm32f1xx_hal_uart.c ****     in HAL_UART_STATE_READY or HAL_UART_STATE_RESET state, thus registered (user)
 137:Drivers/STM32F1xx_HAL_Driver/Src/stm32f1xx_hal_uart.c ****     MspInit/DeInit callbacks can be used during the Init/DeInit.
 138:Drivers/STM32F1xx_HAL_Driver/Src/stm32f1xx_hal_uart.c ****     In that case first register the MspInit/MspDeInit user callbacks
 139:Drivers/STM32F1xx_HAL_Driver/Src/stm32f1xx_hal_uart.c ****     using HAL_UART_RegisterCallback() before calling HAL_UART_DeInit()
 140:Drivers/STM32F1xx_HAL_Driver/Src/stm32f1xx_hal_uart.c ****     or HAL_UART_Init() function.
 141:Drivers/STM32F1xx_HAL_Driver/Src/stm32f1xx_hal_uart.c **** 
 142:Drivers/STM32F1xx_HAL_Driver/Src/stm32f1xx_hal_uart.c ****     [..]
 143:Drivers/STM32F1xx_HAL_Driver/Src/stm32f1xx_hal_uart.c ****     When The compilation define USE_HAL_UART_REGISTER_CALLBACKS is set to 0 or
 144:Drivers/STM32F1xx_HAL_Driver/Src/stm32f1xx_hal_uart.c ****     not defined, the callback registration feature is not available
 145:Drivers/STM32F1xx_HAL_Driver/Src/stm32f1xx_hal_uart.c ****     and weak (surcharged) callbacks are used.
 146:Drivers/STM32F1xx_HAL_Driver/Src/stm32f1xx_hal_uart.c **** 
ARM GAS  /tmp/cc17XZfc.s 			page 4


 147:Drivers/STM32F1xx_HAL_Driver/Src/stm32f1xx_hal_uart.c ****      [..]
 148:Drivers/STM32F1xx_HAL_Driver/Src/stm32f1xx_hal_uart.c ****         Three operation modes are available within this driver :
 149:Drivers/STM32F1xx_HAL_Driver/Src/stm32f1xx_hal_uart.c **** 
 150:Drivers/STM32F1xx_HAL_Driver/Src/stm32f1xx_hal_uart.c ****      *** Polling mode IO operation ***
 151:Drivers/STM32F1xx_HAL_Driver/Src/stm32f1xx_hal_uart.c ****      =================================
 152:Drivers/STM32F1xx_HAL_Driver/Src/stm32f1xx_hal_uart.c ****      [..]
 153:Drivers/STM32F1xx_HAL_Driver/Src/stm32f1xx_hal_uart.c ****        (+) Send an amount of data in blocking mode using HAL_UART_Transmit()
 154:Drivers/STM32F1xx_HAL_Driver/Src/stm32f1xx_hal_uart.c ****        (+) Receive an amount of data in blocking mode using HAL_UART_Receive()
 155:Drivers/STM32F1xx_HAL_Driver/Src/stm32f1xx_hal_uart.c **** 
 156:Drivers/STM32F1xx_HAL_Driver/Src/stm32f1xx_hal_uart.c ****      *** Interrupt mode IO operation ***
 157:Drivers/STM32F1xx_HAL_Driver/Src/stm32f1xx_hal_uart.c ****      ===================================
 158:Drivers/STM32F1xx_HAL_Driver/Src/stm32f1xx_hal_uart.c ****      [..]
 159:Drivers/STM32F1xx_HAL_Driver/Src/stm32f1xx_hal_uart.c ****        (+) Send an amount of data in non blocking mode using HAL_UART_Transmit_IT()
 160:Drivers/STM32F1xx_HAL_Driver/Src/stm32f1xx_hal_uart.c ****        (+) At transmission end of transfer HAL_UART_TxCpltCallback is executed and user can
 161:Drivers/STM32F1xx_HAL_Driver/Src/stm32f1xx_hal_uart.c ****             add his own code by customization of function pointer HAL_UART_TxCpltCallback
 162:Drivers/STM32F1xx_HAL_Driver/Src/stm32f1xx_hal_uart.c ****        (+) Receive an amount of data in non blocking mode using HAL_UART_Receive_IT()
 163:Drivers/STM32F1xx_HAL_Driver/Src/stm32f1xx_hal_uart.c ****        (+) At reception end of transfer HAL_UART_RxCpltCallback is executed and user can
 164:Drivers/STM32F1xx_HAL_Driver/Src/stm32f1xx_hal_uart.c ****             add his own code by customization of function pointer HAL_UART_RxCpltCallback
 165:Drivers/STM32F1xx_HAL_Driver/Src/stm32f1xx_hal_uart.c ****        (+) In case of transfer Error, HAL_UART_ErrorCallback() function is executed and user can
 166:Drivers/STM32F1xx_HAL_Driver/Src/stm32f1xx_hal_uart.c ****             add his own code by customization of function pointer HAL_UART_ErrorCallback
 167:Drivers/STM32F1xx_HAL_Driver/Src/stm32f1xx_hal_uart.c **** 
 168:Drivers/STM32F1xx_HAL_Driver/Src/stm32f1xx_hal_uart.c ****      *** DMA mode IO operation ***
 169:Drivers/STM32F1xx_HAL_Driver/Src/stm32f1xx_hal_uart.c ****      ==============================
 170:Drivers/STM32F1xx_HAL_Driver/Src/stm32f1xx_hal_uart.c ****      [..]
 171:Drivers/STM32F1xx_HAL_Driver/Src/stm32f1xx_hal_uart.c ****        (+) Send an amount of data in non blocking mode (DMA) using HAL_UART_Transmit_DMA()
 172:Drivers/STM32F1xx_HAL_Driver/Src/stm32f1xx_hal_uart.c ****        (+) At transmission end of half transfer HAL_UART_TxHalfCpltCallback is executed and user ca
 173:Drivers/STM32F1xx_HAL_Driver/Src/stm32f1xx_hal_uart.c ****             add his own code by customization of function pointer HAL_UART_TxHalfCpltCallback
 174:Drivers/STM32F1xx_HAL_Driver/Src/stm32f1xx_hal_uart.c ****        (+) At transmission end of transfer HAL_UART_TxCpltCallback is executed and user can
 175:Drivers/STM32F1xx_HAL_Driver/Src/stm32f1xx_hal_uart.c ****             add his own code by customization of function pointer HAL_UART_TxCpltCallback
 176:Drivers/STM32F1xx_HAL_Driver/Src/stm32f1xx_hal_uart.c ****        (+) Receive an amount of data in non blocking mode (DMA) using HAL_UART_Receive_DMA()
 177:Drivers/STM32F1xx_HAL_Driver/Src/stm32f1xx_hal_uart.c ****        (+) At reception end of half transfer HAL_UART_RxHalfCpltCallback is executed and user can
 178:Drivers/STM32F1xx_HAL_Driver/Src/stm32f1xx_hal_uart.c ****             add his own code by customization of function pointer HAL_UART_RxHalfCpltCallback
 179:Drivers/STM32F1xx_HAL_Driver/Src/stm32f1xx_hal_uart.c ****        (+) At reception end of transfer HAL_UART_RxCpltCallback is executed and user can
 180:Drivers/STM32F1xx_HAL_Driver/Src/stm32f1xx_hal_uart.c ****             add his own code by customization of function pointer HAL_UART_RxCpltCallback
 181:Drivers/STM32F1xx_HAL_Driver/Src/stm32f1xx_hal_uart.c ****        (+) In case of transfer Error, HAL_UART_ErrorCallback() function is executed and user can
 182:Drivers/STM32F1xx_HAL_Driver/Src/stm32f1xx_hal_uart.c ****             add his own code by customization of function pointer HAL_UART_ErrorCallback
 183:Drivers/STM32F1xx_HAL_Driver/Src/stm32f1xx_hal_uart.c ****        (+) Pause the DMA Transfer using HAL_UART_DMAPause()
 184:Drivers/STM32F1xx_HAL_Driver/Src/stm32f1xx_hal_uart.c ****        (+) Resume the DMA Transfer using HAL_UART_DMAResume()
 185:Drivers/STM32F1xx_HAL_Driver/Src/stm32f1xx_hal_uart.c ****        (+) Stop the DMA Transfer using HAL_UART_DMAStop()
 186:Drivers/STM32F1xx_HAL_Driver/Src/stm32f1xx_hal_uart.c **** 
 187:Drivers/STM32F1xx_HAL_Driver/Src/stm32f1xx_hal_uart.c **** 
 188:Drivers/STM32F1xx_HAL_Driver/Src/stm32f1xx_hal_uart.c ****     [..] This subsection also provides a set of additional functions providing enhanced reception
 189:Drivers/STM32F1xx_HAL_Driver/Src/stm32f1xx_hal_uart.c ****     services to user. (For example, these functions allow application to handle use cases
 190:Drivers/STM32F1xx_HAL_Driver/Src/stm32f1xx_hal_uart.c ****     where number of data to be received is unknown).
 191:Drivers/STM32F1xx_HAL_Driver/Src/stm32f1xx_hal_uart.c **** 
 192:Drivers/STM32F1xx_HAL_Driver/Src/stm32f1xx_hal_uart.c ****     (#) Compared to standard reception services which only consider number of received
 193:Drivers/STM32F1xx_HAL_Driver/Src/stm32f1xx_hal_uart.c ****         data elements as reception completion criteria, these functions also consider additional ev
 194:Drivers/STM32F1xx_HAL_Driver/Src/stm32f1xx_hal_uart.c ****         as triggers for updating reception status to caller :
 195:Drivers/STM32F1xx_HAL_Driver/Src/stm32f1xx_hal_uart.c ****        (+) Detection of inactivity period (RX line has not been active for a given period).
 196:Drivers/STM32F1xx_HAL_Driver/Src/stm32f1xx_hal_uart.c ****           (++) RX inactivity detected by IDLE event, i.e. RX line has been in idle state (normally 
 197:Drivers/STM32F1xx_HAL_Driver/Src/stm32f1xx_hal_uart.c ****                for 1 frame time, after last received byte.
 198:Drivers/STM32F1xx_HAL_Driver/Src/stm32f1xx_hal_uart.c **** 
 199:Drivers/STM32F1xx_HAL_Driver/Src/stm32f1xx_hal_uart.c ****     (#) There are two mode of transfer:
 200:Drivers/STM32F1xx_HAL_Driver/Src/stm32f1xx_hal_uart.c ****        (+) Blocking mode: The reception is performed in polling mode, until either expected number 
 201:Drivers/STM32F1xx_HAL_Driver/Src/stm32f1xx_hal_uart.c ****            or till IDLE event occurs. Reception is handled only during function execution.
 202:Drivers/STM32F1xx_HAL_Driver/Src/stm32f1xx_hal_uart.c ****            When function exits, no data reception could occur. HAL status and number of actually re
 203:Drivers/STM32F1xx_HAL_Driver/Src/stm32f1xx_hal_uart.c ****            are returned by function after finishing transfer.
ARM GAS  /tmp/cc17XZfc.s 			page 5


 204:Drivers/STM32F1xx_HAL_Driver/Src/stm32f1xx_hal_uart.c ****        (+) Non-Blocking mode: The reception is performed using Interrupts or DMA.
 205:Drivers/STM32F1xx_HAL_Driver/Src/stm32f1xx_hal_uart.c ****            These API's return the HAL status.
 206:Drivers/STM32F1xx_HAL_Driver/Src/stm32f1xx_hal_uart.c ****            The end of the data processing will be indicated through the
 207:Drivers/STM32F1xx_HAL_Driver/Src/stm32f1xx_hal_uart.c ****            dedicated UART IRQ when using Interrupt mode or the DMA IRQ when using DMA mode.
 208:Drivers/STM32F1xx_HAL_Driver/Src/stm32f1xx_hal_uart.c ****            The HAL_UARTEx_RxEventCallback() user callback will be executed during Receive process
 209:Drivers/STM32F1xx_HAL_Driver/Src/stm32f1xx_hal_uart.c ****            The HAL_UART_ErrorCallback()user callback will be executed when a reception error is det
 210:Drivers/STM32F1xx_HAL_Driver/Src/stm32f1xx_hal_uart.c **** 
 211:Drivers/STM32F1xx_HAL_Driver/Src/stm32f1xx_hal_uart.c ****     (#) Blocking mode API:
 212:Drivers/STM32F1xx_HAL_Driver/Src/stm32f1xx_hal_uart.c ****         (+) HAL_UARTEx_ReceiveToIdle()
 213:Drivers/STM32F1xx_HAL_Driver/Src/stm32f1xx_hal_uart.c **** 
 214:Drivers/STM32F1xx_HAL_Driver/Src/stm32f1xx_hal_uart.c ****     (#) Non-Blocking mode API with Interrupt:
 215:Drivers/STM32F1xx_HAL_Driver/Src/stm32f1xx_hal_uart.c ****         (+) HAL_UARTEx_ReceiveToIdle_IT()
 216:Drivers/STM32F1xx_HAL_Driver/Src/stm32f1xx_hal_uart.c **** 
 217:Drivers/STM32F1xx_HAL_Driver/Src/stm32f1xx_hal_uart.c ****     (#) Non-Blocking mode API with DMA:
 218:Drivers/STM32F1xx_HAL_Driver/Src/stm32f1xx_hal_uart.c ****         (+) HAL_UARTEx_ReceiveToIdle_DMA()
 219:Drivers/STM32F1xx_HAL_Driver/Src/stm32f1xx_hal_uart.c **** 
 220:Drivers/STM32F1xx_HAL_Driver/Src/stm32f1xx_hal_uart.c **** 
 221:Drivers/STM32F1xx_HAL_Driver/Src/stm32f1xx_hal_uart.c ****      *** UART HAL driver macros list ***
 222:Drivers/STM32F1xx_HAL_Driver/Src/stm32f1xx_hal_uart.c ****      =============================================
 223:Drivers/STM32F1xx_HAL_Driver/Src/stm32f1xx_hal_uart.c ****      [..]
 224:Drivers/STM32F1xx_HAL_Driver/Src/stm32f1xx_hal_uart.c ****        Below the list of most used macros in UART HAL driver.
 225:Drivers/STM32F1xx_HAL_Driver/Src/stm32f1xx_hal_uart.c **** 
 226:Drivers/STM32F1xx_HAL_Driver/Src/stm32f1xx_hal_uart.c ****       (+) __HAL_UART_ENABLE: Enable the UART peripheral
 227:Drivers/STM32F1xx_HAL_Driver/Src/stm32f1xx_hal_uart.c ****       (+) __HAL_UART_DISABLE: Disable the UART peripheral
 228:Drivers/STM32F1xx_HAL_Driver/Src/stm32f1xx_hal_uart.c ****       (+) __HAL_UART_GET_FLAG : Check whether the specified UART flag is set or not
 229:Drivers/STM32F1xx_HAL_Driver/Src/stm32f1xx_hal_uart.c ****       (+) __HAL_UART_CLEAR_FLAG : Clear the specified UART pending flag
 230:Drivers/STM32F1xx_HAL_Driver/Src/stm32f1xx_hal_uart.c ****       (+) __HAL_UART_ENABLE_IT: Enable the specified UART interrupt
 231:Drivers/STM32F1xx_HAL_Driver/Src/stm32f1xx_hal_uart.c ****       (+) __HAL_UART_DISABLE_IT: Disable the specified UART interrupt
 232:Drivers/STM32F1xx_HAL_Driver/Src/stm32f1xx_hal_uart.c ****       (+) __HAL_UART_GET_IT_SOURCE: Check whether the specified UART interrupt has occurred or not
 233:Drivers/STM32F1xx_HAL_Driver/Src/stm32f1xx_hal_uart.c **** 
 234:Drivers/STM32F1xx_HAL_Driver/Src/stm32f1xx_hal_uart.c ****      [..]
 235:Drivers/STM32F1xx_HAL_Driver/Src/stm32f1xx_hal_uart.c ****        (@) You can refer to the UART HAL driver header file for more useful macros
 236:Drivers/STM32F1xx_HAL_Driver/Src/stm32f1xx_hal_uart.c **** 
 237:Drivers/STM32F1xx_HAL_Driver/Src/stm32f1xx_hal_uart.c ****   @endverbatim
 238:Drivers/STM32F1xx_HAL_Driver/Src/stm32f1xx_hal_uart.c ****      [..]
 239:Drivers/STM32F1xx_HAL_Driver/Src/stm32f1xx_hal_uart.c ****        (@) Additional remark: If the parity is enabled, then the MSB bit of the data written
 240:Drivers/STM32F1xx_HAL_Driver/Src/stm32f1xx_hal_uart.c ****            in the data register is transmitted but is changed by the parity bit.
 241:Drivers/STM32F1xx_HAL_Driver/Src/stm32f1xx_hal_uart.c ****            Depending on the frame length defined by the M bit (8-bits or 9-bits),
 242:Drivers/STM32F1xx_HAL_Driver/Src/stm32f1xx_hal_uart.c ****            the possible UART frame formats are as listed in the following table:
 243:Drivers/STM32F1xx_HAL_Driver/Src/stm32f1xx_hal_uart.c ****     +-------------------------------------------------------------+
 244:Drivers/STM32F1xx_HAL_Driver/Src/stm32f1xx_hal_uart.c ****     |   M bit |  PCE bit  |            UART frame                 |
 245:Drivers/STM32F1xx_HAL_Driver/Src/stm32f1xx_hal_uart.c ****     |---------------------|---------------------------------------|
 246:Drivers/STM32F1xx_HAL_Driver/Src/stm32f1xx_hal_uart.c ****     |    0    |    0      |    | SB | 8 bit data | STB |          |
 247:Drivers/STM32F1xx_HAL_Driver/Src/stm32f1xx_hal_uart.c ****     |---------|-----------|---------------------------------------|
 248:Drivers/STM32F1xx_HAL_Driver/Src/stm32f1xx_hal_uart.c ****     |    0    |    1      |    | SB | 7 bit data | PB | STB |     |
 249:Drivers/STM32F1xx_HAL_Driver/Src/stm32f1xx_hal_uart.c ****     |---------|-----------|---------------------------------------|
 250:Drivers/STM32F1xx_HAL_Driver/Src/stm32f1xx_hal_uart.c ****     |    1    |    0      |    | SB | 9 bit data | STB |          |
 251:Drivers/STM32F1xx_HAL_Driver/Src/stm32f1xx_hal_uart.c ****     |---------|-----------|---------------------------------------|
 252:Drivers/STM32F1xx_HAL_Driver/Src/stm32f1xx_hal_uart.c ****     |    1    |    1      |    | SB | 8 bit data | PB | STB |     |
 253:Drivers/STM32F1xx_HAL_Driver/Src/stm32f1xx_hal_uart.c ****     +-------------------------------------------------------------+
 254:Drivers/STM32F1xx_HAL_Driver/Src/stm32f1xx_hal_uart.c ****   ******************************************************************************
 255:Drivers/STM32F1xx_HAL_Driver/Src/stm32f1xx_hal_uart.c ****   */
 256:Drivers/STM32F1xx_HAL_Driver/Src/stm32f1xx_hal_uart.c **** 
 257:Drivers/STM32F1xx_HAL_Driver/Src/stm32f1xx_hal_uart.c **** /* Includes ------------------------------------------------------------------*/
 258:Drivers/STM32F1xx_HAL_Driver/Src/stm32f1xx_hal_uart.c **** #include "stm32f1xx_hal.h"
 259:Drivers/STM32F1xx_HAL_Driver/Src/stm32f1xx_hal_uart.c **** 
 260:Drivers/STM32F1xx_HAL_Driver/Src/stm32f1xx_hal_uart.c **** /** @addtogroup STM32F1xx_HAL_Driver
ARM GAS  /tmp/cc17XZfc.s 			page 6


 261:Drivers/STM32F1xx_HAL_Driver/Src/stm32f1xx_hal_uart.c ****   * @{
 262:Drivers/STM32F1xx_HAL_Driver/Src/stm32f1xx_hal_uart.c ****   */
 263:Drivers/STM32F1xx_HAL_Driver/Src/stm32f1xx_hal_uart.c **** 
 264:Drivers/STM32F1xx_HAL_Driver/Src/stm32f1xx_hal_uart.c **** /** @defgroup UART UART
 265:Drivers/STM32F1xx_HAL_Driver/Src/stm32f1xx_hal_uart.c ****   * @brief HAL UART module driver
 266:Drivers/STM32F1xx_HAL_Driver/Src/stm32f1xx_hal_uart.c ****   * @{
 267:Drivers/STM32F1xx_HAL_Driver/Src/stm32f1xx_hal_uart.c ****   */
 268:Drivers/STM32F1xx_HAL_Driver/Src/stm32f1xx_hal_uart.c **** #ifdef HAL_UART_MODULE_ENABLED
 269:Drivers/STM32F1xx_HAL_Driver/Src/stm32f1xx_hal_uart.c **** 
 270:Drivers/STM32F1xx_HAL_Driver/Src/stm32f1xx_hal_uart.c **** /* Private typedef -----------------------------------------------------------*/
 271:Drivers/STM32F1xx_HAL_Driver/Src/stm32f1xx_hal_uart.c **** /* Private define ------------------------------------------------------------*/
 272:Drivers/STM32F1xx_HAL_Driver/Src/stm32f1xx_hal_uart.c **** /** @addtogroup UART_Private_Constants
 273:Drivers/STM32F1xx_HAL_Driver/Src/stm32f1xx_hal_uart.c ****   * @{
 274:Drivers/STM32F1xx_HAL_Driver/Src/stm32f1xx_hal_uart.c ****   */
 275:Drivers/STM32F1xx_HAL_Driver/Src/stm32f1xx_hal_uart.c **** /**
 276:Drivers/STM32F1xx_HAL_Driver/Src/stm32f1xx_hal_uart.c ****   * @}
 277:Drivers/STM32F1xx_HAL_Driver/Src/stm32f1xx_hal_uart.c ****   */
 278:Drivers/STM32F1xx_HAL_Driver/Src/stm32f1xx_hal_uart.c **** /* Private macro -------------------------------------------------------------*/
 279:Drivers/STM32F1xx_HAL_Driver/Src/stm32f1xx_hal_uart.c **** /* Private variables ---------------------------------------------------------*/
 280:Drivers/STM32F1xx_HAL_Driver/Src/stm32f1xx_hal_uart.c **** /* Private function prototypes -----------------------------------------------*/
 281:Drivers/STM32F1xx_HAL_Driver/Src/stm32f1xx_hal_uart.c **** /** @addtogroup UART_Private_Functions  UART Private Functions
 282:Drivers/STM32F1xx_HAL_Driver/Src/stm32f1xx_hal_uart.c ****   * @{
 283:Drivers/STM32F1xx_HAL_Driver/Src/stm32f1xx_hal_uart.c ****   */
 284:Drivers/STM32F1xx_HAL_Driver/Src/stm32f1xx_hal_uart.c **** 
 285:Drivers/STM32F1xx_HAL_Driver/Src/stm32f1xx_hal_uart.c **** #if (USE_HAL_UART_REGISTER_CALLBACKS == 1)
 286:Drivers/STM32F1xx_HAL_Driver/Src/stm32f1xx_hal_uart.c **** void UART_InitCallbacksToDefault(UART_HandleTypeDef *huart);
 287:Drivers/STM32F1xx_HAL_Driver/Src/stm32f1xx_hal_uart.c **** #endif /* USE_HAL_UART_REGISTER_CALLBACKS */
 288:Drivers/STM32F1xx_HAL_Driver/Src/stm32f1xx_hal_uart.c **** static void UART_EndTxTransfer(UART_HandleTypeDef *huart);
 289:Drivers/STM32F1xx_HAL_Driver/Src/stm32f1xx_hal_uart.c **** static void UART_EndRxTransfer(UART_HandleTypeDef *huart);
 290:Drivers/STM32F1xx_HAL_Driver/Src/stm32f1xx_hal_uart.c **** static void UART_DMATransmitCplt(DMA_HandleTypeDef *hdma);
 291:Drivers/STM32F1xx_HAL_Driver/Src/stm32f1xx_hal_uart.c **** static void UART_DMAReceiveCplt(DMA_HandleTypeDef *hdma);
 292:Drivers/STM32F1xx_HAL_Driver/Src/stm32f1xx_hal_uart.c **** static void UART_DMATxHalfCplt(DMA_HandleTypeDef *hdma);
 293:Drivers/STM32F1xx_HAL_Driver/Src/stm32f1xx_hal_uart.c **** static void UART_DMARxHalfCplt(DMA_HandleTypeDef *hdma);
 294:Drivers/STM32F1xx_HAL_Driver/Src/stm32f1xx_hal_uart.c **** static void UART_DMAError(DMA_HandleTypeDef *hdma);
 295:Drivers/STM32F1xx_HAL_Driver/Src/stm32f1xx_hal_uart.c **** static void UART_DMAAbortOnError(DMA_HandleTypeDef *hdma);
 296:Drivers/STM32F1xx_HAL_Driver/Src/stm32f1xx_hal_uart.c **** static void UART_DMATxAbortCallback(DMA_HandleTypeDef *hdma);
 297:Drivers/STM32F1xx_HAL_Driver/Src/stm32f1xx_hal_uart.c **** static void UART_DMARxAbortCallback(DMA_HandleTypeDef *hdma);
 298:Drivers/STM32F1xx_HAL_Driver/Src/stm32f1xx_hal_uart.c **** static void UART_DMATxOnlyAbortCallback(DMA_HandleTypeDef *hdma);
 299:Drivers/STM32F1xx_HAL_Driver/Src/stm32f1xx_hal_uart.c **** static void UART_DMARxOnlyAbortCallback(DMA_HandleTypeDef *hdma);
 300:Drivers/STM32F1xx_HAL_Driver/Src/stm32f1xx_hal_uart.c **** static HAL_StatusTypeDef UART_Transmit_IT(UART_HandleTypeDef *huart);
 301:Drivers/STM32F1xx_HAL_Driver/Src/stm32f1xx_hal_uart.c **** static HAL_StatusTypeDef UART_EndTransmit_IT(UART_HandleTypeDef *huart);
 302:Drivers/STM32F1xx_HAL_Driver/Src/stm32f1xx_hal_uart.c **** static HAL_StatusTypeDef UART_Receive_IT(UART_HandleTypeDef *huart);
 303:Drivers/STM32F1xx_HAL_Driver/Src/stm32f1xx_hal_uart.c **** static HAL_StatusTypeDef UART_WaitOnFlagUntilTimeout(UART_HandleTypeDef *huart, uint32_t Flag, Flag
 304:Drivers/STM32F1xx_HAL_Driver/Src/stm32f1xx_hal_uart.c ****                                                      uint32_t Tickstart, uint32_t Timeout);
 305:Drivers/STM32F1xx_HAL_Driver/Src/stm32f1xx_hal_uart.c **** static void UART_SetConfig(UART_HandleTypeDef *huart);
 306:Drivers/STM32F1xx_HAL_Driver/Src/stm32f1xx_hal_uart.c **** 
 307:Drivers/STM32F1xx_HAL_Driver/Src/stm32f1xx_hal_uart.c **** /**
 308:Drivers/STM32F1xx_HAL_Driver/Src/stm32f1xx_hal_uart.c ****   * @}
 309:Drivers/STM32F1xx_HAL_Driver/Src/stm32f1xx_hal_uart.c ****   */
 310:Drivers/STM32F1xx_HAL_Driver/Src/stm32f1xx_hal_uart.c **** 
 311:Drivers/STM32F1xx_HAL_Driver/Src/stm32f1xx_hal_uart.c **** /* Exported functions ---------------------------------------------------------*/
 312:Drivers/STM32F1xx_HAL_Driver/Src/stm32f1xx_hal_uart.c **** /** @defgroup UART_Exported_Functions UART Exported Functions
 313:Drivers/STM32F1xx_HAL_Driver/Src/stm32f1xx_hal_uart.c ****   * @{
 314:Drivers/STM32F1xx_HAL_Driver/Src/stm32f1xx_hal_uart.c ****   */
 315:Drivers/STM32F1xx_HAL_Driver/Src/stm32f1xx_hal_uart.c **** 
 316:Drivers/STM32F1xx_HAL_Driver/Src/stm32f1xx_hal_uart.c **** /** @defgroup UART_Exported_Functions_Group1 Initialization and de-initialization functions
 317:Drivers/STM32F1xx_HAL_Driver/Src/stm32f1xx_hal_uart.c ****   *  @brief    Initialization and Configuration functions
ARM GAS  /tmp/cc17XZfc.s 			page 7


 318:Drivers/STM32F1xx_HAL_Driver/Src/stm32f1xx_hal_uart.c ****   *
 319:Drivers/STM32F1xx_HAL_Driver/Src/stm32f1xx_hal_uart.c **** @verbatim
 320:Drivers/STM32F1xx_HAL_Driver/Src/stm32f1xx_hal_uart.c ****  ===============================================================================
 321:Drivers/STM32F1xx_HAL_Driver/Src/stm32f1xx_hal_uart.c ****             ##### Initialization and Configuration functions #####
 322:Drivers/STM32F1xx_HAL_Driver/Src/stm32f1xx_hal_uart.c ****  ===============================================================================
 323:Drivers/STM32F1xx_HAL_Driver/Src/stm32f1xx_hal_uart.c ****     [..]
 324:Drivers/STM32F1xx_HAL_Driver/Src/stm32f1xx_hal_uart.c ****     This subsection provides a set of functions allowing to initialize the USARTx or the UARTy
 325:Drivers/STM32F1xx_HAL_Driver/Src/stm32f1xx_hal_uart.c ****     in asynchronous mode.
 326:Drivers/STM32F1xx_HAL_Driver/Src/stm32f1xx_hal_uart.c ****       (+) For the asynchronous mode only these parameters can be configured:
 327:Drivers/STM32F1xx_HAL_Driver/Src/stm32f1xx_hal_uart.c ****         (++) Baud Rate
 328:Drivers/STM32F1xx_HAL_Driver/Src/stm32f1xx_hal_uart.c ****         (++) Word Length
 329:Drivers/STM32F1xx_HAL_Driver/Src/stm32f1xx_hal_uart.c ****         (++) Stop Bit
 330:Drivers/STM32F1xx_HAL_Driver/Src/stm32f1xx_hal_uart.c ****         (++) Parity: If the parity is enabled, then the MSB bit of the data written
 331:Drivers/STM32F1xx_HAL_Driver/Src/stm32f1xx_hal_uart.c ****              in the data register is transmitted but is changed by the parity bit.
 332:Drivers/STM32F1xx_HAL_Driver/Src/stm32f1xx_hal_uart.c ****              Depending on the frame length defined by the M bit (8-bits or 9-bits),
 333:Drivers/STM32F1xx_HAL_Driver/Src/stm32f1xx_hal_uart.c ****              please refer to Reference manual for possible UART frame formats.
 334:Drivers/STM32F1xx_HAL_Driver/Src/stm32f1xx_hal_uart.c ****         (++) Hardware flow control
 335:Drivers/STM32F1xx_HAL_Driver/Src/stm32f1xx_hal_uart.c ****         (++) Receiver/transmitter modes
 336:Drivers/STM32F1xx_HAL_Driver/Src/stm32f1xx_hal_uart.c ****         (++) Over Sampling Method
 337:Drivers/STM32F1xx_HAL_Driver/Src/stm32f1xx_hal_uart.c ****     [..]
 338:Drivers/STM32F1xx_HAL_Driver/Src/stm32f1xx_hal_uart.c ****     The HAL_UART_Init(), HAL_HalfDuplex_Init(), HAL_LIN_Init() and HAL_MultiProcessor_Init() APIs
 339:Drivers/STM32F1xx_HAL_Driver/Src/stm32f1xx_hal_uart.c ****     follow respectively the UART asynchronous, UART Half duplex, LIN and Multi-Processor configurat
 340:Drivers/STM32F1xx_HAL_Driver/Src/stm32f1xx_hal_uart.c ****     procedures (details for the procedures are available in reference manuals
 341:Drivers/STM32F1xx_HAL_Driver/Src/stm32f1xx_hal_uart.c ****     (RM0008 for STM32F10Xxx MCUs and RM0041 for STM32F100xx MCUs)).
 342:Drivers/STM32F1xx_HAL_Driver/Src/stm32f1xx_hal_uart.c **** 
 343:Drivers/STM32F1xx_HAL_Driver/Src/stm32f1xx_hal_uart.c **** @endverbatim
 344:Drivers/STM32F1xx_HAL_Driver/Src/stm32f1xx_hal_uart.c ****   * @{
 345:Drivers/STM32F1xx_HAL_Driver/Src/stm32f1xx_hal_uart.c ****   */
 346:Drivers/STM32F1xx_HAL_Driver/Src/stm32f1xx_hal_uart.c **** 
 347:Drivers/STM32F1xx_HAL_Driver/Src/stm32f1xx_hal_uart.c **** /**
 348:Drivers/STM32F1xx_HAL_Driver/Src/stm32f1xx_hal_uart.c ****   * @brief  Initializes the UART mode according to the specified parameters in
 349:Drivers/STM32F1xx_HAL_Driver/Src/stm32f1xx_hal_uart.c ****   *         the UART_InitTypeDef and create the associated handle.
 350:Drivers/STM32F1xx_HAL_Driver/Src/stm32f1xx_hal_uart.c ****   * @param  huart  Pointer to a UART_HandleTypeDef structure that contains
 351:Drivers/STM32F1xx_HAL_Driver/Src/stm32f1xx_hal_uart.c ****   *                the configuration information for the specified UART module.
 352:Drivers/STM32F1xx_HAL_Driver/Src/stm32f1xx_hal_uart.c ****   * @retval HAL status
 353:Drivers/STM32F1xx_HAL_Driver/Src/stm32f1xx_hal_uart.c ****   */
 354:Drivers/STM32F1xx_HAL_Driver/Src/stm32f1xx_hal_uart.c **** HAL_StatusTypeDef HAL_UART_Init(UART_HandleTypeDef *huart)
 355:Drivers/STM32F1xx_HAL_Driver/Src/stm32f1xx_hal_uart.c **** {
  27              		.loc 1 355 1
  28              		.cfi_startproc
  29              		@ args = 0, pretend = 0, frame = 8
  30              		@ frame_needed = 1, uses_anonymous_args = 0
  31 0000 80B5     		push	{r7, lr}
  32              	.LCFI0:
  33              		.cfi_def_cfa_offset 8
  34              		.cfi_offset 7, -8
  35              		.cfi_offset 14, -4
  36 0002 82B0     		sub	sp, sp, #8
  37              	.LCFI1:
  38              		.cfi_def_cfa_offset 16
  39 0004 00AF     		add	r7, sp, #0
  40              	.LCFI2:
  41              		.cfi_def_cfa_register 7
  42 0006 7860     		str	r0, [r7, #4]
 356:Drivers/STM32F1xx_HAL_Driver/Src/stm32f1xx_hal_uart.c ****   /* Check the UART handle allocation */
 357:Drivers/STM32F1xx_HAL_Driver/Src/stm32f1xx_hal_uart.c ****   if (huart == NULL)
  43              		.loc 1 357 6
ARM GAS  /tmp/cc17XZfc.s 			page 8


  44 0008 7B68     		ldr	r3, [r7, #4]
  45 000a 002B     		cmp	r3, #0
  46 000c 01D1     		bne	.L2
 358:Drivers/STM32F1xx_HAL_Driver/Src/stm32f1xx_hal_uart.c ****   {
 359:Drivers/STM32F1xx_HAL_Driver/Src/stm32f1xx_hal_uart.c ****     return HAL_ERROR;
  47              		.loc 1 359 12
  48 000e 0123     		movs	r3, #1
  49 0010 42E0     		b	.L3
  50              	.L2:
 360:Drivers/STM32F1xx_HAL_Driver/Src/stm32f1xx_hal_uart.c ****   }
 361:Drivers/STM32F1xx_HAL_Driver/Src/stm32f1xx_hal_uart.c **** 
 362:Drivers/STM32F1xx_HAL_Driver/Src/stm32f1xx_hal_uart.c ****   /* Check the parameters */
 363:Drivers/STM32F1xx_HAL_Driver/Src/stm32f1xx_hal_uart.c ****   if (huart->Init.HwFlowCtl != UART_HWCONTROL_NONE)
 364:Drivers/STM32F1xx_HAL_Driver/Src/stm32f1xx_hal_uart.c ****   {
 365:Drivers/STM32F1xx_HAL_Driver/Src/stm32f1xx_hal_uart.c ****     /* The hardware flow control is available only for USART1, USART2 and USART3 */
 366:Drivers/STM32F1xx_HAL_Driver/Src/stm32f1xx_hal_uart.c ****     assert_param(IS_UART_HWFLOW_INSTANCE(huart->Instance));
 367:Drivers/STM32F1xx_HAL_Driver/Src/stm32f1xx_hal_uart.c ****     assert_param(IS_UART_HARDWARE_FLOW_CONTROL(huart->Init.HwFlowCtl));
 368:Drivers/STM32F1xx_HAL_Driver/Src/stm32f1xx_hal_uart.c ****   }
 369:Drivers/STM32F1xx_HAL_Driver/Src/stm32f1xx_hal_uart.c ****   else
 370:Drivers/STM32F1xx_HAL_Driver/Src/stm32f1xx_hal_uart.c ****   {
 371:Drivers/STM32F1xx_HAL_Driver/Src/stm32f1xx_hal_uart.c ****     assert_param(IS_UART_INSTANCE(huart->Instance));
 372:Drivers/STM32F1xx_HAL_Driver/Src/stm32f1xx_hal_uart.c ****   }
 373:Drivers/STM32F1xx_HAL_Driver/Src/stm32f1xx_hal_uart.c ****   assert_param(IS_UART_WORD_LENGTH(huart->Init.WordLength));
 374:Drivers/STM32F1xx_HAL_Driver/Src/stm32f1xx_hal_uart.c **** #if defined(USART_CR1_OVER8)
 375:Drivers/STM32F1xx_HAL_Driver/Src/stm32f1xx_hal_uart.c ****   assert_param(IS_UART_OVERSAMPLING(huart->Init.OverSampling));
 376:Drivers/STM32F1xx_HAL_Driver/Src/stm32f1xx_hal_uart.c **** #endif /* USART_CR1_OVER8 */
 377:Drivers/STM32F1xx_HAL_Driver/Src/stm32f1xx_hal_uart.c **** 
 378:Drivers/STM32F1xx_HAL_Driver/Src/stm32f1xx_hal_uart.c ****   if (huart->gState == HAL_UART_STATE_RESET)
  51              		.loc 1 378 12
  52 0012 7B68     		ldr	r3, [r7, #4]
  53 0014 93F84130 		ldrb	r3, [r3, #65]
  54 0018 DBB2     		uxtb	r3, r3
  55              		.loc 1 378 6
  56 001a 002B     		cmp	r3, #0
  57 001c 06D1     		bne	.L4
 379:Drivers/STM32F1xx_HAL_Driver/Src/stm32f1xx_hal_uart.c ****   {
 380:Drivers/STM32F1xx_HAL_Driver/Src/stm32f1xx_hal_uart.c ****     /* Allocate lock resource and initialize it */
 381:Drivers/STM32F1xx_HAL_Driver/Src/stm32f1xx_hal_uart.c ****     huart->Lock = HAL_UNLOCKED;
  58              		.loc 1 381 17
  59 001e 7B68     		ldr	r3, [r7, #4]
  60 0020 0022     		movs	r2, #0
  61 0022 83F84020 		strb	r2, [r3, #64]
 382:Drivers/STM32F1xx_HAL_Driver/Src/stm32f1xx_hal_uart.c **** 
 383:Drivers/STM32F1xx_HAL_Driver/Src/stm32f1xx_hal_uart.c **** #if (USE_HAL_UART_REGISTER_CALLBACKS == 1)
 384:Drivers/STM32F1xx_HAL_Driver/Src/stm32f1xx_hal_uart.c ****     UART_InitCallbacksToDefault(huart);
 385:Drivers/STM32F1xx_HAL_Driver/Src/stm32f1xx_hal_uart.c **** 
 386:Drivers/STM32F1xx_HAL_Driver/Src/stm32f1xx_hal_uart.c ****     if (huart->MspInitCallback == NULL)
 387:Drivers/STM32F1xx_HAL_Driver/Src/stm32f1xx_hal_uart.c ****     {
 388:Drivers/STM32F1xx_HAL_Driver/Src/stm32f1xx_hal_uart.c ****       huart->MspInitCallback = HAL_UART_MspInit;
 389:Drivers/STM32F1xx_HAL_Driver/Src/stm32f1xx_hal_uart.c ****     }
 390:Drivers/STM32F1xx_HAL_Driver/Src/stm32f1xx_hal_uart.c **** 
 391:Drivers/STM32F1xx_HAL_Driver/Src/stm32f1xx_hal_uart.c ****     /* Init the low level hardware */
 392:Drivers/STM32F1xx_HAL_Driver/Src/stm32f1xx_hal_uart.c ****     huart->MspInitCallback(huart);
 393:Drivers/STM32F1xx_HAL_Driver/Src/stm32f1xx_hal_uart.c **** #else
 394:Drivers/STM32F1xx_HAL_Driver/Src/stm32f1xx_hal_uart.c ****     /* Init the low level hardware : GPIO, CLOCK */
 395:Drivers/STM32F1xx_HAL_Driver/Src/stm32f1xx_hal_uart.c ****     HAL_UART_MspInit(huart);
  62              		.loc 1 395 5
ARM GAS  /tmp/cc17XZfc.s 			page 9


  63 0026 7868     		ldr	r0, [r7, #4]
  64 0028 FFF7FEFF 		bl	HAL_UART_MspInit
  65              	.L4:
 396:Drivers/STM32F1xx_HAL_Driver/Src/stm32f1xx_hal_uart.c **** #endif /* (USE_HAL_UART_REGISTER_CALLBACKS) */
 397:Drivers/STM32F1xx_HAL_Driver/Src/stm32f1xx_hal_uart.c ****   }
 398:Drivers/STM32F1xx_HAL_Driver/Src/stm32f1xx_hal_uart.c **** 
 399:Drivers/STM32F1xx_HAL_Driver/Src/stm32f1xx_hal_uart.c ****   huart->gState = HAL_UART_STATE_BUSY;
  66              		.loc 1 399 17
  67 002c 7B68     		ldr	r3, [r7, #4]
  68 002e 2422     		movs	r2, #36
  69 0030 83F84120 		strb	r2, [r3, #65]
 400:Drivers/STM32F1xx_HAL_Driver/Src/stm32f1xx_hal_uart.c **** 
 401:Drivers/STM32F1xx_HAL_Driver/Src/stm32f1xx_hal_uart.c ****   /* Disable the peripheral */
 402:Drivers/STM32F1xx_HAL_Driver/Src/stm32f1xx_hal_uart.c ****   __HAL_UART_DISABLE(huart);
  70              		.loc 1 402 3
  71 0034 7B68     		ldr	r3, [r7, #4]
  72 0036 1B68     		ldr	r3, [r3]
  73 0038 DA68     		ldr	r2, [r3, #12]
  74 003a 7B68     		ldr	r3, [r7, #4]
  75 003c 1B68     		ldr	r3, [r3]
  76 003e 22F40052 		bic	r2, r2, #8192
  77 0042 DA60     		str	r2, [r3, #12]
 403:Drivers/STM32F1xx_HAL_Driver/Src/stm32f1xx_hal_uart.c **** 
 404:Drivers/STM32F1xx_HAL_Driver/Src/stm32f1xx_hal_uart.c ****   /* Set the UART Communication parameters */
 405:Drivers/STM32F1xx_HAL_Driver/Src/stm32f1xx_hal_uart.c ****   UART_SetConfig(huart);
  78              		.loc 1 405 3
  79 0044 7868     		ldr	r0, [r7, #4]
  80 0046 FFF7FEFF 		bl	UART_SetConfig
 406:Drivers/STM32F1xx_HAL_Driver/Src/stm32f1xx_hal_uart.c **** 
 407:Drivers/STM32F1xx_HAL_Driver/Src/stm32f1xx_hal_uart.c ****   /* In asynchronous mode, the following bits must be kept cleared:
 408:Drivers/STM32F1xx_HAL_Driver/Src/stm32f1xx_hal_uart.c ****      - LINEN and CLKEN bits in the USART_CR2 register,
 409:Drivers/STM32F1xx_HAL_Driver/Src/stm32f1xx_hal_uart.c ****      - SCEN, HDSEL and IREN  bits in the USART_CR3 register.*/
 410:Drivers/STM32F1xx_HAL_Driver/Src/stm32f1xx_hal_uart.c ****   CLEAR_BIT(huart->Instance->CR2, (USART_CR2_LINEN | USART_CR2_CLKEN));
  81              		.loc 1 410 3
  82 004a 7B68     		ldr	r3, [r7, #4]
  83 004c 1B68     		ldr	r3, [r3]
  84 004e 1A69     		ldr	r2, [r3, #16]
  85 0050 7B68     		ldr	r3, [r7, #4]
  86 0052 1B68     		ldr	r3, [r3]
  87 0054 22F49042 		bic	r2, r2, #18432
  88 0058 1A61     		str	r2, [r3, #16]
 411:Drivers/STM32F1xx_HAL_Driver/Src/stm32f1xx_hal_uart.c ****   CLEAR_BIT(huart->Instance->CR3, (USART_CR3_SCEN | USART_CR3_HDSEL | USART_CR3_IREN));
  89              		.loc 1 411 3
  90 005a 7B68     		ldr	r3, [r7, #4]
  91 005c 1B68     		ldr	r3, [r3]
  92 005e 5A69     		ldr	r2, [r3, #20]
  93 0060 7B68     		ldr	r3, [r7, #4]
  94 0062 1B68     		ldr	r3, [r3]
  95 0064 22F02A02 		bic	r2, r2, #42
  96 0068 5A61     		str	r2, [r3, #20]
 412:Drivers/STM32F1xx_HAL_Driver/Src/stm32f1xx_hal_uart.c **** 
 413:Drivers/STM32F1xx_HAL_Driver/Src/stm32f1xx_hal_uart.c ****   /* Enable the peripheral */
 414:Drivers/STM32F1xx_HAL_Driver/Src/stm32f1xx_hal_uart.c ****   __HAL_UART_ENABLE(huart);
  97              		.loc 1 414 3
  98 006a 7B68     		ldr	r3, [r7, #4]
  99 006c 1B68     		ldr	r3, [r3]
 100 006e DA68     		ldr	r2, [r3, #12]
ARM GAS  /tmp/cc17XZfc.s 			page 10


 101 0070 7B68     		ldr	r3, [r7, #4]
 102 0072 1B68     		ldr	r3, [r3]
 103 0074 42F40052 		orr	r2, r2, #8192
 104 0078 DA60     		str	r2, [r3, #12]
 415:Drivers/STM32F1xx_HAL_Driver/Src/stm32f1xx_hal_uart.c **** 
 416:Drivers/STM32F1xx_HAL_Driver/Src/stm32f1xx_hal_uart.c ****   /* Initialize the UART state */
 417:Drivers/STM32F1xx_HAL_Driver/Src/stm32f1xx_hal_uart.c ****   huart->ErrorCode = HAL_UART_ERROR_NONE;
 105              		.loc 1 417 20
 106 007a 7B68     		ldr	r3, [r7, #4]
 107 007c 0022     		movs	r2, #0
 108 007e 5A64     		str	r2, [r3, #68]
 418:Drivers/STM32F1xx_HAL_Driver/Src/stm32f1xx_hal_uart.c ****   huart->gState = HAL_UART_STATE_READY;
 109              		.loc 1 418 17
 110 0080 7B68     		ldr	r3, [r7, #4]
 111 0082 2022     		movs	r2, #32
 112 0084 83F84120 		strb	r2, [r3, #65]
 419:Drivers/STM32F1xx_HAL_Driver/Src/stm32f1xx_hal_uart.c ****   huart->RxState = HAL_UART_STATE_READY;
 113              		.loc 1 419 18
 114 0088 7B68     		ldr	r3, [r7, #4]
 115 008a 2022     		movs	r2, #32
 116 008c 83F84220 		strb	r2, [r3, #66]
 420:Drivers/STM32F1xx_HAL_Driver/Src/stm32f1xx_hal_uart.c ****   huart->RxEventType = HAL_UART_RXEVENT_TC;
 117              		.loc 1 420 22
 118 0090 7B68     		ldr	r3, [r7, #4]
 119 0092 0022     		movs	r2, #0
 120 0094 5A63     		str	r2, [r3, #52]
 421:Drivers/STM32F1xx_HAL_Driver/Src/stm32f1xx_hal_uart.c **** 
 422:Drivers/STM32F1xx_HAL_Driver/Src/stm32f1xx_hal_uart.c ****   return HAL_OK;
 121              		.loc 1 422 10
 122 0096 0023     		movs	r3, #0
 123              	.L3:
 423:Drivers/STM32F1xx_HAL_Driver/Src/stm32f1xx_hal_uart.c **** }
 124              		.loc 1 423 1
 125 0098 1846     		mov	r0, r3
 126 009a 0837     		adds	r7, r7, #8
 127              	.LCFI3:
 128              		.cfi_def_cfa_offset 8
 129 009c BD46     		mov	sp, r7
 130              	.LCFI4:
 131              		.cfi_def_cfa_register 13
 132              		@ sp needed
 133 009e 80BD     		pop	{r7, pc}
 134              		.cfi_endproc
 135              	.LFE65:
 137              		.section	.text.HAL_HalfDuplex_Init,"ax",%progbits
 138              		.align	1
 139              		.global	HAL_HalfDuplex_Init
 140              		.syntax unified
 141              		.thumb
 142              		.thumb_func
 144              	HAL_HalfDuplex_Init:
 145              	.LFB66:
 424:Drivers/STM32F1xx_HAL_Driver/Src/stm32f1xx_hal_uart.c **** 
 425:Drivers/STM32F1xx_HAL_Driver/Src/stm32f1xx_hal_uart.c **** /**
 426:Drivers/STM32F1xx_HAL_Driver/Src/stm32f1xx_hal_uart.c ****   * @brief  Initializes the half-duplex mode according to the specified
 427:Drivers/STM32F1xx_HAL_Driver/Src/stm32f1xx_hal_uart.c ****   *         parameters in the UART_InitTypeDef and create the associated handle.
 428:Drivers/STM32F1xx_HAL_Driver/Src/stm32f1xx_hal_uart.c ****   * @param  huart  Pointer to a UART_HandleTypeDef structure that contains
ARM GAS  /tmp/cc17XZfc.s 			page 11


 429:Drivers/STM32F1xx_HAL_Driver/Src/stm32f1xx_hal_uart.c ****   *                the configuration information for the specified UART module.
 430:Drivers/STM32F1xx_HAL_Driver/Src/stm32f1xx_hal_uart.c ****   * @retval HAL status
 431:Drivers/STM32F1xx_HAL_Driver/Src/stm32f1xx_hal_uart.c ****   */
 432:Drivers/STM32F1xx_HAL_Driver/Src/stm32f1xx_hal_uart.c **** HAL_StatusTypeDef HAL_HalfDuplex_Init(UART_HandleTypeDef *huart)
 433:Drivers/STM32F1xx_HAL_Driver/Src/stm32f1xx_hal_uart.c **** {
 146              		.loc 1 433 1
 147              		.cfi_startproc
 148              		@ args = 0, pretend = 0, frame = 8
 149              		@ frame_needed = 1, uses_anonymous_args = 0
 150 0000 80B5     		push	{r7, lr}
 151              	.LCFI5:
 152              		.cfi_def_cfa_offset 8
 153              		.cfi_offset 7, -8
 154              		.cfi_offset 14, -4
 155 0002 82B0     		sub	sp, sp, #8
 156              	.LCFI6:
 157              		.cfi_def_cfa_offset 16
 158 0004 00AF     		add	r7, sp, #0
 159              	.LCFI7:
 160              		.cfi_def_cfa_register 7
 161 0006 7860     		str	r0, [r7, #4]
 434:Drivers/STM32F1xx_HAL_Driver/Src/stm32f1xx_hal_uart.c ****   /* Check the UART handle allocation */
 435:Drivers/STM32F1xx_HAL_Driver/Src/stm32f1xx_hal_uart.c ****   if (huart == NULL)
 162              		.loc 1 435 6
 163 0008 7B68     		ldr	r3, [r7, #4]
 164 000a 002B     		cmp	r3, #0
 165 000c 01D1     		bne	.L6
 436:Drivers/STM32F1xx_HAL_Driver/Src/stm32f1xx_hal_uart.c ****   {
 437:Drivers/STM32F1xx_HAL_Driver/Src/stm32f1xx_hal_uart.c ****     return HAL_ERROR;
 166              		.loc 1 437 12
 167 000e 0123     		movs	r3, #1
 168 0010 4AE0     		b	.L7
 169              	.L6:
 438:Drivers/STM32F1xx_HAL_Driver/Src/stm32f1xx_hal_uart.c ****   }
 439:Drivers/STM32F1xx_HAL_Driver/Src/stm32f1xx_hal_uart.c **** 
 440:Drivers/STM32F1xx_HAL_Driver/Src/stm32f1xx_hal_uart.c ****   /* Check the parameters */
 441:Drivers/STM32F1xx_HAL_Driver/Src/stm32f1xx_hal_uart.c ****   assert_param(IS_UART_HALFDUPLEX_INSTANCE(huart->Instance));
 442:Drivers/STM32F1xx_HAL_Driver/Src/stm32f1xx_hal_uart.c ****   assert_param(IS_UART_WORD_LENGTH(huart->Init.WordLength));
 443:Drivers/STM32F1xx_HAL_Driver/Src/stm32f1xx_hal_uart.c **** #if defined(USART_CR1_OVER8)
 444:Drivers/STM32F1xx_HAL_Driver/Src/stm32f1xx_hal_uart.c ****   assert_param(IS_UART_OVERSAMPLING(huart->Init.OverSampling));
 445:Drivers/STM32F1xx_HAL_Driver/Src/stm32f1xx_hal_uart.c **** #endif /* USART_CR1_OVER8 */
 446:Drivers/STM32F1xx_HAL_Driver/Src/stm32f1xx_hal_uart.c **** 
 447:Drivers/STM32F1xx_HAL_Driver/Src/stm32f1xx_hal_uart.c ****   if (huart->gState == HAL_UART_STATE_RESET)
 170              		.loc 1 447 12
 171 0012 7B68     		ldr	r3, [r7, #4]
 172 0014 93F84130 		ldrb	r3, [r3, #65]
 173 0018 DBB2     		uxtb	r3, r3
 174              		.loc 1 447 6
 175 001a 002B     		cmp	r3, #0
 176 001c 06D1     		bne	.L8
 448:Drivers/STM32F1xx_HAL_Driver/Src/stm32f1xx_hal_uart.c ****   {
 449:Drivers/STM32F1xx_HAL_Driver/Src/stm32f1xx_hal_uart.c ****     /* Allocate lock resource and initialize it */
 450:Drivers/STM32F1xx_HAL_Driver/Src/stm32f1xx_hal_uart.c ****     huart->Lock = HAL_UNLOCKED;
 177              		.loc 1 450 17
 178 001e 7B68     		ldr	r3, [r7, #4]
 179 0020 0022     		movs	r2, #0
 180 0022 83F84020 		strb	r2, [r3, #64]
ARM GAS  /tmp/cc17XZfc.s 			page 12


 451:Drivers/STM32F1xx_HAL_Driver/Src/stm32f1xx_hal_uart.c **** 
 452:Drivers/STM32F1xx_HAL_Driver/Src/stm32f1xx_hal_uart.c **** #if (USE_HAL_UART_REGISTER_CALLBACKS == 1)
 453:Drivers/STM32F1xx_HAL_Driver/Src/stm32f1xx_hal_uart.c ****     UART_InitCallbacksToDefault(huart);
 454:Drivers/STM32F1xx_HAL_Driver/Src/stm32f1xx_hal_uart.c **** 
 455:Drivers/STM32F1xx_HAL_Driver/Src/stm32f1xx_hal_uart.c ****     if (huart->MspInitCallback == NULL)
 456:Drivers/STM32F1xx_HAL_Driver/Src/stm32f1xx_hal_uart.c ****     {
 457:Drivers/STM32F1xx_HAL_Driver/Src/stm32f1xx_hal_uart.c ****       huart->MspInitCallback = HAL_UART_MspInit;
 458:Drivers/STM32F1xx_HAL_Driver/Src/stm32f1xx_hal_uart.c ****     }
 459:Drivers/STM32F1xx_HAL_Driver/Src/stm32f1xx_hal_uart.c **** 
 460:Drivers/STM32F1xx_HAL_Driver/Src/stm32f1xx_hal_uart.c ****     /* Init the low level hardware */
 461:Drivers/STM32F1xx_HAL_Driver/Src/stm32f1xx_hal_uart.c ****     huart->MspInitCallback(huart);
 462:Drivers/STM32F1xx_HAL_Driver/Src/stm32f1xx_hal_uart.c **** #else
 463:Drivers/STM32F1xx_HAL_Driver/Src/stm32f1xx_hal_uart.c ****     /* Init the low level hardware : GPIO, CLOCK */
 464:Drivers/STM32F1xx_HAL_Driver/Src/stm32f1xx_hal_uart.c ****     HAL_UART_MspInit(huart);
 181              		.loc 1 464 5
 182 0026 7868     		ldr	r0, [r7, #4]
 183 0028 FFF7FEFF 		bl	HAL_UART_MspInit
 184              	.L8:
 465:Drivers/STM32F1xx_HAL_Driver/Src/stm32f1xx_hal_uart.c **** #endif /* (USE_HAL_UART_REGISTER_CALLBACKS) */
 466:Drivers/STM32F1xx_HAL_Driver/Src/stm32f1xx_hal_uart.c ****   }
 467:Drivers/STM32F1xx_HAL_Driver/Src/stm32f1xx_hal_uart.c **** 
 468:Drivers/STM32F1xx_HAL_Driver/Src/stm32f1xx_hal_uart.c ****   huart->gState = HAL_UART_STATE_BUSY;
 185              		.loc 1 468 17
 186 002c 7B68     		ldr	r3, [r7, #4]
 187 002e 2422     		movs	r2, #36
 188 0030 83F84120 		strb	r2, [r3, #65]
 469:Drivers/STM32F1xx_HAL_Driver/Src/stm32f1xx_hal_uart.c **** 
 470:Drivers/STM32F1xx_HAL_Driver/Src/stm32f1xx_hal_uart.c ****   /* Disable the peripheral */
 471:Drivers/STM32F1xx_HAL_Driver/Src/stm32f1xx_hal_uart.c ****   __HAL_UART_DISABLE(huart);
 189              		.loc 1 471 3
 190 0034 7B68     		ldr	r3, [r7, #4]
 191 0036 1B68     		ldr	r3, [r3]
 192 0038 DA68     		ldr	r2, [r3, #12]
 193 003a 7B68     		ldr	r3, [r7, #4]
 194 003c 1B68     		ldr	r3, [r3]
 195 003e 22F40052 		bic	r2, r2, #8192
 196 0042 DA60     		str	r2, [r3, #12]
 472:Drivers/STM32F1xx_HAL_Driver/Src/stm32f1xx_hal_uart.c **** 
 473:Drivers/STM32F1xx_HAL_Driver/Src/stm32f1xx_hal_uart.c ****   /* Set the UART Communication parameters */
 474:Drivers/STM32F1xx_HAL_Driver/Src/stm32f1xx_hal_uart.c ****   UART_SetConfig(huart);
 197              		.loc 1 474 3
 198 0044 7868     		ldr	r0, [r7, #4]
 199 0046 FFF7FEFF 		bl	UART_SetConfig
 475:Drivers/STM32F1xx_HAL_Driver/Src/stm32f1xx_hal_uart.c **** 
 476:Drivers/STM32F1xx_HAL_Driver/Src/stm32f1xx_hal_uart.c ****   /* In half-duplex mode, the following bits must be kept cleared:
 477:Drivers/STM32F1xx_HAL_Driver/Src/stm32f1xx_hal_uart.c ****      - LINEN and CLKEN bits in the USART_CR2 register,
 478:Drivers/STM32F1xx_HAL_Driver/Src/stm32f1xx_hal_uart.c ****      - SCEN and IREN bits in the USART_CR3 register.*/
 479:Drivers/STM32F1xx_HAL_Driver/Src/stm32f1xx_hal_uart.c ****   CLEAR_BIT(huart->Instance->CR2, (USART_CR2_LINEN | USART_CR2_CLKEN));
 200              		.loc 1 479 3
 201 004a 7B68     		ldr	r3, [r7, #4]
 202 004c 1B68     		ldr	r3, [r3]
 203 004e 1A69     		ldr	r2, [r3, #16]
 204 0050 7B68     		ldr	r3, [r7, #4]
 205 0052 1B68     		ldr	r3, [r3]
 206 0054 22F49042 		bic	r2, r2, #18432
 207 0058 1A61     		str	r2, [r3, #16]
 480:Drivers/STM32F1xx_HAL_Driver/Src/stm32f1xx_hal_uart.c ****   CLEAR_BIT(huart->Instance->CR3, (USART_CR3_IREN | USART_CR3_SCEN));
ARM GAS  /tmp/cc17XZfc.s 			page 13


 208              		.loc 1 480 3
 209 005a 7B68     		ldr	r3, [r7, #4]
 210 005c 1B68     		ldr	r3, [r3]
 211 005e 5A69     		ldr	r2, [r3, #20]
 212 0060 7B68     		ldr	r3, [r7, #4]
 213 0062 1B68     		ldr	r3, [r3]
 214 0064 22F02202 		bic	r2, r2, #34
 215 0068 5A61     		str	r2, [r3, #20]
 481:Drivers/STM32F1xx_HAL_Driver/Src/stm32f1xx_hal_uart.c **** 
 482:Drivers/STM32F1xx_HAL_Driver/Src/stm32f1xx_hal_uart.c ****   /* Enable the Half-Duplex mode by setting the HDSEL bit in the CR3 register */
 483:Drivers/STM32F1xx_HAL_Driver/Src/stm32f1xx_hal_uart.c ****   SET_BIT(huart->Instance->CR3, USART_CR3_HDSEL);
 216              		.loc 1 483 3
 217 006a 7B68     		ldr	r3, [r7, #4]
 218 006c 1B68     		ldr	r3, [r3]
 219 006e 5A69     		ldr	r2, [r3, #20]
 220 0070 7B68     		ldr	r3, [r7, #4]
 221 0072 1B68     		ldr	r3, [r3]
 222 0074 42F00802 		orr	r2, r2, #8
 223 0078 5A61     		str	r2, [r3, #20]
 484:Drivers/STM32F1xx_HAL_Driver/Src/stm32f1xx_hal_uart.c **** 
 485:Drivers/STM32F1xx_HAL_Driver/Src/stm32f1xx_hal_uart.c ****   /* Enable the peripheral */
 486:Drivers/STM32F1xx_HAL_Driver/Src/stm32f1xx_hal_uart.c ****   __HAL_UART_ENABLE(huart);
 224              		.loc 1 486 3
 225 007a 7B68     		ldr	r3, [r7, #4]
 226 007c 1B68     		ldr	r3, [r3]
 227 007e DA68     		ldr	r2, [r3, #12]
 228 0080 7B68     		ldr	r3, [r7, #4]
 229 0082 1B68     		ldr	r3, [r3]
 230 0084 42F40052 		orr	r2, r2, #8192
 231 0088 DA60     		str	r2, [r3, #12]
 487:Drivers/STM32F1xx_HAL_Driver/Src/stm32f1xx_hal_uart.c **** 
 488:Drivers/STM32F1xx_HAL_Driver/Src/stm32f1xx_hal_uart.c ****   /* Initialize the UART state*/
 489:Drivers/STM32F1xx_HAL_Driver/Src/stm32f1xx_hal_uart.c ****   huart->ErrorCode = HAL_UART_ERROR_NONE;
 232              		.loc 1 489 20
 233 008a 7B68     		ldr	r3, [r7, #4]
 234 008c 0022     		movs	r2, #0
 235 008e 5A64     		str	r2, [r3, #68]
 490:Drivers/STM32F1xx_HAL_Driver/Src/stm32f1xx_hal_uart.c ****   huart->gState = HAL_UART_STATE_READY;
 236              		.loc 1 490 17
 237 0090 7B68     		ldr	r3, [r7, #4]
 238 0092 2022     		movs	r2, #32
 239 0094 83F84120 		strb	r2, [r3, #65]
 491:Drivers/STM32F1xx_HAL_Driver/Src/stm32f1xx_hal_uart.c ****   huart->RxState = HAL_UART_STATE_READY;
 240              		.loc 1 491 18
 241 0098 7B68     		ldr	r3, [r7, #4]
 242 009a 2022     		movs	r2, #32
 243 009c 83F84220 		strb	r2, [r3, #66]
 492:Drivers/STM32F1xx_HAL_Driver/Src/stm32f1xx_hal_uart.c ****   huart->RxEventType = HAL_UART_RXEVENT_TC;
 244              		.loc 1 492 22
 245 00a0 7B68     		ldr	r3, [r7, #4]
 246 00a2 0022     		movs	r2, #0
 247 00a4 5A63     		str	r2, [r3, #52]
 493:Drivers/STM32F1xx_HAL_Driver/Src/stm32f1xx_hal_uart.c **** 
 494:Drivers/STM32F1xx_HAL_Driver/Src/stm32f1xx_hal_uart.c ****   return HAL_OK;
 248              		.loc 1 494 10
 249 00a6 0023     		movs	r3, #0
 250              	.L7:
ARM GAS  /tmp/cc17XZfc.s 			page 14


 495:Drivers/STM32F1xx_HAL_Driver/Src/stm32f1xx_hal_uart.c **** }
 251              		.loc 1 495 1
 252 00a8 1846     		mov	r0, r3
 253 00aa 0837     		adds	r7, r7, #8
 254              	.LCFI8:
 255              		.cfi_def_cfa_offset 8
 256 00ac BD46     		mov	sp, r7
 257              	.LCFI9:
 258              		.cfi_def_cfa_register 13
 259              		@ sp needed
 260 00ae 80BD     		pop	{r7, pc}
 261              		.cfi_endproc
 262              	.LFE66:
 264              		.section	.text.HAL_LIN_Init,"ax",%progbits
 265              		.align	1
 266              		.global	HAL_LIN_Init
 267              		.syntax unified
 268              		.thumb
 269              		.thumb_func
 271              	HAL_LIN_Init:
 272              	.LFB67:
 496:Drivers/STM32F1xx_HAL_Driver/Src/stm32f1xx_hal_uart.c **** 
 497:Drivers/STM32F1xx_HAL_Driver/Src/stm32f1xx_hal_uart.c **** /**
 498:Drivers/STM32F1xx_HAL_Driver/Src/stm32f1xx_hal_uart.c ****   * @brief  Initializes the LIN mode according to the specified
 499:Drivers/STM32F1xx_HAL_Driver/Src/stm32f1xx_hal_uart.c ****   *         parameters in the UART_InitTypeDef and create the associated handle.
 500:Drivers/STM32F1xx_HAL_Driver/Src/stm32f1xx_hal_uart.c ****   * @param  huart  Pointer to a UART_HandleTypeDef structure that contains
 501:Drivers/STM32F1xx_HAL_Driver/Src/stm32f1xx_hal_uart.c ****   *                the configuration information for the specified UART module.
 502:Drivers/STM32F1xx_HAL_Driver/Src/stm32f1xx_hal_uart.c ****   * @param  BreakDetectLength Specifies the LIN break detection length.
 503:Drivers/STM32F1xx_HAL_Driver/Src/stm32f1xx_hal_uart.c ****   *         This parameter can be one of the following values:
 504:Drivers/STM32F1xx_HAL_Driver/Src/stm32f1xx_hal_uart.c ****   *            @arg UART_LINBREAKDETECTLENGTH_10B: 10-bit break detection
 505:Drivers/STM32F1xx_HAL_Driver/Src/stm32f1xx_hal_uart.c ****   *            @arg UART_LINBREAKDETECTLENGTH_11B: 11-bit break detection
 506:Drivers/STM32F1xx_HAL_Driver/Src/stm32f1xx_hal_uart.c ****   * @retval HAL status
 507:Drivers/STM32F1xx_HAL_Driver/Src/stm32f1xx_hal_uart.c ****   */
 508:Drivers/STM32F1xx_HAL_Driver/Src/stm32f1xx_hal_uart.c **** HAL_StatusTypeDef HAL_LIN_Init(UART_HandleTypeDef *huart, uint32_t BreakDetectLength)
 509:Drivers/STM32F1xx_HAL_Driver/Src/stm32f1xx_hal_uart.c **** {
 273              		.loc 1 509 1
 274              		.cfi_startproc
 275              		@ args = 0, pretend = 0, frame = 8
 276              		@ frame_needed = 1, uses_anonymous_args = 0
 277 0000 80B5     		push	{r7, lr}
 278              	.LCFI10:
 279              		.cfi_def_cfa_offset 8
 280              		.cfi_offset 7, -8
 281              		.cfi_offset 14, -4
 282 0002 82B0     		sub	sp, sp, #8
 283              	.LCFI11:
 284              		.cfi_def_cfa_offset 16
 285 0004 00AF     		add	r7, sp, #0
 286              	.LCFI12:
 287              		.cfi_def_cfa_register 7
 288 0006 7860     		str	r0, [r7, #4]
 289 0008 3960     		str	r1, [r7]
 510:Drivers/STM32F1xx_HAL_Driver/Src/stm32f1xx_hal_uart.c ****   /* Check the UART handle allocation */
 511:Drivers/STM32F1xx_HAL_Driver/Src/stm32f1xx_hal_uart.c ****   if (huart == NULL)
 290              		.loc 1 511 6
 291 000a 7B68     		ldr	r3, [r7, #4]
 292 000c 002B     		cmp	r3, #0
ARM GAS  /tmp/cc17XZfc.s 			page 15


 293 000e 01D1     		bne	.L10
 512:Drivers/STM32F1xx_HAL_Driver/Src/stm32f1xx_hal_uart.c ****   {
 513:Drivers/STM32F1xx_HAL_Driver/Src/stm32f1xx_hal_uart.c ****     return HAL_ERROR;
 294              		.loc 1 513 12
 295 0010 0123     		movs	r3, #1
 296 0012 5AE0     		b	.L11
 297              	.L10:
 514:Drivers/STM32F1xx_HAL_Driver/Src/stm32f1xx_hal_uart.c ****   }
 515:Drivers/STM32F1xx_HAL_Driver/Src/stm32f1xx_hal_uart.c **** 
 516:Drivers/STM32F1xx_HAL_Driver/Src/stm32f1xx_hal_uart.c ****   /* Check the LIN UART instance */
 517:Drivers/STM32F1xx_HAL_Driver/Src/stm32f1xx_hal_uart.c ****   assert_param(IS_UART_LIN_INSTANCE(huart->Instance));
 518:Drivers/STM32F1xx_HAL_Driver/Src/stm32f1xx_hal_uart.c **** 
 519:Drivers/STM32F1xx_HAL_Driver/Src/stm32f1xx_hal_uart.c ****   /* Check the Break detection length parameter */
 520:Drivers/STM32F1xx_HAL_Driver/Src/stm32f1xx_hal_uart.c ****   assert_param(IS_UART_LIN_BREAK_DETECT_LENGTH(BreakDetectLength));
 521:Drivers/STM32F1xx_HAL_Driver/Src/stm32f1xx_hal_uart.c ****   assert_param(IS_UART_LIN_WORD_LENGTH(huart->Init.WordLength));
 522:Drivers/STM32F1xx_HAL_Driver/Src/stm32f1xx_hal_uart.c **** #if defined(USART_CR1_OVER8)
 523:Drivers/STM32F1xx_HAL_Driver/Src/stm32f1xx_hal_uart.c ****   assert_param(IS_UART_LIN_OVERSAMPLING(huart->Init.OverSampling));
 524:Drivers/STM32F1xx_HAL_Driver/Src/stm32f1xx_hal_uart.c **** #endif /* USART_CR1_OVER8 */
 525:Drivers/STM32F1xx_HAL_Driver/Src/stm32f1xx_hal_uart.c **** 
 526:Drivers/STM32F1xx_HAL_Driver/Src/stm32f1xx_hal_uart.c ****   if (huart->gState == HAL_UART_STATE_RESET)
 298              		.loc 1 526 12
 299 0014 7B68     		ldr	r3, [r7, #4]
 300 0016 93F84130 		ldrb	r3, [r3, #65]
 301 001a DBB2     		uxtb	r3, r3
 302              		.loc 1 526 6
 303 001c 002B     		cmp	r3, #0
 304 001e 06D1     		bne	.L12
 527:Drivers/STM32F1xx_HAL_Driver/Src/stm32f1xx_hal_uart.c ****   {
 528:Drivers/STM32F1xx_HAL_Driver/Src/stm32f1xx_hal_uart.c ****     /* Allocate lock resource and initialize it */
 529:Drivers/STM32F1xx_HAL_Driver/Src/stm32f1xx_hal_uart.c ****     huart->Lock = HAL_UNLOCKED;
 305              		.loc 1 529 17
 306 0020 7B68     		ldr	r3, [r7, #4]
 307 0022 0022     		movs	r2, #0
 308 0024 83F84020 		strb	r2, [r3, #64]
 530:Drivers/STM32F1xx_HAL_Driver/Src/stm32f1xx_hal_uart.c **** 
 531:Drivers/STM32F1xx_HAL_Driver/Src/stm32f1xx_hal_uart.c **** #if (USE_HAL_UART_REGISTER_CALLBACKS == 1)
 532:Drivers/STM32F1xx_HAL_Driver/Src/stm32f1xx_hal_uart.c ****     UART_InitCallbacksToDefault(huart);
 533:Drivers/STM32F1xx_HAL_Driver/Src/stm32f1xx_hal_uart.c **** 
 534:Drivers/STM32F1xx_HAL_Driver/Src/stm32f1xx_hal_uart.c ****     if (huart->MspInitCallback == NULL)
 535:Drivers/STM32F1xx_HAL_Driver/Src/stm32f1xx_hal_uart.c ****     {
 536:Drivers/STM32F1xx_HAL_Driver/Src/stm32f1xx_hal_uart.c ****       huart->MspInitCallback = HAL_UART_MspInit;
 537:Drivers/STM32F1xx_HAL_Driver/Src/stm32f1xx_hal_uart.c ****     }
 538:Drivers/STM32F1xx_HAL_Driver/Src/stm32f1xx_hal_uart.c **** 
 539:Drivers/STM32F1xx_HAL_Driver/Src/stm32f1xx_hal_uart.c ****     /* Init the low level hardware */
 540:Drivers/STM32F1xx_HAL_Driver/Src/stm32f1xx_hal_uart.c ****     huart->MspInitCallback(huart);
 541:Drivers/STM32F1xx_HAL_Driver/Src/stm32f1xx_hal_uart.c **** #else
 542:Drivers/STM32F1xx_HAL_Driver/Src/stm32f1xx_hal_uart.c ****     /* Init the low level hardware : GPIO, CLOCK */
 543:Drivers/STM32F1xx_HAL_Driver/Src/stm32f1xx_hal_uart.c ****     HAL_UART_MspInit(huart);
 309              		.loc 1 543 5
 310 0028 7868     		ldr	r0, [r7, #4]
 311 002a FFF7FEFF 		bl	HAL_UART_MspInit
 312              	.L12:
 544:Drivers/STM32F1xx_HAL_Driver/Src/stm32f1xx_hal_uart.c **** #endif /* (USE_HAL_UART_REGISTER_CALLBACKS) */
 545:Drivers/STM32F1xx_HAL_Driver/Src/stm32f1xx_hal_uart.c ****   }
 546:Drivers/STM32F1xx_HAL_Driver/Src/stm32f1xx_hal_uart.c **** 
 547:Drivers/STM32F1xx_HAL_Driver/Src/stm32f1xx_hal_uart.c ****   huart->gState = HAL_UART_STATE_BUSY;
 313              		.loc 1 547 17
ARM GAS  /tmp/cc17XZfc.s 			page 16


 314 002e 7B68     		ldr	r3, [r7, #4]
 315 0030 2422     		movs	r2, #36
 316 0032 83F84120 		strb	r2, [r3, #65]
 548:Drivers/STM32F1xx_HAL_Driver/Src/stm32f1xx_hal_uart.c **** 
 549:Drivers/STM32F1xx_HAL_Driver/Src/stm32f1xx_hal_uart.c ****   /* Disable the peripheral */
 550:Drivers/STM32F1xx_HAL_Driver/Src/stm32f1xx_hal_uart.c ****   __HAL_UART_DISABLE(huart);
 317              		.loc 1 550 3
 318 0036 7B68     		ldr	r3, [r7, #4]
 319 0038 1B68     		ldr	r3, [r3]
 320 003a DA68     		ldr	r2, [r3, #12]
 321 003c 7B68     		ldr	r3, [r7, #4]
 322 003e 1B68     		ldr	r3, [r3]
 323 0040 22F40052 		bic	r2, r2, #8192
 324 0044 DA60     		str	r2, [r3, #12]
 551:Drivers/STM32F1xx_HAL_Driver/Src/stm32f1xx_hal_uart.c **** 
 552:Drivers/STM32F1xx_HAL_Driver/Src/stm32f1xx_hal_uart.c ****   /* Set the UART Communication parameters */
 553:Drivers/STM32F1xx_HAL_Driver/Src/stm32f1xx_hal_uart.c ****   UART_SetConfig(huart);
 325              		.loc 1 553 3
 326 0046 7868     		ldr	r0, [r7, #4]
 327 0048 FFF7FEFF 		bl	UART_SetConfig
 554:Drivers/STM32F1xx_HAL_Driver/Src/stm32f1xx_hal_uart.c **** 
 555:Drivers/STM32F1xx_HAL_Driver/Src/stm32f1xx_hal_uart.c ****   /* In LIN mode, the following bits must be kept cleared:
 556:Drivers/STM32F1xx_HAL_Driver/Src/stm32f1xx_hal_uart.c ****      - CLKEN bits in the USART_CR2 register,
 557:Drivers/STM32F1xx_HAL_Driver/Src/stm32f1xx_hal_uart.c ****      - SCEN, HDSEL and IREN bits in the USART_CR3 register.*/
 558:Drivers/STM32F1xx_HAL_Driver/Src/stm32f1xx_hal_uart.c ****   CLEAR_BIT(huart->Instance->CR2, (USART_CR2_CLKEN));
 328              		.loc 1 558 3
 329 004c 7B68     		ldr	r3, [r7, #4]
 330 004e 1B68     		ldr	r3, [r3]
 331 0050 1A69     		ldr	r2, [r3, #16]
 332 0052 7B68     		ldr	r3, [r7, #4]
 333 0054 1B68     		ldr	r3, [r3]
 334 0056 22F40062 		bic	r2, r2, #2048
 335 005a 1A61     		str	r2, [r3, #16]
 559:Drivers/STM32F1xx_HAL_Driver/Src/stm32f1xx_hal_uart.c ****   CLEAR_BIT(huart->Instance->CR3, (USART_CR3_HDSEL | USART_CR3_IREN | USART_CR3_SCEN));
 336              		.loc 1 559 3
 337 005c 7B68     		ldr	r3, [r7, #4]
 338 005e 1B68     		ldr	r3, [r3]
 339 0060 5A69     		ldr	r2, [r3, #20]
 340 0062 7B68     		ldr	r3, [r7, #4]
 341 0064 1B68     		ldr	r3, [r3]
 342 0066 22F02A02 		bic	r2, r2, #42
 343 006a 5A61     		str	r2, [r3, #20]
 560:Drivers/STM32F1xx_HAL_Driver/Src/stm32f1xx_hal_uart.c **** 
 561:Drivers/STM32F1xx_HAL_Driver/Src/stm32f1xx_hal_uart.c ****   /* Enable the LIN mode by setting the LINEN bit in the CR2 register */
 562:Drivers/STM32F1xx_HAL_Driver/Src/stm32f1xx_hal_uart.c ****   SET_BIT(huart->Instance->CR2, USART_CR2_LINEN);
 344              		.loc 1 562 3
 345 006c 7B68     		ldr	r3, [r7, #4]
 346 006e 1B68     		ldr	r3, [r3]
 347 0070 1A69     		ldr	r2, [r3, #16]
 348 0072 7B68     		ldr	r3, [r7, #4]
 349 0074 1B68     		ldr	r3, [r3]
 350 0076 42F48042 		orr	r2, r2, #16384
 351 007a 1A61     		str	r2, [r3, #16]
 563:Drivers/STM32F1xx_HAL_Driver/Src/stm32f1xx_hal_uart.c **** 
 564:Drivers/STM32F1xx_HAL_Driver/Src/stm32f1xx_hal_uart.c ****   /* Set the USART LIN Break detection length. */
 565:Drivers/STM32F1xx_HAL_Driver/Src/stm32f1xx_hal_uart.c ****   CLEAR_BIT(huart->Instance->CR2, USART_CR2_LBDL);
 352              		.loc 1 565 3
ARM GAS  /tmp/cc17XZfc.s 			page 17


 353 007c 7B68     		ldr	r3, [r7, #4]
 354 007e 1B68     		ldr	r3, [r3]
 355 0080 1A69     		ldr	r2, [r3, #16]
 356 0082 7B68     		ldr	r3, [r7, #4]
 357 0084 1B68     		ldr	r3, [r3]
 358 0086 22F02002 		bic	r2, r2, #32
 359 008a 1A61     		str	r2, [r3, #16]
 566:Drivers/STM32F1xx_HAL_Driver/Src/stm32f1xx_hal_uart.c ****   SET_BIT(huart->Instance->CR2, BreakDetectLength);
 360              		.loc 1 566 3
 361 008c 7B68     		ldr	r3, [r7, #4]
 362 008e 1B68     		ldr	r3, [r3]
 363 0090 1969     		ldr	r1, [r3, #16]
 364 0092 7B68     		ldr	r3, [r7, #4]
 365 0094 1B68     		ldr	r3, [r3]
 366 0096 3A68     		ldr	r2, [r7]
 367 0098 0A43     		orrs	r2, r2, r1
 368 009a 1A61     		str	r2, [r3, #16]
 567:Drivers/STM32F1xx_HAL_Driver/Src/stm32f1xx_hal_uart.c **** 
 568:Drivers/STM32F1xx_HAL_Driver/Src/stm32f1xx_hal_uart.c ****   /* Enable the peripheral */
 569:Drivers/STM32F1xx_HAL_Driver/Src/stm32f1xx_hal_uart.c ****   __HAL_UART_ENABLE(huart);
 369              		.loc 1 569 3
 370 009c 7B68     		ldr	r3, [r7, #4]
 371 009e 1B68     		ldr	r3, [r3]
 372 00a0 DA68     		ldr	r2, [r3, #12]
 373 00a2 7B68     		ldr	r3, [r7, #4]
 374 00a4 1B68     		ldr	r3, [r3]
 375 00a6 42F40052 		orr	r2, r2, #8192
 376 00aa DA60     		str	r2, [r3, #12]
 570:Drivers/STM32F1xx_HAL_Driver/Src/stm32f1xx_hal_uart.c **** 
 571:Drivers/STM32F1xx_HAL_Driver/Src/stm32f1xx_hal_uart.c ****   /* Initialize the UART state*/
 572:Drivers/STM32F1xx_HAL_Driver/Src/stm32f1xx_hal_uart.c ****   huart->ErrorCode = HAL_UART_ERROR_NONE;
 377              		.loc 1 572 20
 378 00ac 7B68     		ldr	r3, [r7, #4]
 379 00ae 0022     		movs	r2, #0
 380 00b0 5A64     		str	r2, [r3, #68]
 573:Drivers/STM32F1xx_HAL_Driver/Src/stm32f1xx_hal_uart.c ****   huart->gState = HAL_UART_STATE_READY;
 381              		.loc 1 573 17
 382 00b2 7B68     		ldr	r3, [r7, #4]
 383 00b4 2022     		movs	r2, #32
 384 00b6 83F84120 		strb	r2, [r3, #65]
 574:Drivers/STM32F1xx_HAL_Driver/Src/stm32f1xx_hal_uart.c ****   huart->RxState = HAL_UART_STATE_READY;
 385              		.loc 1 574 18
 386 00ba 7B68     		ldr	r3, [r7, #4]
 387 00bc 2022     		movs	r2, #32
 388 00be 83F84220 		strb	r2, [r3, #66]
 575:Drivers/STM32F1xx_HAL_Driver/Src/stm32f1xx_hal_uart.c ****   huart->RxEventType = HAL_UART_RXEVENT_TC;
 389              		.loc 1 575 22
 390 00c2 7B68     		ldr	r3, [r7, #4]
 391 00c4 0022     		movs	r2, #0
 392 00c6 5A63     		str	r2, [r3, #52]
 576:Drivers/STM32F1xx_HAL_Driver/Src/stm32f1xx_hal_uart.c **** 
 577:Drivers/STM32F1xx_HAL_Driver/Src/stm32f1xx_hal_uart.c ****   return HAL_OK;
 393              		.loc 1 577 10
 394 00c8 0023     		movs	r3, #0
 395              	.L11:
 578:Drivers/STM32F1xx_HAL_Driver/Src/stm32f1xx_hal_uart.c **** }
 396              		.loc 1 578 1
ARM GAS  /tmp/cc17XZfc.s 			page 18


 397 00ca 1846     		mov	r0, r3
 398 00cc 0837     		adds	r7, r7, #8
 399              	.LCFI13:
 400              		.cfi_def_cfa_offset 8
 401 00ce BD46     		mov	sp, r7
 402              	.LCFI14:
 403              		.cfi_def_cfa_register 13
 404              		@ sp needed
 405 00d0 80BD     		pop	{r7, pc}
 406              		.cfi_endproc
 407              	.LFE67:
 409              		.section	.text.HAL_MultiProcessor_Init,"ax",%progbits
 410              		.align	1
 411              		.global	HAL_MultiProcessor_Init
 412              		.syntax unified
 413              		.thumb
 414              		.thumb_func
 416              	HAL_MultiProcessor_Init:
 417              	.LFB68:
 579:Drivers/STM32F1xx_HAL_Driver/Src/stm32f1xx_hal_uart.c **** 
 580:Drivers/STM32F1xx_HAL_Driver/Src/stm32f1xx_hal_uart.c **** /**
 581:Drivers/STM32F1xx_HAL_Driver/Src/stm32f1xx_hal_uart.c ****   * @brief  Initializes the Multi-Processor mode according to the specified
 582:Drivers/STM32F1xx_HAL_Driver/Src/stm32f1xx_hal_uart.c ****   *         parameters in the UART_InitTypeDef and create the associated handle.
 583:Drivers/STM32F1xx_HAL_Driver/Src/stm32f1xx_hal_uart.c ****   * @param  huart  Pointer to a UART_HandleTypeDef structure that contains
 584:Drivers/STM32F1xx_HAL_Driver/Src/stm32f1xx_hal_uart.c ****   *                the configuration information for the specified UART module.
 585:Drivers/STM32F1xx_HAL_Driver/Src/stm32f1xx_hal_uart.c ****   * @param  Address USART address
 586:Drivers/STM32F1xx_HAL_Driver/Src/stm32f1xx_hal_uart.c ****   * @param  WakeUpMethod specifies the USART wake-up method.
 587:Drivers/STM32F1xx_HAL_Driver/Src/stm32f1xx_hal_uart.c ****   *         This parameter can be one of the following values:
 588:Drivers/STM32F1xx_HAL_Driver/Src/stm32f1xx_hal_uart.c ****   *            @arg UART_WAKEUPMETHOD_IDLELINE: Wake-up by an idle line detection
 589:Drivers/STM32F1xx_HAL_Driver/Src/stm32f1xx_hal_uart.c ****   *            @arg UART_WAKEUPMETHOD_ADDRESSMARK: Wake-up by an address mark
 590:Drivers/STM32F1xx_HAL_Driver/Src/stm32f1xx_hal_uart.c ****   * @retval HAL status
 591:Drivers/STM32F1xx_HAL_Driver/Src/stm32f1xx_hal_uart.c ****   */
 592:Drivers/STM32F1xx_HAL_Driver/Src/stm32f1xx_hal_uart.c **** HAL_StatusTypeDef HAL_MultiProcessor_Init(UART_HandleTypeDef *huart, uint8_t Address, uint32_t Wake
 593:Drivers/STM32F1xx_HAL_Driver/Src/stm32f1xx_hal_uart.c **** {
 418              		.loc 1 593 1
 419              		.cfi_startproc
 420              		@ args = 0, pretend = 0, frame = 16
 421              		@ frame_needed = 1, uses_anonymous_args = 0
 422 0000 80B5     		push	{r7, lr}
 423              	.LCFI15:
 424              		.cfi_def_cfa_offset 8
 425              		.cfi_offset 7, -8
 426              		.cfi_offset 14, -4
 427 0002 84B0     		sub	sp, sp, #16
 428              	.LCFI16:
 429              		.cfi_def_cfa_offset 24
 430 0004 00AF     		add	r7, sp, #0
 431              	.LCFI17:
 432              		.cfi_def_cfa_register 7
 433 0006 F860     		str	r0, [r7, #12]
 434 0008 0B46     		mov	r3, r1
 435 000a 7A60     		str	r2, [r7, #4]
 436 000c FB72     		strb	r3, [r7, #11]
 594:Drivers/STM32F1xx_HAL_Driver/Src/stm32f1xx_hal_uart.c ****   /* Check the UART handle allocation */
 595:Drivers/STM32F1xx_HAL_Driver/Src/stm32f1xx_hal_uart.c ****   if (huart == NULL)
 437              		.loc 1 595 6
 438 000e FB68     		ldr	r3, [r7, #12]
ARM GAS  /tmp/cc17XZfc.s 			page 19


 439 0010 002B     		cmp	r3, #0
 440 0012 01D1     		bne	.L14
 596:Drivers/STM32F1xx_HAL_Driver/Src/stm32f1xx_hal_uart.c ****   {
 597:Drivers/STM32F1xx_HAL_Driver/Src/stm32f1xx_hal_uart.c ****     return HAL_ERROR;
 441              		.loc 1 597 12
 442 0014 0123     		movs	r3, #1
 443 0016 62E0     		b	.L15
 444              	.L14:
 598:Drivers/STM32F1xx_HAL_Driver/Src/stm32f1xx_hal_uart.c ****   }
 599:Drivers/STM32F1xx_HAL_Driver/Src/stm32f1xx_hal_uart.c **** 
 600:Drivers/STM32F1xx_HAL_Driver/Src/stm32f1xx_hal_uart.c ****   /* Check the parameters */
 601:Drivers/STM32F1xx_HAL_Driver/Src/stm32f1xx_hal_uart.c ****   assert_param(IS_UART_INSTANCE(huart->Instance));
 602:Drivers/STM32F1xx_HAL_Driver/Src/stm32f1xx_hal_uart.c **** 
 603:Drivers/STM32F1xx_HAL_Driver/Src/stm32f1xx_hal_uart.c ****   /* Check the Address & wake up method parameters */
 604:Drivers/STM32F1xx_HAL_Driver/Src/stm32f1xx_hal_uart.c ****   assert_param(IS_UART_WAKEUPMETHOD(WakeUpMethod));
 605:Drivers/STM32F1xx_HAL_Driver/Src/stm32f1xx_hal_uart.c ****   assert_param(IS_UART_ADDRESS(Address));
 606:Drivers/STM32F1xx_HAL_Driver/Src/stm32f1xx_hal_uart.c ****   assert_param(IS_UART_WORD_LENGTH(huart->Init.WordLength));
 607:Drivers/STM32F1xx_HAL_Driver/Src/stm32f1xx_hal_uart.c **** #if defined(USART_CR1_OVER8)
 608:Drivers/STM32F1xx_HAL_Driver/Src/stm32f1xx_hal_uart.c ****   assert_param(IS_UART_OVERSAMPLING(huart->Init.OverSampling));
 609:Drivers/STM32F1xx_HAL_Driver/Src/stm32f1xx_hal_uart.c **** #endif /* USART_CR1_OVER8 */
 610:Drivers/STM32F1xx_HAL_Driver/Src/stm32f1xx_hal_uart.c **** 
 611:Drivers/STM32F1xx_HAL_Driver/Src/stm32f1xx_hal_uart.c ****   if (huart->gState == HAL_UART_STATE_RESET)
 445              		.loc 1 611 12
 446 0018 FB68     		ldr	r3, [r7, #12]
 447 001a 93F84130 		ldrb	r3, [r3, #65]
 448 001e DBB2     		uxtb	r3, r3
 449              		.loc 1 611 6
 450 0020 002B     		cmp	r3, #0
 451 0022 06D1     		bne	.L16
 612:Drivers/STM32F1xx_HAL_Driver/Src/stm32f1xx_hal_uart.c ****   {
 613:Drivers/STM32F1xx_HAL_Driver/Src/stm32f1xx_hal_uart.c ****     /* Allocate lock resource and initialize it */
 614:Drivers/STM32F1xx_HAL_Driver/Src/stm32f1xx_hal_uart.c ****     huart->Lock = HAL_UNLOCKED;
 452              		.loc 1 614 17
 453 0024 FB68     		ldr	r3, [r7, #12]
 454 0026 0022     		movs	r2, #0
 455 0028 83F84020 		strb	r2, [r3, #64]
 615:Drivers/STM32F1xx_HAL_Driver/Src/stm32f1xx_hal_uart.c **** 
 616:Drivers/STM32F1xx_HAL_Driver/Src/stm32f1xx_hal_uart.c **** #if (USE_HAL_UART_REGISTER_CALLBACKS == 1)
 617:Drivers/STM32F1xx_HAL_Driver/Src/stm32f1xx_hal_uart.c ****     UART_InitCallbacksToDefault(huart);
 618:Drivers/STM32F1xx_HAL_Driver/Src/stm32f1xx_hal_uart.c **** 
 619:Drivers/STM32F1xx_HAL_Driver/Src/stm32f1xx_hal_uart.c ****     if (huart->MspInitCallback == NULL)
 620:Drivers/STM32F1xx_HAL_Driver/Src/stm32f1xx_hal_uart.c ****     {
 621:Drivers/STM32F1xx_HAL_Driver/Src/stm32f1xx_hal_uart.c ****       huart->MspInitCallback = HAL_UART_MspInit;
 622:Drivers/STM32F1xx_HAL_Driver/Src/stm32f1xx_hal_uart.c ****     }
 623:Drivers/STM32F1xx_HAL_Driver/Src/stm32f1xx_hal_uart.c **** 
 624:Drivers/STM32F1xx_HAL_Driver/Src/stm32f1xx_hal_uart.c ****     /* Init the low level hardware */
 625:Drivers/STM32F1xx_HAL_Driver/Src/stm32f1xx_hal_uart.c ****     huart->MspInitCallback(huart);
 626:Drivers/STM32F1xx_HAL_Driver/Src/stm32f1xx_hal_uart.c **** #else
 627:Drivers/STM32F1xx_HAL_Driver/Src/stm32f1xx_hal_uart.c ****     /* Init the low level hardware : GPIO, CLOCK */
 628:Drivers/STM32F1xx_HAL_Driver/Src/stm32f1xx_hal_uart.c ****     HAL_UART_MspInit(huart);
 456              		.loc 1 628 5
 457 002c F868     		ldr	r0, [r7, #12]
 458 002e FFF7FEFF 		bl	HAL_UART_MspInit
 459              	.L16:
 629:Drivers/STM32F1xx_HAL_Driver/Src/stm32f1xx_hal_uart.c **** #endif /* (USE_HAL_UART_REGISTER_CALLBACKS) */
 630:Drivers/STM32F1xx_HAL_Driver/Src/stm32f1xx_hal_uart.c ****   }
 631:Drivers/STM32F1xx_HAL_Driver/Src/stm32f1xx_hal_uart.c **** 
ARM GAS  /tmp/cc17XZfc.s 			page 20


 632:Drivers/STM32F1xx_HAL_Driver/Src/stm32f1xx_hal_uart.c ****   huart->gState = HAL_UART_STATE_BUSY;
 460              		.loc 1 632 17
 461 0032 FB68     		ldr	r3, [r7, #12]
 462 0034 2422     		movs	r2, #36
 463 0036 83F84120 		strb	r2, [r3, #65]
 633:Drivers/STM32F1xx_HAL_Driver/Src/stm32f1xx_hal_uart.c **** 
 634:Drivers/STM32F1xx_HAL_Driver/Src/stm32f1xx_hal_uart.c ****   /* Disable the peripheral */
 635:Drivers/STM32F1xx_HAL_Driver/Src/stm32f1xx_hal_uart.c ****   __HAL_UART_DISABLE(huart);
 464              		.loc 1 635 3
 465 003a FB68     		ldr	r3, [r7, #12]
 466 003c 1B68     		ldr	r3, [r3]
 467 003e DA68     		ldr	r2, [r3, #12]
 468 0040 FB68     		ldr	r3, [r7, #12]
 469 0042 1B68     		ldr	r3, [r3]
 470 0044 22F40052 		bic	r2, r2, #8192
 471 0048 DA60     		str	r2, [r3, #12]
 636:Drivers/STM32F1xx_HAL_Driver/Src/stm32f1xx_hal_uart.c **** 
 637:Drivers/STM32F1xx_HAL_Driver/Src/stm32f1xx_hal_uart.c ****   /* Set the UART Communication parameters */
 638:Drivers/STM32F1xx_HAL_Driver/Src/stm32f1xx_hal_uart.c ****   UART_SetConfig(huart);
 472              		.loc 1 638 3
 473 004a F868     		ldr	r0, [r7, #12]
 474 004c FFF7FEFF 		bl	UART_SetConfig
 639:Drivers/STM32F1xx_HAL_Driver/Src/stm32f1xx_hal_uart.c **** 
 640:Drivers/STM32F1xx_HAL_Driver/Src/stm32f1xx_hal_uart.c ****   /* In Multi-Processor mode, the following bits must be kept cleared:
 641:Drivers/STM32F1xx_HAL_Driver/Src/stm32f1xx_hal_uart.c ****      - LINEN and CLKEN bits in the USART_CR2 register,
 642:Drivers/STM32F1xx_HAL_Driver/Src/stm32f1xx_hal_uart.c ****      - SCEN, HDSEL and IREN  bits in the USART_CR3 register */
 643:Drivers/STM32F1xx_HAL_Driver/Src/stm32f1xx_hal_uart.c ****   CLEAR_BIT(huart->Instance->CR2, (USART_CR2_LINEN | USART_CR2_CLKEN));
 475              		.loc 1 643 3
 476 0050 FB68     		ldr	r3, [r7, #12]
 477 0052 1B68     		ldr	r3, [r3]
 478 0054 1A69     		ldr	r2, [r3, #16]
 479 0056 FB68     		ldr	r3, [r7, #12]
 480 0058 1B68     		ldr	r3, [r3]
 481 005a 22F49042 		bic	r2, r2, #18432
 482 005e 1A61     		str	r2, [r3, #16]
 644:Drivers/STM32F1xx_HAL_Driver/Src/stm32f1xx_hal_uart.c ****   CLEAR_BIT(huart->Instance->CR3, (USART_CR3_SCEN | USART_CR3_HDSEL | USART_CR3_IREN));
 483              		.loc 1 644 3
 484 0060 FB68     		ldr	r3, [r7, #12]
 485 0062 1B68     		ldr	r3, [r3]
 486 0064 5A69     		ldr	r2, [r3, #20]
 487 0066 FB68     		ldr	r3, [r7, #12]
 488 0068 1B68     		ldr	r3, [r3]
 489 006a 22F02A02 		bic	r2, r2, #42
 490 006e 5A61     		str	r2, [r3, #20]
 645:Drivers/STM32F1xx_HAL_Driver/Src/stm32f1xx_hal_uart.c **** 
 646:Drivers/STM32F1xx_HAL_Driver/Src/stm32f1xx_hal_uart.c ****   /* Set the USART address node */
 647:Drivers/STM32F1xx_HAL_Driver/Src/stm32f1xx_hal_uart.c ****   CLEAR_BIT(huart->Instance->CR2, USART_CR2_ADD);
 491              		.loc 1 647 3
 492 0070 FB68     		ldr	r3, [r7, #12]
 493 0072 1B68     		ldr	r3, [r3]
 494 0074 1A69     		ldr	r2, [r3, #16]
 495 0076 FB68     		ldr	r3, [r7, #12]
 496 0078 1B68     		ldr	r3, [r3]
 497 007a 22F00F02 		bic	r2, r2, #15
 498 007e 1A61     		str	r2, [r3, #16]
 648:Drivers/STM32F1xx_HAL_Driver/Src/stm32f1xx_hal_uart.c ****   SET_BIT(huart->Instance->CR2, Address);
 499              		.loc 1 648 3
ARM GAS  /tmp/cc17XZfc.s 			page 21


 500 0080 FB68     		ldr	r3, [r7, #12]
 501 0082 1B68     		ldr	r3, [r3]
 502 0084 1969     		ldr	r1, [r3, #16]
 503 0086 FA7A     		ldrb	r2, [r7, #11]	@ zero_extendqisi2
 504 0088 FB68     		ldr	r3, [r7, #12]
 505 008a 1B68     		ldr	r3, [r3]
 506 008c 0A43     		orrs	r2, r2, r1
 507 008e 1A61     		str	r2, [r3, #16]
 649:Drivers/STM32F1xx_HAL_Driver/Src/stm32f1xx_hal_uart.c **** 
 650:Drivers/STM32F1xx_HAL_Driver/Src/stm32f1xx_hal_uart.c ****   /* Set the wake up method by setting the WAKE bit in the CR1 register */
 651:Drivers/STM32F1xx_HAL_Driver/Src/stm32f1xx_hal_uart.c ****   CLEAR_BIT(huart->Instance->CR1, USART_CR1_WAKE);
 508              		.loc 1 651 3
 509 0090 FB68     		ldr	r3, [r7, #12]
 510 0092 1B68     		ldr	r3, [r3]
 511 0094 DA68     		ldr	r2, [r3, #12]
 512 0096 FB68     		ldr	r3, [r7, #12]
 513 0098 1B68     		ldr	r3, [r3]
 514 009a 22F40062 		bic	r2, r2, #2048
 515 009e DA60     		str	r2, [r3, #12]
 652:Drivers/STM32F1xx_HAL_Driver/Src/stm32f1xx_hal_uart.c ****   SET_BIT(huart->Instance->CR1, WakeUpMethod);
 516              		.loc 1 652 3
 517 00a0 FB68     		ldr	r3, [r7, #12]
 518 00a2 1B68     		ldr	r3, [r3]
 519 00a4 D968     		ldr	r1, [r3, #12]
 520 00a6 FB68     		ldr	r3, [r7, #12]
 521 00a8 1B68     		ldr	r3, [r3]
 522 00aa 7A68     		ldr	r2, [r7, #4]
 523 00ac 0A43     		orrs	r2, r2, r1
 524 00ae DA60     		str	r2, [r3, #12]
 653:Drivers/STM32F1xx_HAL_Driver/Src/stm32f1xx_hal_uart.c **** 
 654:Drivers/STM32F1xx_HAL_Driver/Src/stm32f1xx_hal_uart.c ****   /* Enable the peripheral */
 655:Drivers/STM32F1xx_HAL_Driver/Src/stm32f1xx_hal_uart.c ****   __HAL_UART_ENABLE(huart);
 525              		.loc 1 655 3
 526 00b0 FB68     		ldr	r3, [r7, #12]
 527 00b2 1B68     		ldr	r3, [r3]
 528 00b4 DA68     		ldr	r2, [r3, #12]
 529 00b6 FB68     		ldr	r3, [r7, #12]
 530 00b8 1B68     		ldr	r3, [r3]
 531 00ba 42F40052 		orr	r2, r2, #8192
 532 00be DA60     		str	r2, [r3, #12]
 656:Drivers/STM32F1xx_HAL_Driver/Src/stm32f1xx_hal_uart.c **** 
 657:Drivers/STM32F1xx_HAL_Driver/Src/stm32f1xx_hal_uart.c ****   /* Initialize the UART state */
 658:Drivers/STM32F1xx_HAL_Driver/Src/stm32f1xx_hal_uart.c ****   huart->ErrorCode = HAL_UART_ERROR_NONE;
 533              		.loc 1 658 20
 534 00c0 FB68     		ldr	r3, [r7, #12]
 535 00c2 0022     		movs	r2, #0
 536 00c4 5A64     		str	r2, [r3, #68]
 659:Drivers/STM32F1xx_HAL_Driver/Src/stm32f1xx_hal_uart.c ****   huart->gState = HAL_UART_STATE_READY;
 537              		.loc 1 659 17
 538 00c6 FB68     		ldr	r3, [r7, #12]
 539 00c8 2022     		movs	r2, #32
 540 00ca 83F84120 		strb	r2, [r3, #65]
 660:Drivers/STM32F1xx_HAL_Driver/Src/stm32f1xx_hal_uart.c ****   huart->RxState = HAL_UART_STATE_READY;
 541              		.loc 1 660 18
 542 00ce FB68     		ldr	r3, [r7, #12]
 543 00d0 2022     		movs	r2, #32
 544 00d2 83F84220 		strb	r2, [r3, #66]
ARM GAS  /tmp/cc17XZfc.s 			page 22


 661:Drivers/STM32F1xx_HAL_Driver/Src/stm32f1xx_hal_uart.c ****   huart->RxEventType = HAL_UART_RXEVENT_TC;
 545              		.loc 1 661 22
 546 00d6 FB68     		ldr	r3, [r7, #12]
 547 00d8 0022     		movs	r2, #0
 548 00da 5A63     		str	r2, [r3, #52]
 662:Drivers/STM32F1xx_HAL_Driver/Src/stm32f1xx_hal_uart.c **** 
 663:Drivers/STM32F1xx_HAL_Driver/Src/stm32f1xx_hal_uart.c ****   return HAL_OK;
 549              		.loc 1 663 10
 550 00dc 0023     		movs	r3, #0
 551              	.L15:
 664:Drivers/STM32F1xx_HAL_Driver/Src/stm32f1xx_hal_uart.c **** }
 552              		.loc 1 664 1
 553 00de 1846     		mov	r0, r3
 554 00e0 1037     		adds	r7, r7, #16
 555              	.LCFI18:
 556              		.cfi_def_cfa_offset 8
 557 00e2 BD46     		mov	sp, r7
 558              	.LCFI19:
 559              		.cfi_def_cfa_register 13
 560              		@ sp needed
 561 00e4 80BD     		pop	{r7, pc}
 562              		.cfi_endproc
 563              	.LFE68:
 565              		.section	.text.HAL_UART_DeInit,"ax",%progbits
 566              		.align	1
 567              		.global	HAL_UART_DeInit
 568              		.syntax unified
 569              		.thumb
 570              		.thumb_func
 572              	HAL_UART_DeInit:
 573              	.LFB69:
 665:Drivers/STM32F1xx_HAL_Driver/Src/stm32f1xx_hal_uart.c **** 
 666:Drivers/STM32F1xx_HAL_Driver/Src/stm32f1xx_hal_uart.c **** /**
 667:Drivers/STM32F1xx_HAL_Driver/Src/stm32f1xx_hal_uart.c ****   * @brief  DeInitializes the UART peripheral.
 668:Drivers/STM32F1xx_HAL_Driver/Src/stm32f1xx_hal_uart.c ****   * @param  huart  Pointer to a UART_HandleTypeDef structure that contains
 669:Drivers/STM32F1xx_HAL_Driver/Src/stm32f1xx_hal_uart.c ****   *                the configuration information for the specified UART module.
 670:Drivers/STM32F1xx_HAL_Driver/Src/stm32f1xx_hal_uart.c ****   * @retval HAL status
 671:Drivers/STM32F1xx_HAL_Driver/Src/stm32f1xx_hal_uart.c ****   */
 672:Drivers/STM32F1xx_HAL_Driver/Src/stm32f1xx_hal_uart.c **** HAL_StatusTypeDef HAL_UART_DeInit(UART_HandleTypeDef *huart)
 673:Drivers/STM32F1xx_HAL_Driver/Src/stm32f1xx_hal_uart.c **** {
 574              		.loc 1 673 1
 575              		.cfi_startproc
 576              		@ args = 0, pretend = 0, frame = 8
 577              		@ frame_needed = 1, uses_anonymous_args = 0
 578 0000 80B5     		push	{r7, lr}
 579              	.LCFI20:
 580              		.cfi_def_cfa_offset 8
 581              		.cfi_offset 7, -8
 582              		.cfi_offset 14, -4
 583 0002 82B0     		sub	sp, sp, #8
 584              	.LCFI21:
 585              		.cfi_def_cfa_offset 16
 586 0004 00AF     		add	r7, sp, #0
 587              	.LCFI22:
 588              		.cfi_def_cfa_register 7
 589 0006 7860     		str	r0, [r7, #4]
 674:Drivers/STM32F1xx_HAL_Driver/Src/stm32f1xx_hal_uart.c ****   /* Check the UART handle allocation */
ARM GAS  /tmp/cc17XZfc.s 			page 23


 675:Drivers/STM32F1xx_HAL_Driver/Src/stm32f1xx_hal_uart.c ****   if (huart == NULL)
 590              		.loc 1 675 6
 591 0008 7B68     		ldr	r3, [r7, #4]
 592 000a 002B     		cmp	r3, #0
 593 000c 01D1     		bne	.L18
 676:Drivers/STM32F1xx_HAL_Driver/Src/stm32f1xx_hal_uart.c ****   {
 677:Drivers/STM32F1xx_HAL_Driver/Src/stm32f1xx_hal_uart.c ****     return HAL_ERROR;
 594              		.loc 1 677 12
 595 000e 0123     		movs	r3, #1
 596 0010 24E0     		b	.L19
 597              	.L18:
 678:Drivers/STM32F1xx_HAL_Driver/Src/stm32f1xx_hal_uart.c ****   }
 679:Drivers/STM32F1xx_HAL_Driver/Src/stm32f1xx_hal_uart.c **** 
 680:Drivers/STM32F1xx_HAL_Driver/Src/stm32f1xx_hal_uart.c ****   /* Check the parameters */
 681:Drivers/STM32F1xx_HAL_Driver/Src/stm32f1xx_hal_uart.c ****   assert_param(IS_UART_INSTANCE(huart->Instance));
 682:Drivers/STM32F1xx_HAL_Driver/Src/stm32f1xx_hal_uart.c **** 
 683:Drivers/STM32F1xx_HAL_Driver/Src/stm32f1xx_hal_uart.c ****   huart->gState = HAL_UART_STATE_BUSY;
 598              		.loc 1 683 17
 599 0012 7B68     		ldr	r3, [r7, #4]
 600 0014 2422     		movs	r2, #36
 601 0016 83F84120 		strb	r2, [r3, #65]
 684:Drivers/STM32F1xx_HAL_Driver/Src/stm32f1xx_hal_uart.c **** 
 685:Drivers/STM32F1xx_HAL_Driver/Src/stm32f1xx_hal_uart.c ****   /* Disable the Peripheral */
 686:Drivers/STM32F1xx_HAL_Driver/Src/stm32f1xx_hal_uart.c ****   __HAL_UART_DISABLE(huart);
 602              		.loc 1 686 3
 603 001a 7B68     		ldr	r3, [r7, #4]
 604 001c 1B68     		ldr	r3, [r3]
 605 001e DA68     		ldr	r2, [r3, #12]
 606 0020 7B68     		ldr	r3, [r7, #4]
 607 0022 1B68     		ldr	r3, [r3]
 608 0024 22F40052 		bic	r2, r2, #8192
 609 0028 DA60     		str	r2, [r3, #12]
 687:Drivers/STM32F1xx_HAL_Driver/Src/stm32f1xx_hal_uart.c **** 
 688:Drivers/STM32F1xx_HAL_Driver/Src/stm32f1xx_hal_uart.c **** #if (USE_HAL_UART_REGISTER_CALLBACKS == 1)
 689:Drivers/STM32F1xx_HAL_Driver/Src/stm32f1xx_hal_uart.c ****   if (huart->MspDeInitCallback == NULL)
 690:Drivers/STM32F1xx_HAL_Driver/Src/stm32f1xx_hal_uart.c ****   {
 691:Drivers/STM32F1xx_HAL_Driver/Src/stm32f1xx_hal_uart.c ****     huart->MspDeInitCallback = HAL_UART_MspDeInit;
 692:Drivers/STM32F1xx_HAL_Driver/Src/stm32f1xx_hal_uart.c ****   }
 693:Drivers/STM32F1xx_HAL_Driver/Src/stm32f1xx_hal_uart.c ****   /* DeInit the low level hardware */
 694:Drivers/STM32F1xx_HAL_Driver/Src/stm32f1xx_hal_uart.c ****   huart->MspDeInitCallback(huart);
 695:Drivers/STM32F1xx_HAL_Driver/Src/stm32f1xx_hal_uart.c **** #else
 696:Drivers/STM32F1xx_HAL_Driver/Src/stm32f1xx_hal_uart.c ****   /* DeInit the low level hardware */
 697:Drivers/STM32F1xx_HAL_Driver/Src/stm32f1xx_hal_uart.c ****   HAL_UART_MspDeInit(huart);
 610              		.loc 1 697 3
 611 002a 7868     		ldr	r0, [r7, #4]
 612 002c FFF7FEFF 		bl	HAL_UART_MspDeInit
 698:Drivers/STM32F1xx_HAL_Driver/Src/stm32f1xx_hal_uart.c **** #endif /* (USE_HAL_UART_REGISTER_CALLBACKS) */
 699:Drivers/STM32F1xx_HAL_Driver/Src/stm32f1xx_hal_uart.c **** 
 700:Drivers/STM32F1xx_HAL_Driver/Src/stm32f1xx_hal_uart.c ****   huart->ErrorCode = HAL_UART_ERROR_NONE;
 613              		.loc 1 700 20
 614 0030 7B68     		ldr	r3, [r7, #4]
 615 0032 0022     		movs	r2, #0
 616 0034 5A64     		str	r2, [r3, #68]
 701:Drivers/STM32F1xx_HAL_Driver/Src/stm32f1xx_hal_uart.c ****   huart->gState = HAL_UART_STATE_RESET;
 617              		.loc 1 701 17
 618 0036 7B68     		ldr	r3, [r7, #4]
 619 0038 0022     		movs	r2, #0
ARM GAS  /tmp/cc17XZfc.s 			page 24


 620 003a 83F84120 		strb	r2, [r3, #65]
 702:Drivers/STM32F1xx_HAL_Driver/Src/stm32f1xx_hal_uart.c ****   huart->RxState = HAL_UART_STATE_RESET;
 621              		.loc 1 702 18
 622 003e 7B68     		ldr	r3, [r7, #4]
 623 0040 0022     		movs	r2, #0
 624 0042 83F84220 		strb	r2, [r3, #66]
 703:Drivers/STM32F1xx_HAL_Driver/Src/stm32f1xx_hal_uart.c ****   huart->ReceptionType = HAL_UART_RECEPTION_STANDARD;
 625              		.loc 1 703 24
 626 0046 7B68     		ldr	r3, [r7, #4]
 627 0048 0022     		movs	r2, #0
 628 004a 1A63     		str	r2, [r3, #48]
 704:Drivers/STM32F1xx_HAL_Driver/Src/stm32f1xx_hal_uart.c ****   huart->RxEventType = HAL_UART_RXEVENT_TC;
 629              		.loc 1 704 22
 630 004c 7B68     		ldr	r3, [r7, #4]
 631 004e 0022     		movs	r2, #0
 632 0050 5A63     		str	r2, [r3, #52]
 705:Drivers/STM32F1xx_HAL_Driver/Src/stm32f1xx_hal_uart.c **** 
 706:Drivers/STM32F1xx_HAL_Driver/Src/stm32f1xx_hal_uart.c ****   /* Process Unlock */
 707:Drivers/STM32F1xx_HAL_Driver/Src/stm32f1xx_hal_uart.c ****   __HAL_UNLOCK(huart);
 633              		.loc 1 707 3
 634 0052 7B68     		ldr	r3, [r7, #4]
 635 0054 0022     		movs	r2, #0
 636 0056 83F84020 		strb	r2, [r3, #64]
 708:Drivers/STM32F1xx_HAL_Driver/Src/stm32f1xx_hal_uart.c **** 
 709:Drivers/STM32F1xx_HAL_Driver/Src/stm32f1xx_hal_uart.c ****   return HAL_OK;
 637              		.loc 1 709 10
 638 005a 0023     		movs	r3, #0
 639              	.L19:
 710:Drivers/STM32F1xx_HAL_Driver/Src/stm32f1xx_hal_uart.c **** }
 640              		.loc 1 710 1
 641 005c 1846     		mov	r0, r3
 642 005e 0837     		adds	r7, r7, #8
 643              	.LCFI23:
 644              		.cfi_def_cfa_offset 8
 645 0060 BD46     		mov	sp, r7
 646              	.LCFI24:
 647              		.cfi_def_cfa_register 13
 648              		@ sp needed
 649 0062 80BD     		pop	{r7, pc}
 650              		.cfi_endproc
 651              	.LFE69:
 653              		.section	.text.HAL_UART_MspInit,"ax",%progbits
 654              		.align	1
 655              		.weak	HAL_UART_MspInit
 656              		.syntax unified
 657              		.thumb
 658              		.thumb_func
 660              	HAL_UART_MspInit:
 661              	.LFB70:
 711:Drivers/STM32F1xx_HAL_Driver/Src/stm32f1xx_hal_uart.c **** 
 712:Drivers/STM32F1xx_HAL_Driver/Src/stm32f1xx_hal_uart.c **** /**
 713:Drivers/STM32F1xx_HAL_Driver/Src/stm32f1xx_hal_uart.c ****   * @brief  UART MSP Init.
 714:Drivers/STM32F1xx_HAL_Driver/Src/stm32f1xx_hal_uart.c ****   * @param  huart  Pointer to a UART_HandleTypeDef structure that contains
 715:Drivers/STM32F1xx_HAL_Driver/Src/stm32f1xx_hal_uart.c ****   *                the configuration information for the specified UART module.
 716:Drivers/STM32F1xx_HAL_Driver/Src/stm32f1xx_hal_uart.c ****   * @retval None
 717:Drivers/STM32F1xx_HAL_Driver/Src/stm32f1xx_hal_uart.c ****   */
 718:Drivers/STM32F1xx_HAL_Driver/Src/stm32f1xx_hal_uart.c **** __weak void HAL_UART_MspInit(UART_HandleTypeDef *huart)
ARM GAS  /tmp/cc17XZfc.s 			page 25


 719:Drivers/STM32F1xx_HAL_Driver/Src/stm32f1xx_hal_uart.c **** {
 662              		.loc 1 719 1
 663              		.cfi_startproc
 664              		@ args = 0, pretend = 0, frame = 8
 665              		@ frame_needed = 1, uses_anonymous_args = 0
 666              		@ link register save eliminated.
 667 0000 80B4     		push	{r7}
 668              	.LCFI25:
 669              		.cfi_def_cfa_offset 4
 670              		.cfi_offset 7, -4
 671 0002 83B0     		sub	sp, sp, #12
 672              	.LCFI26:
 673              		.cfi_def_cfa_offset 16
 674 0004 00AF     		add	r7, sp, #0
 675              	.LCFI27:
 676              		.cfi_def_cfa_register 7
 677 0006 7860     		str	r0, [r7, #4]
 720:Drivers/STM32F1xx_HAL_Driver/Src/stm32f1xx_hal_uart.c ****   /* Prevent unused argument(s) compilation warning */
 721:Drivers/STM32F1xx_HAL_Driver/Src/stm32f1xx_hal_uart.c ****   UNUSED(huart);
 722:Drivers/STM32F1xx_HAL_Driver/Src/stm32f1xx_hal_uart.c ****   /* NOTE: This function should not be modified, when the callback is needed,
 723:Drivers/STM32F1xx_HAL_Driver/Src/stm32f1xx_hal_uart.c ****            the HAL_UART_MspInit could be implemented in the user file
 724:Drivers/STM32F1xx_HAL_Driver/Src/stm32f1xx_hal_uart.c ****    */
 725:Drivers/STM32F1xx_HAL_Driver/Src/stm32f1xx_hal_uart.c **** }
 678              		.loc 1 725 1
 679 0008 00BF     		nop
 680 000a 0C37     		adds	r7, r7, #12
 681              	.LCFI28:
 682              		.cfi_def_cfa_offset 4
 683 000c BD46     		mov	sp, r7
 684              	.LCFI29:
 685              		.cfi_def_cfa_register 13
 686              		@ sp needed
 687 000e 80BC     		pop	{r7}
 688              	.LCFI30:
 689              		.cfi_restore 7
 690              		.cfi_def_cfa_offset 0
 691 0010 7047     		bx	lr
 692              		.cfi_endproc
 693              	.LFE70:
 695              		.section	.text.HAL_UART_MspDeInit,"ax",%progbits
 696              		.align	1
 697              		.weak	HAL_UART_MspDeInit
 698              		.syntax unified
 699              		.thumb
 700              		.thumb_func
 702              	HAL_UART_MspDeInit:
 703              	.LFB71:
 726:Drivers/STM32F1xx_HAL_Driver/Src/stm32f1xx_hal_uart.c **** 
 727:Drivers/STM32F1xx_HAL_Driver/Src/stm32f1xx_hal_uart.c **** /**
 728:Drivers/STM32F1xx_HAL_Driver/Src/stm32f1xx_hal_uart.c ****   * @brief  UART MSP DeInit.
 729:Drivers/STM32F1xx_HAL_Driver/Src/stm32f1xx_hal_uart.c ****   * @param  huart  Pointer to a UART_HandleTypeDef structure that contains
 730:Drivers/STM32F1xx_HAL_Driver/Src/stm32f1xx_hal_uart.c ****   *                the configuration information for the specified UART module.
 731:Drivers/STM32F1xx_HAL_Driver/Src/stm32f1xx_hal_uart.c ****   * @retval None
 732:Drivers/STM32F1xx_HAL_Driver/Src/stm32f1xx_hal_uart.c ****   */
 733:Drivers/STM32F1xx_HAL_Driver/Src/stm32f1xx_hal_uart.c **** __weak void HAL_UART_MspDeInit(UART_HandleTypeDef *huart)
 734:Drivers/STM32F1xx_HAL_Driver/Src/stm32f1xx_hal_uart.c **** {
 704              		.loc 1 734 1
ARM GAS  /tmp/cc17XZfc.s 			page 26


 705              		.cfi_startproc
 706              		@ args = 0, pretend = 0, frame = 8
 707              		@ frame_needed = 1, uses_anonymous_args = 0
 708              		@ link register save eliminated.
 709 0000 80B4     		push	{r7}
 710              	.LCFI31:
 711              		.cfi_def_cfa_offset 4
 712              		.cfi_offset 7, -4
 713 0002 83B0     		sub	sp, sp, #12
 714              	.LCFI32:
 715              		.cfi_def_cfa_offset 16
 716 0004 00AF     		add	r7, sp, #0
 717              	.LCFI33:
 718              		.cfi_def_cfa_register 7
 719 0006 7860     		str	r0, [r7, #4]
 735:Drivers/STM32F1xx_HAL_Driver/Src/stm32f1xx_hal_uart.c ****   /* Prevent unused argument(s) compilation warning */
 736:Drivers/STM32F1xx_HAL_Driver/Src/stm32f1xx_hal_uart.c ****   UNUSED(huart);
 737:Drivers/STM32F1xx_HAL_Driver/Src/stm32f1xx_hal_uart.c ****   /* NOTE: This function should not be modified, when the callback is needed,
 738:Drivers/STM32F1xx_HAL_Driver/Src/stm32f1xx_hal_uart.c ****            the HAL_UART_MspDeInit could be implemented in the user file
 739:Drivers/STM32F1xx_HAL_Driver/Src/stm32f1xx_hal_uart.c ****    */
 740:Drivers/STM32F1xx_HAL_Driver/Src/stm32f1xx_hal_uart.c **** }
 720              		.loc 1 740 1
 721 0008 00BF     		nop
 722 000a 0C37     		adds	r7, r7, #12
 723              	.LCFI34:
 724              		.cfi_def_cfa_offset 4
 725 000c BD46     		mov	sp, r7
 726              	.LCFI35:
 727              		.cfi_def_cfa_register 13
 728              		@ sp needed
 729 000e 80BC     		pop	{r7}
 730              	.LCFI36:
 731              		.cfi_restore 7
 732              		.cfi_def_cfa_offset 0
 733 0010 7047     		bx	lr
 734              		.cfi_endproc
 735              	.LFE71:
 737              		.section	.text.HAL_UART_Transmit,"ax",%progbits
 738              		.align	1
 739              		.global	HAL_UART_Transmit
 740              		.syntax unified
 741              		.thumb
 742              		.thumb_func
 744              	HAL_UART_Transmit:
 745              	.LFB72:
 741:Drivers/STM32F1xx_HAL_Driver/Src/stm32f1xx_hal_uart.c **** 
 742:Drivers/STM32F1xx_HAL_Driver/Src/stm32f1xx_hal_uart.c **** #if (USE_HAL_UART_REGISTER_CALLBACKS == 1)
 743:Drivers/STM32F1xx_HAL_Driver/Src/stm32f1xx_hal_uart.c **** /**
 744:Drivers/STM32F1xx_HAL_Driver/Src/stm32f1xx_hal_uart.c ****   * @brief  Register a User UART Callback
 745:Drivers/STM32F1xx_HAL_Driver/Src/stm32f1xx_hal_uart.c ****   *         To be used instead of the weak predefined callback
 746:Drivers/STM32F1xx_HAL_Driver/Src/stm32f1xx_hal_uart.c ****   * @note   The HAL_UART_RegisterCallback() may be called before HAL_UART_Init(), HAL_HalfDuplex_In
 747:Drivers/STM32F1xx_HAL_Driver/Src/stm32f1xx_hal_uart.c ****   *         HAL_MultiProcessor_Init() to register callbacks for HAL_UART_MSPINIT_CB_ID and HAL_UART
 748:Drivers/STM32F1xx_HAL_Driver/Src/stm32f1xx_hal_uart.c ****   * @param  huart uart handle
 749:Drivers/STM32F1xx_HAL_Driver/Src/stm32f1xx_hal_uart.c ****   * @param  CallbackID ID of the callback to be registered
 750:Drivers/STM32F1xx_HAL_Driver/Src/stm32f1xx_hal_uart.c ****   *         This parameter can be one of the following values:
 751:Drivers/STM32F1xx_HAL_Driver/Src/stm32f1xx_hal_uart.c ****   *           @arg @ref HAL_UART_TX_HALFCOMPLETE_CB_ID Tx Half Complete Callback ID
 752:Drivers/STM32F1xx_HAL_Driver/Src/stm32f1xx_hal_uart.c ****   *           @arg @ref HAL_UART_TX_COMPLETE_CB_ID Tx Complete Callback ID
ARM GAS  /tmp/cc17XZfc.s 			page 27


 753:Drivers/STM32F1xx_HAL_Driver/Src/stm32f1xx_hal_uart.c ****   *           @arg @ref HAL_UART_RX_HALFCOMPLETE_CB_ID Rx Half Complete Callback ID
 754:Drivers/STM32F1xx_HAL_Driver/Src/stm32f1xx_hal_uart.c ****   *           @arg @ref HAL_UART_RX_COMPLETE_CB_ID Rx Complete Callback ID
 755:Drivers/STM32F1xx_HAL_Driver/Src/stm32f1xx_hal_uart.c ****   *           @arg @ref HAL_UART_ERROR_CB_ID Error Callback ID
 756:Drivers/STM32F1xx_HAL_Driver/Src/stm32f1xx_hal_uart.c ****   *           @arg @ref HAL_UART_ABORT_COMPLETE_CB_ID Abort Complete Callback ID
 757:Drivers/STM32F1xx_HAL_Driver/Src/stm32f1xx_hal_uart.c ****   *           @arg @ref HAL_UART_ABORT_TRANSMIT_COMPLETE_CB_ID Abort Transmit Complete Callback ID
 758:Drivers/STM32F1xx_HAL_Driver/Src/stm32f1xx_hal_uart.c ****   *           @arg @ref HAL_UART_ABORT_RECEIVE_COMPLETE_CB_ID Abort Receive Complete Callback ID
 759:Drivers/STM32F1xx_HAL_Driver/Src/stm32f1xx_hal_uart.c ****   *           @arg @ref HAL_UART_MSPINIT_CB_ID MspInit Callback ID
 760:Drivers/STM32F1xx_HAL_Driver/Src/stm32f1xx_hal_uart.c ****   *           @arg @ref HAL_UART_MSPDEINIT_CB_ID MspDeInit Callback ID
 761:Drivers/STM32F1xx_HAL_Driver/Src/stm32f1xx_hal_uart.c ****   * @param  pCallback pointer to the Callback function
 762:Drivers/STM32F1xx_HAL_Driver/Src/stm32f1xx_hal_uart.c ****   * @retval HAL status
 763:Drivers/STM32F1xx_HAL_Driver/Src/stm32f1xx_hal_uart.c ****   */
 764:Drivers/STM32F1xx_HAL_Driver/Src/stm32f1xx_hal_uart.c **** HAL_StatusTypeDef HAL_UART_RegisterCallback(UART_HandleTypeDef *huart, HAL_UART_CallbackIDTypeDef C
 765:Drivers/STM32F1xx_HAL_Driver/Src/stm32f1xx_hal_uart.c ****                                             pUART_CallbackTypeDef pCallback)
 766:Drivers/STM32F1xx_HAL_Driver/Src/stm32f1xx_hal_uart.c **** {
 767:Drivers/STM32F1xx_HAL_Driver/Src/stm32f1xx_hal_uart.c ****   HAL_StatusTypeDef status = HAL_OK;
 768:Drivers/STM32F1xx_HAL_Driver/Src/stm32f1xx_hal_uart.c **** 
 769:Drivers/STM32F1xx_HAL_Driver/Src/stm32f1xx_hal_uart.c ****   if (pCallback == NULL)
 770:Drivers/STM32F1xx_HAL_Driver/Src/stm32f1xx_hal_uart.c ****   {
 771:Drivers/STM32F1xx_HAL_Driver/Src/stm32f1xx_hal_uart.c ****     /* Update the error code */
 772:Drivers/STM32F1xx_HAL_Driver/Src/stm32f1xx_hal_uart.c ****     huart->ErrorCode |= HAL_UART_ERROR_INVALID_CALLBACK;
 773:Drivers/STM32F1xx_HAL_Driver/Src/stm32f1xx_hal_uart.c **** 
 774:Drivers/STM32F1xx_HAL_Driver/Src/stm32f1xx_hal_uart.c ****     return HAL_ERROR;
 775:Drivers/STM32F1xx_HAL_Driver/Src/stm32f1xx_hal_uart.c ****   }
 776:Drivers/STM32F1xx_HAL_Driver/Src/stm32f1xx_hal_uart.c **** 
 777:Drivers/STM32F1xx_HAL_Driver/Src/stm32f1xx_hal_uart.c ****   if (huart->gState == HAL_UART_STATE_READY)
 778:Drivers/STM32F1xx_HAL_Driver/Src/stm32f1xx_hal_uart.c ****   {
 779:Drivers/STM32F1xx_HAL_Driver/Src/stm32f1xx_hal_uart.c ****     switch (CallbackID)
 780:Drivers/STM32F1xx_HAL_Driver/Src/stm32f1xx_hal_uart.c ****     {
 781:Drivers/STM32F1xx_HAL_Driver/Src/stm32f1xx_hal_uart.c ****       case HAL_UART_TX_HALFCOMPLETE_CB_ID :
 782:Drivers/STM32F1xx_HAL_Driver/Src/stm32f1xx_hal_uart.c ****         huart->TxHalfCpltCallback = pCallback;
 783:Drivers/STM32F1xx_HAL_Driver/Src/stm32f1xx_hal_uart.c ****         break;
 784:Drivers/STM32F1xx_HAL_Driver/Src/stm32f1xx_hal_uart.c **** 
 785:Drivers/STM32F1xx_HAL_Driver/Src/stm32f1xx_hal_uart.c ****       case HAL_UART_TX_COMPLETE_CB_ID :
 786:Drivers/STM32F1xx_HAL_Driver/Src/stm32f1xx_hal_uart.c ****         huart->TxCpltCallback = pCallback;
 787:Drivers/STM32F1xx_HAL_Driver/Src/stm32f1xx_hal_uart.c ****         break;
 788:Drivers/STM32F1xx_HAL_Driver/Src/stm32f1xx_hal_uart.c **** 
 789:Drivers/STM32F1xx_HAL_Driver/Src/stm32f1xx_hal_uart.c ****       case HAL_UART_RX_HALFCOMPLETE_CB_ID :
 790:Drivers/STM32F1xx_HAL_Driver/Src/stm32f1xx_hal_uart.c ****         huart->RxHalfCpltCallback = pCallback;
 791:Drivers/STM32F1xx_HAL_Driver/Src/stm32f1xx_hal_uart.c ****         break;
 792:Drivers/STM32F1xx_HAL_Driver/Src/stm32f1xx_hal_uart.c **** 
 793:Drivers/STM32F1xx_HAL_Driver/Src/stm32f1xx_hal_uart.c ****       case HAL_UART_RX_COMPLETE_CB_ID :
 794:Drivers/STM32F1xx_HAL_Driver/Src/stm32f1xx_hal_uart.c ****         huart->RxCpltCallback = pCallback;
 795:Drivers/STM32F1xx_HAL_Driver/Src/stm32f1xx_hal_uart.c ****         break;
 796:Drivers/STM32F1xx_HAL_Driver/Src/stm32f1xx_hal_uart.c **** 
 797:Drivers/STM32F1xx_HAL_Driver/Src/stm32f1xx_hal_uart.c ****       case HAL_UART_ERROR_CB_ID :
 798:Drivers/STM32F1xx_HAL_Driver/Src/stm32f1xx_hal_uart.c ****         huart->ErrorCallback = pCallback;
 799:Drivers/STM32F1xx_HAL_Driver/Src/stm32f1xx_hal_uart.c ****         break;
 800:Drivers/STM32F1xx_HAL_Driver/Src/stm32f1xx_hal_uart.c **** 
 801:Drivers/STM32F1xx_HAL_Driver/Src/stm32f1xx_hal_uart.c ****       case HAL_UART_ABORT_COMPLETE_CB_ID :
 802:Drivers/STM32F1xx_HAL_Driver/Src/stm32f1xx_hal_uart.c ****         huart->AbortCpltCallback = pCallback;
 803:Drivers/STM32F1xx_HAL_Driver/Src/stm32f1xx_hal_uart.c ****         break;
 804:Drivers/STM32F1xx_HAL_Driver/Src/stm32f1xx_hal_uart.c **** 
 805:Drivers/STM32F1xx_HAL_Driver/Src/stm32f1xx_hal_uart.c ****       case HAL_UART_ABORT_TRANSMIT_COMPLETE_CB_ID :
 806:Drivers/STM32F1xx_HAL_Driver/Src/stm32f1xx_hal_uart.c ****         huart->AbortTransmitCpltCallback = pCallback;
 807:Drivers/STM32F1xx_HAL_Driver/Src/stm32f1xx_hal_uart.c ****         break;
 808:Drivers/STM32F1xx_HAL_Driver/Src/stm32f1xx_hal_uart.c **** 
 809:Drivers/STM32F1xx_HAL_Driver/Src/stm32f1xx_hal_uart.c ****       case HAL_UART_ABORT_RECEIVE_COMPLETE_CB_ID :
ARM GAS  /tmp/cc17XZfc.s 			page 28


 810:Drivers/STM32F1xx_HAL_Driver/Src/stm32f1xx_hal_uart.c ****         huart->AbortReceiveCpltCallback = pCallback;
 811:Drivers/STM32F1xx_HAL_Driver/Src/stm32f1xx_hal_uart.c ****         break;
 812:Drivers/STM32F1xx_HAL_Driver/Src/stm32f1xx_hal_uart.c **** 
 813:Drivers/STM32F1xx_HAL_Driver/Src/stm32f1xx_hal_uart.c ****       case HAL_UART_MSPINIT_CB_ID :
 814:Drivers/STM32F1xx_HAL_Driver/Src/stm32f1xx_hal_uart.c ****         huart->MspInitCallback = pCallback;
 815:Drivers/STM32F1xx_HAL_Driver/Src/stm32f1xx_hal_uart.c ****         break;
 816:Drivers/STM32F1xx_HAL_Driver/Src/stm32f1xx_hal_uart.c **** 
 817:Drivers/STM32F1xx_HAL_Driver/Src/stm32f1xx_hal_uart.c ****       case HAL_UART_MSPDEINIT_CB_ID :
 818:Drivers/STM32F1xx_HAL_Driver/Src/stm32f1xx_hal_uart.c ****         huart->MspDeInitCallback = pCallback;
 819:Drivers/STM32F1xx_HAL_Driver/Src/stm32f1xx_hal_uart.c ****         break;
 820:Drivers/STM32F1xx_HAL_Driver/Src/stm32f1xx_hal_uart.c **** 
 821:Drivers/STM32F1xx_HAL_Driver/Src/stm32f1xx_hal_uart.c ****       default :
 822:Drivers/STM32F1xx_HAL_Driver/Src/stm32f1xx_hal_uart.c ****         /* Update the error code */
 823:Drivers/STM32F1xx_HAL_Driver/Src/stm32f1xx_hal_uart.c ****         huart->ErrorCode |= HAL_UART_ERROR_INVALID_CALLBACK;
 824:Drivers/STM32F1xx_HAL_Driver/Src/stm32f1xx_hal_uart.c **** 
 825:Drivers/STM32F1xx_HAL_Driver/Src/stm32f1xx_hal_uart.c ****         /* Return error status */
 826:Drivers/STM32F1xx_HAL_Driver/Src/stm32f1xx_hal_uart.c ****         status =  HAL_ERROR;
 827:Drivers/STM32F1xx_HAL_Driver/Src/stm32f1xx_hal_uart.c ****         break;
 828:Drivers/STM32F1xx_HAL_Driver/Src/stm32f1xx_hal_uart.c ****     }
 829:Drivers/STM32F1xx_HAL_Driver/Src/stm32f1xx_hal_uart.c ****   }
 830:Drivers/STM32F1xx_HAL_Driver/Src/stm32f1xx_hal_uart.c ****   else if (huart->gState == HAL_UART_STATE_RESET)
 831:Drivers/STM32F1xx_HAL_Driver/Src/stm32f1xx_hal_uart.c ****   {
 832:Drivers/STM32F1xx_HAL_Driver/Src/stm32f1xx_hal_uart.c ****     switch (CallbackID)
 833:Drivers/STM32F1xx_HAL_Driver/Src/stm32f1xx_hal_uart.c ****     {
 834:Drivers/STM32F1xx_HAL_Driver/Src/stm32f1xx_hal_uart.c ****       case HAL_UART_MSPINIT_CB_ID :
 835:Drivers/STM32F1xx_HAL_Driver/Src/stm32f1xx_hal_uart.c ****         huart->MspInitCallback = pCallback;
 836:Drivers/STM32F1xx_HAL_Driver/Src/stm32f1xx_hal_uart.c ****         break;
 837:Drivers/STM32F1xx_HAL_Driver/Src/stm32f1xx_hal_uart.c **** 
 838:Drivers/STM32F1xx_HAL_Driver/Src/stm32f1xx_hal_uart.c ****       case HAL_UART_MSPDEINIT_CB_ID :
 839:Drivers/STM32F1xx_HAL_Driver/Src/stm32f1xx_hal_uart.c ****         huart->MspDeInitCallback = pCallback;
 840:Drivers/STM32F1xx_HAL_Driver/Src/stm32f1xx_hal_uart.c ****         break;
 841:Drivers/STM32F1xx_HAL_Driver/Src/stm32f1xx_hal_uart.c **** 
 842:Drivers/STM32F1xx_HAL_Driver/Src/stm32f1xx_hal_uart.c ****       default :
 843:Drivers/STM32F1xx_HAL_Driver/Src/stm32f1xx_hal_uart.c ****         /* Update the error code */
 844:Drivers/STM32F1xx_HAL_Driver/Src/stm32f1xx_hal_uart.c ****         huart->ErrorCode |= HAL_UART_ERROR_INVALID_CALLBACK;
 845:Drivers/STM32F1xx_HAL_Driver/Src/stm32f1xx_hal_uart.c **** 
 846:Drivers/STM32F1xx_HAL_Driver/Src/stm32f1xx_hal_uart.c ****         /* Return error status */
 847:Drivers/STM32F1xx_HAL_Driver/Src/stm32f1xx_hal_uart.c ****         status =  HAL_ERROR;
 848:Drivers/STM32F1xx_HAL_Driver/Src/stm32f1xx_hal_uart.c ****         break;
 849:Drivers/STM32F1xx_HAL_Driver/Src/stm32f1xx_hal_uart.c ****     }
 850:Drivers/STM32F1xx_HAL_Driver/Src/stm32f1xx_hal_uart.c ****   }
 851:Drivers/STM32F1xx_HAL_Driver/Src/stm32f1xx_hal_uart.c ****   else
 852:Drivers/STM32F1xx_HAL_Driver/Src/stm32f1xx_hal_uart.c ****   {
 853:Drivers/STM32F1xx_HAL_Driver/Src/stm32f1xx_hal_uart.c ****     /* Update the error code */
 854:Drivers/STM32F1xx_HAL_Driver/Src/stm32f1xx_hal_uart.c ****     huart->ErrorCode |= HAL_UART_ERROR_INVALID_CALLBACK;
 855:Drivers/STM32F1xx_HAL_Driver/Src/stm32f1xx_hal_uart.c **** 
 856:Drivers/STM32F1xx_HAL_Driver/Src/stm32f1xx_hal_uart.c ****     /* Return error status */
 857:Drivers/STM32F1xx_HAL_Driver/Src/stm32f1xx_hal_uart.c ****     status =  HAL_ERROR;
 858:Drivers/STM32F1xx_HAL_Driver/Src/stm32f1xx_hal_uart.c ****   }
 859:Drivers/STM32F1xx_HAL_Driver/Src/stm32f1xx_hal_uart.c **** 
 860:Drivers/STM32F1xx_HAL_Driver/Src/stm32f1xx_hal_uart.c ****   return status;
 861:Drivers/STM32F1xx_HAL_Driver/Src/stm32f1xx_hal_uart.c **** }
 862:Drivers/STM32F1xx_HAL_Driver/Src/stm32f1xx_hal_uart.c **** 
 863:Drivers/STM32F1xx_HAL_Driver/Src/stm32f1xx_hal_uart.c **** /**
 864:Drivers/STM32F1xx_HAL_Driver/Src/stm32f1xx_hal_uart.c ****   * @brief  Unregister an UART Callback
 865:Drivers/STM32F1xx_HAL_Driver/Src/stm32f1xx_hal_uart.c ****   *         UART callaback is redirected to the weak predefined callback
 866:Drivers/STM32F1xx_HAL_Driver/Src/stm32f1xx_hal_uart.c ****   * @note   The HAL_UART_UnRegisterCallback() may be called before HAL_UART_Init(), HAL_HalfDuplex_
ARM GAS  /tmp/cc17XZfc.s 			page 29


 867:Drivers/STM32F1xx_HAL_Driver/Src/stm32f1xx_hal_uart.c ****   *         HAL_LIN_Init(), HAL_MultiProcessor_Init() to un-register callbacks for HAL_UART_MSPINIT
 868:Drivers/STM32F1xx_HAL_Driver/Src/stm32f1xx_hal_uart.c ****   *         and HAL_UART_MSPDEINIT_CB_ID
 869:Drivers/STM32F1xx_HAL_Driver/Src/stm32f1xx_hal_uart.c ****   * @param  huart uart handle
 870:Drivers/STM32F1xx_HAL_Driver/Src/stm32f1xx_hal_uart.c ****   * @param  CallbackID ID of the callback to be unregistered
 871:Drivers/STM32F1xx_HAL_Driver/Src/stm32f1xx_hal_uart.c ****   *         This parameter can be one of the following values:
 872:Drivers/STM32F1xx_HAL_Driver/Src/stm32f1xx_hal_uart.c ****   *           @arg @ref HAL_UART_TX_HALFCOMPLETE_CB_ID Tx Half Complete Callback ID
 873:Drivers/STM32F1xx_HAL_Driver/Src/stm32f1xx_hal_uart.c ****   *           @arg @ref HAL_UART_TX_COMPLETE_CB_ID Tx Complete Callback ID
 874:Drivers/STM32F1xx_HAL_Driver/Src/stm32f1xx_hal_uart.c ****   *           @arg @ref HAL_UART_RX_HALFCOMPLETE_CB_ID Rx Half Complete Callback ID
 875:Drivers/STM32F1xx_HAL_Driver/Src/stm32f1xx_hal_uart.c ****   *           @arg @ref HAL_UART_RX_COMPLETE_CB_ID Rx Complete Callback ID
 876:Drivers/STM32F1xx_HAL_Driver/Src/stm32f1xx_hal_uart.c ****   *           @arg @ref HAL_UART_ERROR_CB_ID Error Callback ID
 877:Drivers/STM32F1xx_HAL_Driver/Src/stm32f1xx_hal_uart.c ****   *           @arg @ref HAL_UART_ABORT_COMPLETE_CB_ID Abort Complete Callback ID
 878:Drivers/STM32F1xx_HAL_Driver/Src/stm32f1xx_hal_uart.c ****   *           @arg @ref HAL_UART_ABORT_TRANSMIT_COMPLETE_CB_ID Abort Transmit Complete Callback ID
 879:Drivers/STM32F1xx_HAL_Driver/Src/stm32f1xx_hal_uart.c ****   *           @arg @ref HAL_UART_ABORT_RECEIVE_COMPLETE_CB_ID Abort Receive Complete Callback ID
 880:Drivers/STM32F1xx_HAL_Driver/Src/stm32f1xx_hal_uart.c ****   *           @arg @ref HAL_UART_MSPINIT_CB_ID MspInit Callback ID
 881:Drivers/STM32F1xx_HAL_Driver/Src/stm32f1xx_hal_uart.c ****   *           @arg @ref HAL_UART_MSPDEINIT_CB_ID MspDeInit Callback ID
 882:Drivers/STM32F1xx_HAL_Driver/Src/stm32f1xx_hal_uart.c ****   * @retval HAL status
 883:Drivers/STM32F1xx_HAL_Driver/Src/stm32f1xx_hal_uart.c ****   */
 884:Drivers/STM32F1xx_HAL_Driver/Src/stm32f1xx_hal_uart.c **** HAL_StatusTypeDef HAL_UART_UnRegisterCallback(UART_HandleTypeDef *huart, HAL_UART_CallbackIDTypeDef
 885:Drivers/STM32F1xx_HAL_Driver/Src/stm32f1xx_hal_uart.c **** {
 886:Drivers/STM32F1xx_HAL_Driver/Src/stm32f1xx_hal_uart.c ****   HAL_StatusTypeDef status = HAL_OK;
 887:Drivers/STM32F1xx_HAL_Driver/Src/stm32f1xx_hal_uart.c **** 
 888:Drivers/STM32F1xx_HAL_Driver/Src/stm32f1xx_hal_uart.c ****   if (HAL_UART_STATE_READY == huart->gState)
 889:Drivers/STM32F1xx_HAL_Driver/Src/stm32f1xx_hal_uart.c ****   {
 890:Drivers/STM32F1xx_HAL_Driver/Src/stm32f1xx_hal_uart.c ****     switch (CallbackID)
 891:Drivers/STM32F1xx_HAL_Driver/Src/stm32f1xx_hal_uart.c ****     {
 892:Drivers/STM32F1xx_HAL_Driver/Src/stm32f1xx_hal_uart.c ****       case HAL_UART_TX_HALFCOMPLETE_CB_ID :
 893:Drivers/STM32F1xx_HAL_Driver/Src/stm32f1xx_hal_uart.c ****         huart->TxHalfCpltCallback = HAL_UART_TxHalfCpltCallback;               /* Legacy weak  TxHa
 894:Drivers/STM32F1xx_HAL_Driver/Src/stm32f1xx_hal_uart.c ****         break;
 895:Drivers/STM32F1xx_HAL_Driver/Src/stm32f1xx_hal_uart.c **** 
 896:Drivers/STM32F1xx_HAL_Driver/Src/stm32f1xx_hal_uart.c ****       case HAL_UART_TX_COMPLETE_CB_ID :
 897:Drivers/STM32F1xx_HAL_Driver/Src/stm32f1xx_hal_uart.c ****         huart->TxCpltCallback = HAL_UART_TxCpltCallback;                       /* Legacy weak TxCpl
 898:Drivers/STM32F1xx_HAL_Driver/Src/stm32f1xx_hal_uart.c ****         break;
 899:Drivers/STM32F1xx_HAL_Driver/Src/stm32f1xx_hal_uart.c **** 
 900:Drivers/STM32F1xx_HAL_Driver/Src/stm32f1xx_hal_uart.c ****       case HAL_UART_RX_HALFCOMPLETE_CB_ID :
 901:Drivers/STM32F1xx_HAL_Driver/Src/stm32f1xx_hal_uart.c ****         huart->RxHalfCpltCallback = HAL_UART_RxHalfCpltCallback;               /* Legacy weak RxHal
 902:Drivers/STM32F1xx_HAL_Driver/Src/stm32f1xx_hal_uart.c ****         break;
 903:Drivers/STM32F1xx_HAL_Driver/Src/stm32f1xx_hal_uart.c **** 
 904:Drivers/STM32F1xx_HAL_Driver/Src/stm32f1xx_hal_uart.c ****       case HAL_UART_RX_COMPLETE_CB_ID :
 905:Drivers/STM32F1xx_HAL_Driver/Src/stm32f1xx_hal_uart.c ****         huart->RxCpltCallback = HAL_UART_RxCpltCallback;                       /* Legacy weak RxCpl
 906:Drivers/STM32F1xx_HAL_Driver/Src/stm32f1xx_hal_uart.c ****         break;
 907:Drivers/STM32F1xx_HAL_Driver/Src/stm32f1xx_hal_uart.c **** 
 908:Drivers/STM32F1xx_HAL_Driver/Src/stm32f1xx_hal_uart.c ****       case HAL_UART_ERROR_CB_ID :
 909:Drivers/STM32F1xx_HAL_Driver/Src/stm32f1xx_hal_uart.c ****         huart->ErrorCallback = HAL_UART_ErrorCallback;                         /* Legacy weak Error
 910:Drivers/STM32F1xx_HAL_Driver/Src/stm32f1xx_hal_uart.c ****         break;
 911:Drivers/STM32F1xx_HAL_Driver/Src/stm32f1xx_hal_uart.c **** 
 912:Drivers/STM32F1xx_HAL_Driver/Src/stm32f1xx_hal_uart.c ****       case HAL_UART_ABORT_COMPLETE_CB_ID :
 913:Drivers/STM32F1xx_HAL_Driver/Src/stm32f1xx_hal_uart.c ****         huart->AbortCpltCallback = HAL_UART_AbortCpltCallback;                 /* Legacy weak Abort
 914:Drivers/STM32F1xx_HAL_Driver/Src/stm32f1xx_hal_uart.c ****         break;
 915:Drivers/STM32F1xx_HAL_Driver/Src/stm32f1xx_hal_uart.c **** 
 916:Drivers/STM32F1xx_HAL_Driver/Src/stm32f1xx_hal_uart.c ****       case HAL_UART_ABORT_TRANSMIT_COMPLETE_CB_ID :
 917:Drivers/STM32F1xx_HAL_Driver/Src/stm32f1xx_hal_uart.c ****         huart->AbortTransmitCpltCallback = HAL_UART_AbortTransmitCpltCallback; /* Legacy weak Abort
 918:Drivers/STM32F1xx_HAL_Driver/Src/stm32f1xx_hal_uart.c ****         break;
 919:Drivers/STM32F1xx_HAL_Driver/Src/stm32f1xx_hal_uart.c **** 
 920:Drivers/STM32F1xx_HAL_Driver/Src/stm32f1xx_hal_uart.c ****       case HAL_UART_ABORT_RECEIVE_COMPLETE_CB_ID :
 921:Drivers/STM32F1xx_HAL_Driver/Src/stm32f1xx_hal_uart.c ****         huart->AbortReceiveCpltCallback = HAL_UART_AbortReceiveCpltCallback;   /* Legacy weak Abort
 922:Drivers/STM32F1xx_HAL_Driver/Src/stm32f1xx_hal_uart.c ****         break;
 923:Drivers/STM32F1xx_HAL_Driver/Src/stm32f1xx_hal_uart.c **** 
ARM GAS  /tmp/cc17XZfc.s 			page 30


 924:Drivers/STM32F1xx_HAL_Driver/Src/stm32f1xx_hal_uart.c ****       case HAL_UART_MSPINIT_CB_ID :
 925:Drivers/STM32F1xx_HAL_Driver/Src/stm32f1xx_hal_uart.c ****         huart->MspInitCallback = HAL_UART_MspInit;                             /* Legacy weak MspIn
 926:Drivers/STM32F1xx_HAL_Driver/Src/stm32f1xx_hal_uart.c ****         break;
 927:Drivers/STM32F1xx_HAL_Driver/Src/stm32f1xx_hal_uart.c **** 
 928:Drivers/STM32F1xx_HAL_Driver/Src/stm32f1xx_hal_uart.c ****       case HAL_UART_MSPDEINIT_CB_ID :
 929:Drivers/STM32F1xx_HAL_Driver/Src/stm32f1xx_hal_uart.c ****         huart->MspDeInitCallback = HAL_UART_MspDeInit;                         /* Legacy weak MspDe
 930:Drivers/STM32F1xx_HAL_Driver/Src/stm32f1xx_hal_uart.c ****         break;
 931:Drivers/STM32F1xx_HAL_Driver/Src/stm32f1xx_hal_uart.c **** 
 932:Drivers/STM32F1xx_HAL_Driver/Src/stm32f1xx_hal_uart.c ****       default :
 933:Drivers/STM32F1xx_HAL_Driver/Src/stm32f1xx_hal_uart.c ****         /* Update the error code */
 934:Drivers/STM32F1xx_HAL_Driver/Src/stm32f1xx_hal_uart.c ****         huart->ErrorCode |= HAL_UART_ERROR_INVALID_CALLBACK;
 935:Drivers/STM32F1xx_HAL_Driver/Src/stm32f1xx_hal_uart.c **** 
 936:Drivers/STM32F1xx_HAL_Driver/Src/stm32f1xx_hal_uart.c ****         /* Return error status */
 937:Drivers/STM32F1xx_HAL_Driver/Src/stm32f1xx_hal_uart.c ****         status =  HAL_ERROR;
 938:Drivers/STM32F1xx_HAL_Driver/Src/stm32f1xx_hal_uart.c ****         break;
 939:Drivers/STM32F1xx_HAL_Driver/Src/stm32f1xx_hal_uart.c ****     }
 940:Drivers/STM32F1xx_HAL_Driver/Src/stm32f1xx_hal_uart.c ****   }
 941:Drivers/STM32F1xx_HAL_Driver/Src/stm32f1xx_hal_uart.c ****   else if (HAL_UART_STATE_RESET == huart->gState)
 942:Drivers/STM32F1xx_HAL_Driver/Src/stm32f1xx_hal_uart.c ****   {
 943:Drivers/STM32F1xx_HAL_Driver/Src/stm32f1xx_hal_uart.c ****     switch (CallbackID)
 944:Drivers/STM32F1xx_HAL_Driver/Src/stm32f1xx_hal_uart.c ****     {
 945:Drivers/STM32F1xx_HAL_Driver/Src/stm32f1xx_hal_uart.c ****       case HAL_UART_MSPINIT_CB_ID :
 946:Drivers/STM32F1xx_HAL_Driver/Src/stm32f1xx_hal_uart.c ****         huart->MspInitCallback = HAL_UART_MspInit;
 947:Drivers/STM32F1xx_HAL_Driver/Src/stm32f1xx_hal_uart.c ****         break;
 948:Drivers/STM32F1xx_HAL_Driver/Src/stm32f1xx_hal_uart.c **** 
 949:Drivers/STM32F1xx_HAL_Driver/Src/stm32f1xx_hal_uart.c ****       case HAL_UART_MSPDEINIT_CB_ID :
 950:Drivers/STM32F1xx_HAL_Driver/Src/stm32f1xx_hal_uart.c ****         huart->MspDeInitCallback = HAL_UART_MspDeInit;
 951:Drivers/STM32F1xx_HAL_Driver/Src/stm32f1xx_hal_uart.c ****         break;
 952:Drivers/STM32F1xx_HAL_Driver/Src/stm32f1xx_hal_uart.c **** 
 953:Drivers/STM32F1xx_HAL_Driver/Src/stm32f1xx_hal_uart.c ****       default :
 954:Drivers/STM32F1xx_HAL_Driver/Src/stm32f1xx_hal_uart.c ****         /* Update the error code */
 955:Drivers/STM32F1xx_HAL_Driver/Src/stm32f1xx_hal_uart.c ****         huart->ErrorCode |= HAL_UART_ERROR_INVALID_CALLBACK;
 956:Drivers/STM32F1xx_HAL_Driver/Src/stm32f1xx_hal_uart.c **** 
 957:Drivers/STM32F1xx_HAL_Driver/Src/stm32f1xx_hal_uart.c ****         /* Return error status */
 958:Drivers/STM32F1xx_HAL_Driver/Src/stm32f1xx_hal_uart.c ****         status =  HAL_ERROR;
 959:Drivers/STM32F1xx_HAL_Driver/Src/stm32f1xx_hal_uart.c ****         break;
 960:Drivers/STM32F1xx_HAL_Driver/Src/stm32f1xx_hal_uart.c ****     }
 961:Drivers/STM32F1xx_HAL_Driver/Src/stm32f1xx_hal_uart.c ****   }
 962:Drivers/STM32F1xx_HAL_Driver/Src/stm32f1xx_hal_uart.c ****   else
 963:Drivers/STM32F1xx_HAL_Driver/Src/stm32f1xx_hal_uart.c ****   {
 964:Drivers/STM32F1xx_HAL_Driver/Src/stm32f1xx_hal_uart.c ****     /* Update the error code */
 965:Drivers/STM32F1xx_HAL_Driver/Src/stm32f1xx_hal_uart.c ****     huart->ErrorCode |= HAL_UART_ERROR_INVALID_CALLBACK;
 966:Drivers/STM32F1xx_HAL_Driver/Src/stm32f1xx_hal_uart.c **** 
 967:Drivers/STM32F1xx_HAL_Driver/Src/stm32f1xx_hal_uart.c ****     /* Return error status */
 968:Drivers/STM32F1xx_HAL_Driver/Src/stm32f1xx_hal_uart.c ****     status =  HAL_ERROR;
 969:Drivers/STM32F1xx_HAL_Driver/Src/stm32f1xx_hal_uart.c ****   }
 970:Drivers/STM32F1xx_HAL_Driver/Src/stm32f1xx_hal_uart.c **** 
 971:Drivers/STM32F1xx_HAL_Driver/Src/stm32f1xx_hal_uart.c ****   return status;
 972:Drivers/STM32F1xx_HAL_Driver/Src/stm32f1xx_hal_uart.c **** }
 973:Drivers/STM32F1xx_HAL_Driver/Src/stm32f1xx_hal_uart.c **** 
 974:Drivers/STM32F1xx_HAL_Driver/Src/stm32f1xx_hal_uart.c **** /**
 975:Drivers/STM32F1xx_HAL_Driver/Src/stm32f1xx_hal_uart.c ****   * @brief  Register a User UART Rx Event Callback
 976:Drivers/STM32F1xx_HAL_Driver/Src/stm32f1xx_hal_uart.c ****   *         To be used instead of the weak predefined callback
 977:Drivers/STM32F1xx_HAL_Driver/Src/stm32f1xx_hal_uart.c ****   * @param  huart     Uart handle
 978:Drivers/STM32F1xx_HAL_Driver/Src/stm32f1xx_hal_uart.c ****   * @param  pCallback Pointer to the Rx Event Callback function
 979:Drivers/STM32F1xx_HAL_Driver/Src/stm32f1xx_hal_uart.c ****   * @retval HAL status
 980:Drivers/STM32F1xx_HAL_Driver/Src/stm32f1xx_hal_uart.c ****   */
ARM GAS  /tmp/cc17XZfc.s 			page 31


 981:Drivers/STM32F1xx_HAL_Driver/Src/stm32f1xx_hal_uart.c **** HAL_StatusTypeDef HAL_UART_RegisterRxEventCallback(UART_HandleTypeDef *huart, pUART_RxEventCallback
 982:Drivers/STM32F1xx_HAL_Driver/Src/stm32f1xx_hal_uart.c **** {
 983:Drivers/STM32F1xx_HAL_Driver/Src/stm32f1xx_hal_uart.c ****   HAL_StatusTypeDef status = HAL_OK;
 984:Drivers/STM32F1xx_HAL_Driver/Src/stm32f1xx_hal_uart.c **** 
 985:Drivers/STM32F1xx_HAL_Driver/Src/stm32f1xx_hal_uart.c ****   if (pCallback == NULL)
 986:Drivers/STM32F1xx_HAL_Driver/Src/stm32f1xx_hal_uart.c ****   {
 987:Drivers/STM32F1xx_HAL_Driver/Src/stm32f1xx_hal_uart.c ****     huart->ErrorCode |= HAL_UART_ERROR_INVALID_CALLBACK;
 988:Drivers/STM32F1xx_HAL_Driver/Src/stm32f1xx_hal_uart.c **** 
 989:Drivers/STM32F1xx_HAL_Driver/Src/stm32f1xx_hal_uart.c ****     return HAL_ERROR;
 990:Drivers/STM32F1xx_HAL_Driver/Src/stm32f1xx_hal_uart.c ****   }
 991:Drivers/STM32F1xx_HAL_Driver/Src/stm32f1xx_hal_uart.c **** 
 992:Drivers/STM32F1xx_HAL_Driver/Src/stm32f1xx_hal_uart.c ****   /* Process locked */
 993:Drivers/STM32F1xx_HAL_Driver/Src/stm32f1xx_hal_uart.c ****   __HAL_LOCK(huart);
 994:Drivers/STM32F1xx_HAL_Driver/Src/stm32f1xx_hal_uart.c **** 
 995:Drivers/STM32F1xx_HAL_Driver/Src/stm32f1xx_hal_uart.c ****   if (huart->gState == HAL_UART_STATE_READY)
 996:Drivers/STM32F1xx_HAL_Driver/Src/stm32f1xx_hal_uart.c ****   {
 997:Drivers/STM32F1xx_HAL_Driver/Src/stm32f1xx_hal_uart.c ****     huart->RxEventCallback = pCallback;
 998:Drivers/STM32F1xx_HAL_Driver/Src/stm32f1xx_hal_uart.c ****   }
 999:Drivers/STM32F1xx_HAL_Driver/Src/stm32f1xx_hal_uart.c ****   else
1000:Drivers/STM32F1xx_HAL_Driver/Src/stm32f1xx_hal_uart.c ****   {
1001:Drivers/STM32F1xx_HAL_Driver/Src/stm32f1xx_hal_uart.c ****     huart->ErrorCode |= HAL_UART_ERROR_INVALID_CALLBACK;
1002:Drivers/STM32F1xx_HAL_Driver/Src/stm32f1xx_hal_uart.c **** 
1003:Drivers/STM32F1xx_HAL_Driver/Src/stm32f1xx_hal_uart.c ****     status =  HAL_ERROR;
1004:Drivers/STM32F1xx_HAL_Driver/Src/stm32f1xx_hal_uart.c ****   }
1005:Drivers/STM32F1xx_HAL_Driver/Src/stm32f1xx_hal_uart.c **** 
1006:Drivers/STM32F1xx_HAL_Driver/Src/stm32f1xx_hal_uart.c ****   /* Release Lock */
1007:Drivers/STM32F1xx_HAL_Driver/Src/stm32f1xx_hal_uart.c ****   __HAL_UNLOCK(huart);
1008:Drivers/STM32F1xx_HAL_Driver/Src/stm32f1xx_hal_uart.c **** 
1009:Drivers/STM32F1xx_HAL_Driver/Src/stm32f1xx_hal_uart.c ****   return status;
1010:Drivers/STM32F1xx_HAL_Driver/Src/stm32f1xx_hal_uart.c **** }
1011:Drivers/STM32F1xx_HAL_Driver/Src/stm32f1xx_hal_uart.c **** 
1012:Drivers/STM32F1xx_HAL_Driver/Src/stm32f1xx_hal_uart.c **** /**
1013:Drivers/STM32F1xx_HAL_Driver/Src/stm32f1xx_hal_uart.c ****   * @brief  UnRegister the UART Rx Event Callback
1014:Drivers/STM32F1xx_HAL_Driver/Src/stm32f1xx_hal_uart.c ****   *         UART Rx Event Callback is redirected to the weak HAL_UARTEx_RxEventCallback() predefine
1015:Drivers/STM32F1xx_HAL_Driver/Src/stm32f1xx_hal_uart.c ****   * @param  huart     Uart handle
1016:Drivers/STM32F1xx_HAL_Driver/Src/stm32f1xx_hal_uart.c ****   * @retval HAL status
1017:Drivers/STM32F1xx_HAL_Driver/Src/stm32f1xx_hal_uart.c ****   */
1018:Drivers/STM32F1xx_HAL_Driver/Src/stm32f1xx_hal_uart.c **** HAL_StatusTypeDef HAL_UART_UnRegisterRxEventCallback(UART_HandleTypeDef *huart)
1019:Drivers/STM32F1xx_HAL_Driver/Src/stm32f1xx_hal_uart.c **** {
1020:Drivers/STM32F1xx_HAL_Driver/Src/stm32f1xx_hal_uart.c ****   HAL_StatusTypeDef status = HAL_OK;
1021:Drivers/STM32F1xx_HAL_Driver/Src/stm32f1xx_hal_uart.c **** 
1022:Drivers/STM32F1xx_HAL_Driver/Src/stm32f1xx_hal_uart.c ****   /* Process locked */
1023:Drivers/STM32F1xx_HAL_Driver/Src/stm32f1xx_hal_uart.c ****   __HAL_LOCK(huart);
1024:Drivers/STM32F1xx_HAL_Driver/Src/stm32f1xx_hal_uart.c **** 
1025:Drivers/STM32F1xx_HAL_Driver/Src/stm32f1xx_hal_uart.c ****   if (huart->gState == HAL_UART_STATE_READY)
1026:Drivers/STM32F1xx_HAL_Driver/Src/stm32f1xx_hal_uart.c ****   {
1027:Drivers/STM32F1xx_HAL_Driver/Src/stm32f1xx_hal_uart.c ****     huart->RxEventCallback = HAL_UARTEx_RxEventCallback; /* Legacy weak UART Rx Event Callback  */
1028:Drivers/STM32F1xx_HAL_Driver/Src/stm32f1xx_hal_uart.c ****   }
1029:Drivers/STM32F1xx_HAL_Driver/Src/stm32f1xx_hal_uart.c ****   else
1030:Drivers/STM32F1xx_HAL_Driver/Src/stm32f1xx_hal_uart.c ****   {
1031:Drivers/STM32F1xx_HAL_Driver/Src/stm32f1xx_hal_uart.c ****     huart->ErrorCode |= HAL_UART_ERROR_INVALID_CALLBACK;
1032:Drivers/STM32F1xx_HAL_Driver/Src/stm32f1xx_hal_uart.c **** 
1033:Drivers/STM32F1xx_HAL_Driver/Src/stm32f1xx_hal_uart.c ****     status =  HAL_ERROR;
1034:Drivers/STM32F1xx_HAL_Driver/Src/stm32f1xx_hal_uart.c ****   }
1035:Drivers/STM32F1xx_HAL_Driver/Src/stm32f1xx_hal_uart.c **** 
1036:Drivers/STM32F1xx_HAL_Driver/Src/stm32f1xx_hal_uart.c ****   /* Release Lock */
1037:Drivers/STM32F1xx_HAL_Driver/Src/stm32f1xx_hal_uart.c ****   __HAL_UNLOCK(huart);
ARM GAS  /tmp/cc17XZfc.s 			page 32


1038:Drivers/STM32F1xx_HAL_Driver/Src/stm32f1xx_hal_uart.c ****   return status;
1039:Drivers/STM32F1xx_HAL_Driver/Src/stm32f1xx_hal_uart.c **** }
1040:Drivers/STM32F1xx_HAL_Driver/Src/stm32f1xx_hal_uart.c **** #endif /* USE_HAL_UART_REGISTER_CALLBACKS */
1041:Drivers/STM32F1xx_HAL_Driver/Src/stm32f1xx_hal_uart.c **** 
1042:Drivers/STM32F1xx_HAL_Driver/Src/stm32f1xx_hal_uart.c **** /**
1043:Drivers/STM32F1xx_HAL_Driver/Src/stm32f1xx_hal_uart.c ****   * @}
1044:Drivers/STM32F1xx_HAL_Driver/Src/stm32f1xx_hal_uart.c ****   */
1045:Drivers/STM32F1xx_HAL_Driver/Src/stm32f1xx_hal_uart.c **** 
1046:Drivers/STM32F1xx_HAL_Driver/Src/stm32f1xx_hal_uart.c **** /** @defgroup UART_Exported_Functions_Group2 IO operation functions
1047:Drivers/STM32F1xx_HAL_Driver/Src/stm32f1xx_hal_uart.c ****   *  @brief UART Transmit and Receive functions
1048:Drivers/STM32F1xx_HAL_Driver/Src/stm32f1xx_hal_uart.c ****   *
1049:Drivers/STM32F1xx_HAL_Driver/Src/stm32f1xx_hal_uart.c **** @verbatim
1050:Drivers/STM32F1xx_HAL_Driver/Src/stm32f1xx_hal_uart.c ****  ===============================================================================
1051:Drivers/STM32F1xx_HAL_Driver/Src/stm32f1xx_hal_uart.c ****                       ##### IO operation functions #####
1052:Drivers/STM32F1xx_HAL_Driver/Src/stm32f1xx_hal_uart.c ****  ===============================================================================
1053:Drivers/STM32F1xx_HAL_Driver/Src/stm32f1xx_hal_uart.c ****     This subsection provides a set of functions allowing to manage the UART asynchronous
1054:Drivers/STM32F1xx_HAL_Driver/Src/stm32f1xx_hal_uart.c ****     and Half duplex data transfers.
1055:Drivers/STM32F1xx_HAL_Driver/Src/stm32f1xx_hal_uart.c **** 
1056:Drivers/STM32F1xx_HAL_Driver/Src/stm32f1xx_hal_uart.c ****     (#) There are two modes of transfer:
1057:Drivers/STM32F1xx_HAL_Driver/Src/stm32f1xx_hal_uart.c ****        (+) Blocking mode: The communication is performed in polling mode.
1058:Drivers/STM32F1xx_HAL_Driver/Src/stm32f1xx_hal_uart.c ****            The HAL status of all data processing is returned by the same function
1059:Drivers/STM32F1xx_HAL_Driver/Src/stm32f1xx_hal_uart.c ****            after finishing transfer.
1060:Drivers/STM32F1xx_HAL_Driver/Src/stm32f1xx_hal_uart.c ****        (+) Non-Blocking mode: The communication is performed using Interrupts
1061:Drivers/STM32F1xx_HAL_Driver/Src/stm32f1xx_hal_uart.c ****            or DMA, these API's return the HAL status.
1062:Drivers/STM32F1xx_HAL_Driver/Src/stm32f1xx_hal_uart.c ****            The end of the data processing will be indicated through the
1063:Drivers/STM32F1xx_HAL_Driver/Src/stm32f1xx_hal_uart.c ****            dedicated UART IRQ when using Interrupt mode or the DMA IRQ when
1064:Drivers/STM32F1xx_HAL_Driver/Src/stm32f1xx_hal_uart.c ****            using DMA mode.
1065:Drivers/STM32F1xx_HAL_Driver/Src/stm32f1xx_hal_uart.c ****            The HAL_UART_TxCpltCallback(), HAL_UART_RxCpltCallback() user callbacks
1066:Drivers/STM32F1xx_HAL_Driver/Src/stm32f1xx_hal_uart.c ****            will be executed respectively at the end of the transmit or receive process
1067:Drivers/STM32F1xx_HAL_Driver/Src/stm32f1xx_hal_uart.c ****            The HAL_UART_ErrorCallback()user callback will be executed when a communication error is
1068:Drivers/STM32F1xx_HAL_Driver/Src/stm32f1xx_hal_uart.c **** 
1069:Drivers/STM32F1xx_HAL_Driver/Src/stm32f1xx_hal_uart.c ****     (#) Blocking mode API's are :
1070:Drivers/STM32F1xx_HAL_Driver/Src/stm32f1xx_hal_uart.c ****         (+) HAL_UART_Transmit()
1071:Drivers/STM32F1xx_HAL_Driver/Src/stm32f1xx_hal_uart.c ****         (+) HAL_UART_Receive()
1072:Drivers/STM32F1xx_HAL_Driver/Src/stm32f1xx_hal_uart.c **** 
1073:Drivers/STM32F1xx_HAL_Driver/Src/stm32f1xx_hal_uart.c ****     (#) Non-Blocking mode API's with Interrupt are :
1074:Drivers/STM32F1xx_HAL_Driver/Src/stm32f1xx_hal_uart.c ****         (+) HAL_UART_Transmit_IT()
1075:Drivers/STM32F1xx_HAL_Driver/Src/stm32f1xx_hal_uart.c ****         (+) HAL_UART_Receive_IT()
1076:Drivers/STM32F1xx_HAL_Driver/Src/stm32f1xx_hal_uart.c ****         (+) HAL_UART_IRQHandler()
1077:Drivers/STM32F1xx_HAL_Driver/Src/stm32f1xx_hal_uart.c **** 
1078:Drivers/STM32F1xx_HAL_Driver/Src/stm32f1xx_hal_uart.c ****     (#) Non-Blocking mode API's with DMA are :
1079:Drivers/STM32F1xx_HAL_Driver/Src/stm32f1xx_hal_uart.c ****         (+) HAL_UART_Transmit_DMA()
1080:Drivers/STM32F1xx_HAL_Driver/Src/stm32f1xx_hal_uart.c ****         (+) HAL_UART_Receive_DMA()
1081:Drivers/STM32F1xx_HAL_Driver/Src/stm32f1xx_hal_uart.c ****         (+) HAL_UART_DMAPause()
1082:Drivers/STM32F1xx_HAL_Driver/Src/stm32f1xx_hal_uart.c ****         (+) HAL_UART_DMAResume()
1083:Drivers/STM32F1xx_HAL_Driver/Src/stm32f1xx_hal_uart.c ****         (+) HAL_UART_DMAStop()
1084:Drivers/STM32F1xx_HAL_Driver/Src/stm32f1xx_hal_uart.c **** 
1085:Drivers/STM32F1xx_HAL_Driver/Src/stm32f1xx_hal_uart.c ****     (#) A set of Transfer Complete Callbacks are provided in Non_Blocking mode:
1086:Drivers/STM32F1xx_HAL_Driver/Src/stm32f1xx_hal_uart.c ****         (+) HAL_UART_TxHalfCpltCallback()
1087:Drivers/STM32F1xx_HAL_Driver/Src/stm32f1xx_hal_uart.c ****         (+) HAL_UART_TxCpltCallback()
1088:Drivers/STM32F1xx_HAL_Driver/Src/stm32f1xx_hal_uart.c ****         (+) HAL_UART_RxHalfCpltCallback()
1089:Drivers/STM32F1xx_HAL_Driver/Src/stm32f1xx_hal_uart.c ****         (+) HAL_UART_RxCpltCallback()
1090:Drivers/STM32F1xx_HAL_Driver/Src/stm32f1xx_hal_uart.c ****         (+) HAL_UART_ErrorCallback()
1091:Drivers/STM32F1xx_HAL_Driver/Src/stm32f1xx_hal_uart.c **** 
1092:Drivers/STM32F1xx_HAL_Driver/Src/stm32f1xx_hal_uart.c ****     (#) Non-Blocking mode transfers could be aborted using Abort API's :
1093:Drivers/STM32F1xx_HAL_Driver/Src/stm32f1xx_hal_uart.c ****         (+) HAL_UART_Abort()
1094:Drivers/STM32F1xx_HAL_Driver/Src/stm32f1xx_hal_uart.c ****         (+) HAL_UART_AbortTransmit()
ARM GAS  /tmp/cc17XZfc.s 			page 33


1095:Drivers/STM32F1xx_HAL_Driver/Src/stm32f1xx_hal_uart.c ****         (+) HAL_UART_AbortReceive()
1096:Drivers/STM32F1xx_HAL_Driver/Src/stm32f1xx_hal_uart.c ****         (+) HAL_UART_Abort_IT()
1097:Drivers/STM32F1xx_HAL_Driver/Src/stm32f1xx_hal_uart.c ****         (+) HAL_UART_AbortTransmit_IT()
1098:Drivers/STM32F1xx_HAL_Driver/Src/stm32f1xx_hal_uart.c ****         (+) HAL_UART_AbortReceive_IT()
1099:Drivers/STM32F1xx_HAL_Driver/Src/stm32f1xx_hal_uart.c **** 
1100:Drivers/STM32F1xx_HAL_Driver/Src/stm32f1xx_hal_uart.c ****     (#) For Abort services based on interrupts (HAL_UART_Abortxxx_IT), a set of Abort Complete Call
1101:Drivers/STM32F1xx_HAL_Driver/Src/stm32f1xx_hal_uart.c ****         (+) HAL_UART_AbortCpltCallback()
1102:Drivers/STM32F1xx_HAL_Driver/Src/stm32f1xx_hal_uart.c ****         (+) HAL_UART_AbortTransmitCpltCallback()
1103:Drivers/STM32F1xx_HAL_Driver/Src/stm32f1xx_hal_uart.c ****         (+) HAL_UART_AbortReceiveCpltCallback()
1104:Drivers/STM32F1xx_HAL_Driver/Src/stm32f1xx_hal_uart.c **** 
1105:Drivers/STM32F1xx_HAL_Driver/Src/stm32f1xx_hal_uart.c ****     (#) A Rx Event Reception Callback (Rx event notification) is available for Non_Blocking modes o
1106:Drivers/STM32F1xx_HAL_Driver/Src/stm32f1xx_hal_uart.c ****         (+) HAL_UARTEx_RxEventCallback()
1107:Drivers/STM32F1xx_HAL_Driver/Src/stm32f1xx_hal_uart.c **** 
1108:Drivers/STM32F1xx_HAL_Driver/Src/stm32f1xx_hal_uart.c ****     (#) In Non-Blocking mode transfers, possible errors are split into 2 categories.
1109:Drivers/STM32F1xx_HAL_Driver/Src/stm32f1xx_hal_uart.c ****         Errors are handled as follows :
1110:Drivers/STM32F1xx_HAL_Driver/Src/stm32f1xx_hal_uart.c ****        (+) Error is considered as Recoverable and non blocking : Transfer could go till end, but er
1111:Drivers/STM32F1xx_HAL_Driver/Src/stm32f1xx_hal_uart.c ****            to be evaluated by user : this concerns Frame Error, Parity Error or Noise Error in Inte
1112:Drivers/STM32F1xx_HAL_Driver/Src/stm32f1xx_hal_uart.c ****            Received character is then retrieved and stored in Rx buffer, Error code is set to allow
1113:Drivers/STM32F1xx_HAL_Driver/Src/stm32f1xx_hal_uart.c ****            and HAL_UART_ErrorCallback() user callback is executed. Transfer is kept ongoing on UART
1114:Drivers/STM32F1xx_HAL_Driver/Src/stm32f1xx_hal_uart.c ****            If user wants to abort it, Abort services should be called by user.
1115:Drivers/STM32F1xx_HAL_Driver/Src/stm32f1xx_hal_uart.c ****        (+) Error is considered as Blocking : Transfer could not be completed properly and is aborte
1116:Drivers/STM32F1xx_HAL_Driver/Src/stm32f1xx_hal_uart.c ****            This concerns Overrun Error In Interrupt mode reception and all errors in DMA mode.
1117:Drivers/STM32F1xx_HAL_Driver/Src/stm32f1xx_hal_uart.c ****            Error code is set to allow user to identify error type, and HAL_UART_ErrorCallback() use
1118:Drivers/STM32F1xx_HAL_Driver/Src/stm32f1xx_hal_uart.c **** 
1119:Drivers/STM32F1xx_HAL_Driver/Src/stm32f1xx_hal_uart.c ****     -@- In the Half duplex communication, it is forbidden to run the transmit
1120:Drivers/STM32F1xx_HAL_Driver/Src/stm32f1xx_hal_uart.c ****         and receive process in parallel, the UART state HAL_UART_STATE_BUSY_TX_RX can't be useful.
1121:Drivers/STM32F1xx_HAL_Driver/Src/stm32f1xx_hal_uart.c **** 
1122:Drivers/STM32F1xx_HAL_Driver/Src/stm32f1xx_hal_uart.c **** @endverbatim
1123:Drivers/STM32F1xx_HAL_Driver/Src/stm32f1xx_hal_uart.c ****   * @{
1124:Drivers/STM32F1xx_HAL_Driver/Src/stm32f1xx_hal_uart.c ****   */
1125:Drivers/STM32F1xx_HAL_Driver/Src/stm32f1xx_hal_uart.c **** 
1126:Drivers/STM32F1xx_HAL_Driver/Src/stm32f1xx_hal_uart.c **** /**
1127:Drivers/STM32F1xx_HAL_Driver/Src/stm32f1xx_hal_uart.c ****   * @brief  Sends an amount of data in blocking mode.
1128:Drivers/STM32F1xx_HAL_Driver/Src/stm32f1xx_hal_uart.c ****   * @note   When UART parity is not enabled (PCE = 0), and Word Length is configured to 9 bits (M1-
1129:Drivers/STM32F1xx_HAL_Driver/Src/stm32f1xx_hal_uart.c ****   *         the sent data is handled as a set of u16. In this case, Size must indicate the number
1130:Drivers/STM32F1xx_HAL_Driver/Src/stm32f1xx_hal_uart.c ****   *         of u16 provided through pData.
1131:Drivers/STM32F1xx_HAL_Driver/Src/stm32f1xx_hal_uart.c ****   * @param  huart Pointer to a UART_HandleTypeDef structure that contains
1132:Drivers/STM32F1xx_HAL_Driver/Src/stm32f1xx_hal_uart.c ****   *               the configuration information for the specified UART module.
1133:Drivers/STM32F1xx_HAL_Driver/Src/stm32f1xx_hal_uart.c ****   * @param  pData Pointer to data buffer (u8 or u16 data elements).
1134:Drivers/STM32F1xx_HAL_Driver/Src/stm32f1xx_hal_uart.c ****   * @param  Size  Amount of data elements (u8 or u16) to be sent
1135:Drivers/STM32F1xx_HAL_Driver/Src/stm32f1xx_hal_uart.c ****   * @param  Timeout Timeout duration
1136:Drivers/STM32F1xx_HAL_Driver/Src/stm32f1xx_hal_uart.c ****   * @retval HAL status
1137:Drivers/STM32F1xx_HAL_Driver/Src/stm32f1xx_hal_uart.c ****   */
1138:Drivers/STM32F1xx_HAL_Driver/Src/stm32f1xx_hal_uart.c **** HAL_StatusTypeDef HAL_UART_Transmit(UART_HandleTypeDef *huart, const uint8_t *pData, uint16_t Size,
1139:Drivers/STM32F1xx_HAL_Driver/Src/stm32f1xx_hal_uart.c **** {
 746              		.loc 1 1139 1
 747              		.cfi_startproc
 748              		@ args = 0, pretend = 0, frame = 32
 749              		@ frame_needed = 1, uses_anonymous_args = 0
 750 0000 80B5     		push	{r7, lr}
 751              	.LCFI37:
 752              		.cfi_def_cfa_offset 8
 753              		.cfi_offset 7, -8
 754              		.cfi_offset 14, -4
 755 0002 8AB0     		sub	sp, sp, #40
 756              	.LCFI38:
 757              		.cfi_def_cfa_offset 48
ARM GAS  /tmp/cc17XZfc.s 			page 34


 758 0004 02AF     		add	r7, sp, #8
 759              	.LCFI39:
 760              		.cfi_def_cfa 7, 40
 761 0006 F860     		str	r0, [r7, #12]
 762 0008 B960     		str	r1, [r7, #8]
 763 000a 3B60     		str	r3, [r7]
 764 000c 1346     		mov	r3, r2	@ movhi
 765 000e FB80     		strh	r3, [r7, #6]	@ movhi
1140:Drivers/STM32F1xx_HAL_Driver/Src/stm32f1xx_hal_uart.c ****   const uint8_t  *pdata8bits;
1141:Drivers/STM32F1xx_HAL_Driver/Src/stm32f1xx_hal_uart.c ****   const uint16_t *pdata16bits;
1142:Drivers/STM32F1xx_HAL_Driver/Src/stm32f1xx_hal_uart.c ****   uint32_t tickstart = 0U;
 766              		.loc 1 1142 12
 767 0010 0023     		movs	r3, #0
 768 0012 7B61     		str	r3, [r7, #20]
1143:Drivers/STM32F1xx_HAL_Driver/Src/stm32f1xx_hal_uart.c **** 
1144:Drivers/STM32F1xx_HAL_Driver/Src/stm32f1xx_hal_uart.c ****   /* Check that a Tx process is not already ongoing */
1145:Drivers/STM32F1xx_HAL_Driver/Src/stm32f1xx_hal_uart.c ****   if (huart->gState == HAL_UART_STATE_READY)
 769              		.loc 1 1145 12
 770 0014 FB68     		ldr	r3, [r7, #12]
 771 0016 93F84130 		ldrb	r3, [r3, #65]
 772 001a DBB2     		uxtb	r3, r3
 773              		.loc 1 1145 6
 774 001c 202B     		cmp	r3, #32
 775 001e 6DD1     		bne	.L23
1146:Drivers/STM32F1xx_HAL_Driver/Src/stm32f1xx_hal_uart.c ****   {
1147:Drivers/STM32F1xx_HAL_Driver/Src/stm32f1xx_hal_uart.c ****     if ((pData == NULL) || (Size == 0U))
 776              		.loc 1 1147 8
 777 0020 BB68     		ldr	r3, [r7, #8]
 778 0022 002B     		cmp	r3, #0
 779 0024 02D0     		beq	.L24
 780              		.loc 1 1147 25 discriminator 1
 781 0026 FB88     		ldrh	r3, [r7, #6]
 782 0028 002B     		cmp	r3, #0
 783 002a 01D1     		bne	.L25
 784              	.L24:
1148:Drivers/STM32F1xx_HAL_Driver/Src/stm32f1xx_hal_uart.c ****     {
1149:Drivers/STM32F1xx_HAL_Driver/Src/stm32f1xx_hal_uart.c ****       return  HAL_ERROR;
 785              		.loc 1 1149 15
 786 002c 0123     		movs	r3, #1
 787 002e 66E0     		b	.L26
 788              	.L25:
1150:Drivers/STM32F1xx_HAL_Driver/Src/stm32f1xx_hal_uart.c ****     }
1151:Drivers/STM32F1xx_HAL_Driver/Src/stm32f1xx_hal_uart.c **** 
1152:Drivers/STM32F1xx_HAL_Driver/Src/stm32f1xx_hal_uart.c ****     huart->ErrorCode = HAL_UART_ERROR_NONE;
 789              		.loc 1 1152 22
 790 0030 FB68     		ldr	r3, [r7, #12]
 791 0032 0022     		movs	r2, #0
 792 0034 5A64     		str	r2, [r3, #68]
1153:Drivers/STM32F1xx_HAL_Driver/Src/stm32f1xx_hal_uart.c ****     huart->gState = HAL_UART_STATE_BUSY_TX;
 793              		.loc 1 1153 19
 794 0036 FB68     		ldr	r3, [r7, #12]
 795 0038 2122     		movs	r2, #33
 796 003a 83F84120 		strb	r2, [r3, #65]
1154:Drivers/STM32F1xx_HAL_Driver/Src/stm32f1xx_hal_uart.c **** 
1155:Drivers/STM32F1xx_HAL_Driver/Src/stm32f1xx_hal_uart.c ****     /* Init tickstart for timeout management */
1156:Drivers/STM32F1xx_HAL_Driver/Src/stm32f1xx_hal_uart.c ****     tickstart = HAL_GetTick();
 797              		.loc 1 1156 17
ARM GAS  /tmp/cc17XZfc.s 			page 35


 798 003e FFF7FEFF 		bl	HAL_GetTick
 799 0042 7861     		str	r0, [r7, #20]
1157:Drivers/STM32F1xx_HAL_Driver/Src/stm32f1xx_hal_uart.c **** 
1158:Drivers/STM32F1xx_HAL_Driver/Src/stm32f1xx_hal_uart.c ****     huart->TxXferSize = Size;
 800              		.loc 1 1158 23
 801 0044 FB68     		ldr	r3, [r7, #12]
 802 0046 FA88     		ldrh	r2, [r7, #6]	@ movhi
 803 0048 9A84     		strh	r2, [r3, #36]	@ movhi
1159:Drivers/STM32F1xx_HAL_Driver/Src/stm32f1xx_hal_uart.c ****     huart->TxXferCount = Size;
 804              		.loc 1 1159 24
 805 004a FB68     		ldr	r3, [r7, #12]
 806 004c FA88     		ldrh	r2, [r7, #6]	@ movhi
 807 004e DA84     		strh	r2, [r3, #38]	@ movhi
1160:Drivers/STM32F1xx_HAL_Driver/Src/stm32f1xx_hal_uart.c **** 
1161:Drivers/STM32F1xx_HAL_Driver/Src/stm32f1xx_hal_uart.c ****     /* In case of 9bits/No Parity transfer, pData needs to be handled as a uint16_t pointer */
1162:Drivers/STM32F1xx_HAL_Driver/Src/stm32f1xx_hal_uart.c ****     if ((huart->Init.WordLength == UART_WORDLENGTH_9B) && (huart->Init.Parity == UART_PARITY_NONE))
 808              		.loc 1 1162 21
 809 0050 FB68     		ldr	r3, [r7, #12]
 810 0052 9B68     		ldr	r3, [r3, #8]
 811              		.loc 1 1162 8
 812 0054 B3F5805F 		cmp	r3, #4096
 813 0058 08D1     		bne	.L27
 814              		.loc 1 1162 71 discriminator 1
 815 005a FB68     		ldr	r3, [r7, #12]
 816 005c 1B69     		ldr	r3, [r3, #16]
 817              		.loc 1 1162 56 discriminator 1
 818 005e 002B     		cmp	r3, #0
 819 0060 04D1     		bne	.L27
1163:Drivers/STM32F1xx_HAL_Driver/Src/stm32f1xx_hal_uart.c ****     {
1164:Drivers/STM32F1xx_HAL_Driver/Src/stm32f1xx_hal_uart.c ****       pdata8bits  = NULL;
 820              		.loc 1 1164 19
 821 0062 0023     		movs	r3, #0
 822 0064 FB61     		str	r3, [r7, #28]
1165:Drivers/STM32F1xx_HAL_Driver/Src/stm32f1xx_hal_uart.c ****       pdata16bits = (const uint16_t *) pData;
 823              		.loc 1 1165 19
 824 0066 BB68     		ldr	r3, [r7, #8]
 825 0068 BB61     		str	r3, [r7, #24]
 826 006a 03E0     		b	.L28
 827              	.L27:
1166:Drivers/STM32F1xx_HAL_Driver/Src/stm32f1xx_hal_uart.c ****     }
1167:Drivers/STM32F1xx_HAL_Driver/Src/stm32f1xx_hal_uart.c ****     else
1168:Drivers/STM32F1xx_HAL_Driver/Src/stm32f1xx_hal_uart.c ****     {
1169:Drivers/STM32F1xx_HAL_Driver/Src/stm32f1xx_hal_uart.c ****       pdata8bits  = pData;
 828              		.loc 1 1169 19
 829 006c BB68     		ldr	r3, [r7, #8]
 830 006e FB61     		str	r3, [r7, #28]
1170:Drivers/STM32F1xx_HAL_Driver/Src/stm32f1xx_hal_uart.c ****       pdata16bits = NULL;
 831              		.loc 1 1170 19
 832 0070 0023     		movs	r3, #0
 833 0072 BB61     		str	r3, [r7, #24]
 834              	.L28:
1171:Drivers/STM32F1xx_HAL_Driver/Src/stm32f1xx_hal_uart.c ****     }
1172:Drivers/STM32F1xx_HAL_Driver/Src/stm32f1xx_hal_uart.c **** 
1173:Drivers/STM32F1xx_HAL_Driver/Src/stm32f1xx_hal_uart.c ****     while (huart->TxXferCount > 0U)
 835              		.loc 1 1173 11
 836 0074 2AE0     		b	.L29
 837              	.L33:
ARM GAS  /tmp/cc17XZfc.s 			page 36


1174:Drivers/STM32F1xx_HAL_Driver/Src/stm32f1xx_hal_uart.c ****     {
1175:Drivers/STM32F1xx_HAL_Driver/Src/stm32f1xx_hal_uart.c ****       if (UART_WaitOnFlagUntilTimeout(huart, UART_FLAG_TXE, RESET, tickstart, Timeout) != HAL_OK)
 838              		.loc 1 1175 11
 839 0076 3B68     		ldr	r3, [r7]
 840 0078 0093     		str	r3, [sp]
 841 007a 7B69     		ldr	r3, [r7, #20]
 842 007c 0022     		movs	r2, #0
 843 007e 8021     		movs	r1, #128
 844 0080 F868     		ldr	r0, [r7, #12]
 845 0082 FFF7FEFF 		bl	UART_WaitOnFlagUntilTimeout
 846 0086 0346     		mov	r3, r0
 847              		.loc 1 1175 10
 848 0088 002B     		cmp	r3, #0
 849 008a 01D0     		beq	.L30
1176:Drivers/STM32F1xx_HAL_Driver/Src/stm32f1xx_hal_uart.c ****       {
1177:Drivers/STM32F1xx_HAL_Driver/Src/stm32f1xx_hal_uart.c ****         return HAL_TIMEOUT;
 850              		.loc 1 1177 16
 851 008c 0323     		movs	r3, #3
 852 008e 36E0     		b	.L26
 853              	.L30:
1178:Drivers/STM32F1xx_HAL_Driver/Src/stm32f1xx_hal_uart.c ****       }
1179:Drivers/STM32F1xx_HAL_Driver/Src/stm32f1xx_hal_uart.c ****       if (pdata8bits == NULL)
 854              		.loc 1 1179 10
 855 0090 FB69     		ldr	r3, [r7, #28]
 856 0092 002B     		cmp	r3, #0
 857 0094 0BD1     		bne	.L31
1180:Drivers/STM32F1xx_HAL_Driver/Src/stm32f1xx_hal_uart.c ****       {
1181:Drivers/STM32F1xx_HAL_Driver/Src/stm32f1xx_hal_uart.c ****         huart->Instance->DR = (uint16_t)(*pdata16bits & 0x01FFU);
 858              		.loc 1 1181 42
 859 0096 BB69     		ldr	r3, [r7, #24]
 860 0098 1B88     		ldrh	r3, [r3]
 861              		.loc 1 1181 31
 862 009a 1A46     		mov	r2, r3
 863              		.loc 1 1181 14
 864 009c FB68     		ldr	r3, [r7, #12]
 865 009e 1B68     		ldr	r3, [r3]
 866              		.loc 1 1181 31
 867 00a0 C2F30802 		ubfx	r2, r2, #0, #9
 868              		.loc 1 1181 29
 869 00a4 5A60     		str	r2, [r3, #4]
1182:Drivers/STM32F1xx_HAL_Driver/Src/stm32f1xx_hal_uart.c ****         pdata16bits++;
 870              		.loc 1 1182 20
 871 00a6 BB69     		ldr	r3, [r7, #24]
 872 00a8 0233     		adds	r3, r3, #2
 873 00aa BB61     		str	r3, [r7, #24]
 874 00ac 07E0     		b	.L32
 875              	.L31:
1183:Drivers/STM32F1xx_HAL_Driver/Src/stm32f1xx_hal_uart.c ****       }
1184:Drivers/STM32F1xx_HAL_Driver/Src/stm32f1xx_hal_uart.c ****       else
1185:Drivers/STM32F1xx_HAL_Driver/Src/stm32f1xx_hal_uart.c ****       {
1186:Drivers/STM32F1xx_HAL_Driver/Src/stm32f1xx_hal_uart.c ****         huart->Instance->DR = (uint8_t)(*pdata8bits & 0xFFU);
 876              		.loc 1 1186 41
 877 00ae FB69     		ldr	r3, [r7, #28]
 878 00b0 1A78     		ldrb	r2, [r3]	@ zero_extendqisi2
 879              		.loc 1 1186 14
 880 00b2 FB68     		ldr	r3, [r7, #12]
 881 00b4 1B68     		ldr	r3, [r3]
ARM GAS  /tmp/cc17XZfc.s 			page 37


 882              		.loc 1 1186 29
 883 00b6 5A60     		str	r2, [r3, #4]
1187:Drivers/STM32F1xx_HAL_Driver/Src/stm32f1xx_hal_uart.c ****         pdata8bits++;
 884              		.loc 1 1187 19
 885 00b8 FB69     		ldr	r3, [r7, #28]
 886 00ba 0133     		adds	r3, r3, #1
 887 00bc FB61     		str	r3, [r7, #28]
 888              	.L32:
1188:Drivers/STM32F1xx_HAL_Driver/Src/stm32f1xx_hal_uart.c ****       }
1189:Drivers/STM32F1xx_HAL_Driver/Src/stm32f1xx_hal_uart.c ****       huart->TxXferCount--;
 889              		.loc 1 1189 12
 890 00be FB68     		ldr	r3, [r7, #12]
 891 00c0 DB8C     		ldrh	r3, [r3, #38]	@ movhi
 892 00c2 9BB2     		uxth	r3, r3
 893              		.loc 1 1189 25
 894 00c4 013B     		subs	r3, r3, #1
 895 00c6 9AB2     		uxth	r2, r3
 896 00c8 FB68     		ldr	r3, [r7, #12]
 897 00ca DA84     		strh	r2, [r3, #38]	@ movhi
 898              	.L29:
1173:Drivers/STM32F1xx_HAL_Driver/Src/stm32f1xx_hal_uart.c ****     {
 899              		.loc 1 1173 17
 900 00cc FB68     		ldr	r3, [r7, #12]
 901 00ce DB8C     		ldrh	r3, [r3, #38]	@ movhi
 902 00d0 9BB2     		uxth	r3, r3
1173:Drivers/STM32F1xx_HAL_Driver/Src/stm32f1xx_hal_uart.c ****     {
 903              		.loc 1 1173 11
 904 00d2 002B     		cmp	r3, #0
 905 00d4 CFD1     		bne	.L33
1190:Drivers/STM32F1xx_HAL_Driver/Src/stm32f1xx_hal_uart.c ****     }
1191:Drivers/STM32F1xx_HAL_Driver/Src/stm32f1xx_hal_uart.c **** 
1192:Drivers/STM32F1xx_HAL_Driver/Src/stm32f1xx_hal_uart.c ****     if (UART_WaitOnFlagUntilTimeout(huart, UART_FLAG_TC, RESET, tickstart, Timeout) != HAL_OK)
 906              		.loc 1 1192 9
 907 00d6 3B68     		ldr	r3, [r7]
 908 00d8 0093     		str	r3, [sp]
 909 00da 7B69     		ldr	r3, [r7, #20]
 910 00dc 0022     		movs	r2, #0
 911 00de 4021     		movs	r1, #64
 912 00e0 F868     		ldr	r0, [r7, #12]
 913 00e2 FFF7FEFF 		bl	UART_WaitOnFlagUntilTimeout
 914 00e6 0346     		mov	r3, r0
 915              		.loc 1 1192 8
 916 00e8 002B     		cmp	r3, #0
 917 00ea 01D0     		beq	.L34
1193:Drivers/STM32F1xx_HAL_Driver/Src/stm32f1xx_hal_uart.c ****     {
1194:Drivers/STM32F1xx_HAL_Driver/Src/stm32f1xx_hal_uart.c ****       return HAL_TIMEOUT;
 918              		.loc 1 1194 14
 919 00ec 0323     		movs	r3, #3
 920 00ee 06E0     		b	.L26
 921              	.L34:
1195:Drivers/STM32F1xx_HAL_Driver/Src/stm32f1xx_hal_uart.c ****     }
1196:Drivers/STM32F1xx_HAL_Driver/Src/stm32f1xx_hal_uart.c **** 
1197:Drivers/STM32F1xx_HAL_Driver/Src/stm32f1xx_hal_uart.c ****     /* At end of Tx process, restore huart->gState to Ready */
1198:Drivers/STM32F1xx_HAL_Driver/Src/stm32f1xx_hal_uart.c ****     huart->gState = HAL_UART_STATE_READY;
 922              		.loc 1 1198 19
 923 00f0 FB68     		ldr	r3, [r7, #12]
 924 00f2 2022     		movs	r2, #32
ARM GAS  /tmp/cc17XZfc.s 			page 38


 925 00f4 83F84120 		strb	r2, [r3, #65]
1199:Drivers/STM32F1xx_HAL_Driver/Src/stm32f1xx_hal_uart.c **** 
1200:Drivers/STM32F1xx_HAL_Driver/Src/stm32f1xx_hal_uart.c ****     return HAL_OK;
 926              		.loc 1 1200 12
 927 00f8 0023     		movs	r3, #0
 928 00fa 00E0     		b	.L26
 929              	.L23:
1201:Drivers/STM32F1xx_HAL_Driver/Src/stm32f1xx_hal_uart.c ****   }
1202:Drivers/STM32F1xx_HAL_Driver/Src/stm32f1xx_hal_uart.c ****   else
1203:Drivers/STM32F1xx_HAL_Driver/Src/stm32f1xx_hal_uart.c ****   {
1204:Drivers/STM32F1xx_HAL_Driver/Src/stm32f1xx_hal_uart.c ****     return HAL_BUSY;
 930              		.loc 1 1204 12
 931 00fc 0223     		movs	r3, #2
 932              	.L26:
1205:Drivers/STM32F1xx_HAL_Driver/Src/stm32f1xx_hal_uart.c ****   }
1206:Drivers/STM32F1xx_HAL_Driver/Src/stm32f1xx_hal_uart.c **** }
 933              		.loc 1 1206 1
 934 00fe 1846     		mov	r0, r3
 935 0100 2037     		adds	r7, r7, #32
 936              	.LCFI40:
 937              		.cfi_def_cfa_offset 8
 938 0102 BD46     		mov	sp, r7
 939              	.LCFI41:
 940              		.cfi_def_cfa_register 13
 941              		@ sp needed
 942 0104 80BD     		pop	{r7, pc}
 943              		.cfi_endproc
 944              	.LFE72:
 946              		.section	.text.HAL_UART_Receive,"ax",%progbits
 947              		.align	1
 948              		.global	HAL_UART_Receive
 949              		.syntax unified
 950              		.thumb
 951              		.thumb_func
 953              	HAL_UART_Receive:
 954              	.LFB73:
1207:Drivers/STM32F1xx_HAL_Driver/Src/stm32f1xx_hal_uart.c **** 
1208:Drivers/STM32F1xx_HAL_Driver/Src/stm32f1xx_hal_uart.c **** /**
1209:Drivers/STM32F1xx_HAL_Driver/Src/stm32f1xx_hal_uart.c ****   * @brief  Receives an amount of data in blocking mode.
1210:Drivers/STM32F1xx_HAL_Driver/Src/stm32f1xx_hal_uart.c ****   * @note   When UART parity is not enabled (PCE = 0), and Word Length is configured to 9 bits (M1-
1211:Drivers/STM32F1xx_HAL_Driver/Src/stm32f1xx_hal_uart.c ****   *         the received data is handled as a set of u16. In this case, Size must indicate the numb
1212:Drivers/STM32F1xx_HAL_Driver/Src/stm32f1xx_hal_uart.c ****   *         of u16 available through pData.
1213:Drivers/STM32F1xx_HAL_Driver/Src/stm32f1xx_hal_uart.c ****   * @param  huart Pointer to a UART_HandleTypeDef structure that contains
1214:Drivers/STM32F1xx_HAL_Driver/Src/stm32f1xx_hal_uart.c ****   *               the configuration information for the specified UART module.
1215:Drivers/STM32F1xx_HAL_Driver/Src/stm32f1xx_hal_uart.c ****   * @param  pData Pointer to data buffer (u8 or u16 data elements).
1216:Drivers/STM32F1xx_HAL_Driver/Src/stm32f1xx_hal_uart.c ****   * @param  Size  Amount of data elements (u8 or u16) to be received.
1217:Drivers/STM32F1xx_HAL_Driver/Src/stm32f1xx_hal_uart.c ****   * @param  Timeout Timeout duration
1218:Drivers/STM32F1xx_HAL_Driver/Src/stm32f1xx_hal_uart.c ****   * @retval HAL status
1219:Drivers/STM32F1xx_HAL_Driver/Src/stm32f1xx_hal_uart.c ****   */
1220:Drivers/STM32F1xx_HAL_Driver/Src/stm32f1xx_hal_uart.c **** HAL_StatusTypeDef HAL_UART_Receive(UART_HandleTypeDef *huart, uint8_t *pData, uint16_t Size, uint32
1221:Drivers/STM32F1xx_HAL_Driver/Src/stm32f1xx_hal_uart.c **** {
 955              		.loc 1 1221 1
 956              		.cfi_startproc
 957              		@ args = 0, pretend = 0, frame = 32
 958              		@ frame_needed = 1, uses_anonymous_args = 0
 959 0000 80B5     		push	{r7, lr}
 960              	.LCFI42:
ARM GAS  /tmp/cc17XZfc.s 			page 39


 961              		.cfi_def_cfa_offset 8
 962              		.cfi_offset 7, -8
 963              		.cfi_offset 14, -4
 964 0002 8AB0     		sub	sp, sp, #40
 965              	.LCFI43:
 966              		.cfi_def_cfa_offset 48
 967 0004 02AF     		add	r7, sp, #8
 968              	.LCFI44:
 969              		.cfi_def_cfa 7, 40
 970 0006 F860     		str	r0, [r7, #12]
 971 0008 B960     		str	r1, [r7, #8]
 972 000a 3B60     		str	r3, [r7]
 973 000c 1346     		mov	r3, r2	@ movhi
 974 000e FB80     		strh	r3, [r7, #6]	@ movhi
1222:Drivers/STM32F1xx_HAL_Driver/Src/stm32f1xx_hal_uart.c ****   uint8_t  *pdata8bits;
1223:Drivers/STM32F1xx_HAL_Driver/Src/stm32f1xx_hal_uart.c ****   uint16_t *pdata16bits;
1224:Drivers/STM32F1xx_HAL_Driver/Src/stm32f1xx_hal_uart.c ****   uint32_t tickstart = 0U;
 975              		.loc 1 1224 12
 976 0010 0023     		movs	r3, #0
 977 0012 7B61     		str	r3, [r7, #20]
1225:Drivers/STM32F1xx_HAL_Driver/Src/stm32f1xx_hal_uart.c **** 
1226:Drivers/STM32F1xx_HAL_Driver/Src/stm32f1xx_hal_uart.c ****   /* Check that a Rx process is not already ongoing */
1227:Drivers/STM32F1xx_HAL_Driver/Src/stm32f1xx_hal_uart.c ****   if (huart->RxState == HAL_UART_STATE_READY)
 978              		.loc 1 1227 12
 979 0014 FB68     		ldr	r3, [r7, #12]
 980 0016 93F84230 		ldrb	r3, [r3, #66]
 981 001a DBB2     		uxtb	r3, r3
 982              		.loc 1 1227 6
 983 001c 202B     		cmp	r3, #32
 984 001e 7CD1     		bne	.L36
1228:Drivers/STM32F1xx_HAL_Driver/Src/stm32f1xx_hal_uart.c ****   {
1229:Drivers/STM32F1xx_HAL_Driver/Src/stm32f1xx_hal_uart.c ****     if ((pData == NULL) || (Size == 0U))
 985              		.loc 1 1229 8
 986 0020 BB68     		ldr	r3, [r7, #8]
 987 0022 002B     		cmp	r3, #0
 988 0024 02D0     		beq	.L37
 989              		.loc 1 1229 25 discriminator 1
 990 0026 FB88     		ldrh	r3, [r7, #6]
 991 0028 002B     		cmp	r3, #0
 992 002a 01D1     		bne	.L38
 993              	.L37:
1230:Drivers/STM32F1xx_HAL_Driver/Src/stm32f1xx_hal_uart.c ****     {
1231:Drivers/STM32F1xx_HAL_Driver/Src/stm32f1xx_hal_uart.c ****       return  HAL_ERROR;
 994              		.loc 1 1231 15
 995 002c 0123     		movs	r3, #1
 996 002e 75E0     		b	.L39
 997              	.L38:
1232:Drivers/STM32F1xx_HAL_Driver/Src/stm32f1xx_hal_uart.c ****     }
1233:Drivers/STM32F1xx_HAL_Driver/Src/stm32f1xx_hal_uart.c **** 
1234:Drivers/STM32F1xx_HAL_Driver/Src/stm32f1xx_hal_uart.c ****     huart->ErrorCode = HAL_UART_ERROR_NONE;
 998              		.loc 1 1234 22
 999 0030 FB68     		ldr	r3, [r7, #12]
 1000 0032 0022     		movs	r2, #0
 1001 0034 5A64     		str	r2, [r3, #68]
1235:Drivers/STM32F1xx_HAL_Driver/Src/stm32f1xx_hal_uart.c ****     huart->RxState = HAL_UART_STATE_BUSY_RX;
 1002              		.loc 1 1235 20
 1003 0036 FB68     		ldr	r3, [r7, #12]
ARM GAS  /tmp/cc17XZfc.s 			page 40


 1004 0038 2222     		movs	r2, #34
 1005 003a 83F84220 		strb	r2, [r3, #66]
1236:Drivers/STM32F1xx_HAL_Driver/Src/stm32f1xx_hal_uart.c ****     huart->ReceptionType = HAL_UART_RECEPTION_STANDARD;
 1006              		.loc 1 1236 26
 1007 003e FB68     		ldr	r3, [r7, #12]
 1008 0040 0022     		movs	r2, #0
 1009 0042 1A63     		str	r2, [r3, #48]
1237:Drivers/STM32F1xx_HAL_Driver/Src/stm32f1xx_hal_uart.c **** 
1238:Drivers/STM32F1xx_HAL_Driver/Src/stm32f1xx_hal_uart.c ****     /* Init tickstart for timeout management */
1239:Drivers/STM32F1xx_HAL_Driver/Src/stm32f1xx_hal_uart.c ****     tickstart = HAL_GetTick();
 1010              		.loc 1 1239 17
 1011 0044 FFF7FEFF 		bl	HAL_GetTick
 1012 0048 7861     		str	r0, [r7, #20]
1240:Drivers/STM32F1xx_HAL_Driver/Src/stm32f1xx_hal_uart.c **** 
1241:Drivers/STM32F1xx_HAL_Driver/Src/stm32f1xx_hal_uart.c ****     huart->RxXferSize = Size;
 1013              		.loc 1 1241 23
 1014 004a FB68     		ldr	r3, [r7, #12]
 1015 004c FA88     		ldrh	r2, [r7, #6]	@ movhi
 1016 004e 9A85     		strh	r2, [r3, #44]	@ movhi
1242:Drivers/STM32F1xx_HAL_Driver/Src/stm32f1xx_hal_uart.c ****     huart->RxXferCount = Size;
 1017              		.loc 1 1242 24
 1018 0050 FB68     		ldr	r3, [r7, #12]
 1019 0052 FA88     		ldrh	r2, [r7, #6]	@ movhi
 1020 0054 DA85     		strh	r2, [r3, #46]	@ movhi
1243:Drivers/STM32F1xx_HAL_Driver/Src/stm32f1xx_hal_uart.c **** 
1244:Drivers/STM32F1xx_HAL_Driver/Src/stm32f1xx_hal_uart.c ****     /* In case of 9bits/No Parity transfer, pRxData needs to be handled as a uint16_t pointer */
1245:Drivers/STM32F1xx_HAL_Driver/Src/stm32f1xx_hal_uart.c ****     if ((huart->Init.WordLength == UART_WORDLENGTH_9B) && (huart->Init.Parity == UART_PARITY_NONE))
 1021              		.loc 1 1245 21
 1022 0056 FB68     		ldr	r3, [r7, #12]
 1023 0058 9B68     		ldr	r3, [r3, #8]
 1024              		.loc 1 1245 8
 1025 005a B3F5805F 		cmp	r3, #4096
 1026 005e 08D1     		bne	.L40
 1027              		.loc 1 1245 71 discriminator 1
 1028 0060 FB68     		ldr	r3, [r7, #12]
 1029 0062 1B69     		ldr	r3, [r3, #16]
 1030              		.loc 1 1245 56 discriminator 1
 1031 0064 002B     		cmp	r3, #0
 1032 0066 04D1     		bne	.L40
1246:Drivers/STM32F1xx_HAL_Driver/Src/stm32f1xx_hal_uart.c ****     {
1247:Drivers/STM32F1xx_HAL_Driver/Src/stm32f1xx_hal_uart.c ****       pdata8bits  = NULL;
 1033              		.loc 1 1247 19
 1034 0068 0023     		movs	r3, #0
 1035 006a FB61     		str	r3, [r7, #28]
1248:Drivers/STM32F1xx_HAL_Driver/Src/stm32f1xx_hal_uart.c ****       pdata16bits = (uint16_t *) pData;
 1036              		.loc 1 1248 19
 1037 006c BB68     		ldr	r3, [r7, #8]
 1038 006e BB61     		str	r3, [r7, #24]
 1039 0070 03E0     		b	.L41
 1040              	.L40:
1249:Drivers/STM32F1xx_HAL_Driver/Src/stm32f1xx_hal_uart.c ****     }
1250:Drivers/STM32F1xx_HAL_Driver/Src/stm32f1xx_hal_uart.c ****     else
1251:Drivers/STM32F1xx_HAL_Driver/Src/stm32f1xx_hal_uart.c ****     {
1252:Drivers/STM32F1xx_HAL_Driver/Src/stm32f1xx_hal_uart.c ****       pdata8bits  = pData;
 1041              		.loc 1 1252 19
 1042 0072 BB68     		ldr	r3, [r7, #8]
 1043 0074 FB61     		str	r3, [r7, #28]
ARM GAS  /tmp/cc17XZfc.s 			page 41


1253:Drivers/STM32F1xx_HAL_Driver/Src/stm32f1xx_hal_uart.c ****       pdata16bits = NULL;
 1044              		.loc 1 1253 19
 1045 0076 0023     		movs	r3, #0
 1046 0078 BB61     		str	r3, [r7, #24]
 1047              	.L41:
1254:Drivers/STM32F1xx_HAL_Driver/Src/stm32f1xx_hal_uart.c ****     }
1255:Drivers/STM32F1xx_HAL_Driver/Src/stm32f1xx_hal_uart.c **** 
1256:Drivers/STM32F1xx_HAL_Driver/Src/stm32f1xx_hal_uart.c ****     /* Check the remain data to be received */
1257:Drivers/STM32F1xx_HAL_Driver/Src/stm32f1xx_hal_uart.c ****     while (huart->RxXferCount > 0U)
 1048              		.loc 1 1257 11
 1049 007a 43E0     		b	.L42
 1050              	.L49:
1258:Drivers/STM32F1xx_HAL_Driver/Src/stm32f1xx_hal_uart.c ****     {
1259:Drivers/STM32F1xx_HAL_Driver/Src/stm32f1xx_hal_uart.c ****       if (UART_WaitOnFlagUntilTimeout(huart, UART_FLAG_RXNE, RESET, tickstart, Timeout) != HAL_OK)
 1051              		.loc 1 1259 11
 1052 007c 3B68     		ldr	r3, [r7]
 1053 007e 0093     		str	r3, [sp]
 1054 0080 7B69     		ldr	r3, [r7, #20]
 1055 0082 0022     		movs	r2, #0
 1056 0084 2021     		movs	r1, #32
 1057 0086 F868     		ldr	r0, [r7, #12]
 1058 0088 FFF7FEFF 		bl	UART_WaitOnFlagUntilTimeout
 1059 008c 0346     		mov	r3, r0
 1060              		.loc 1 1259 10
 1061 008e 002B     		cmp	r3, #0
 1062 0090 01D0     		beq	.L43
1260:Drivers/STM32F1xx_HAL_Driver/Src/stm32f1xx_hal_uart.c ****       {
1261:Drivers/STM32F1xx_HAL_Driver/Src/stm32f1xx_hal_uart.c ****         return HAL_TIMEOUT;
 1063              		.loc 1 1261 16
 1064 0092 0323     		movs	r3, #3
 1065 0094 42E0     		b	.L39
 1066              	.L43:
1262:Drivers/STM32F1xx_HAL_Driver/Src/stm32f1xx_hal_uart.c ****       }
1263:Drivers/STM32F1xx_HAL_Driver/Src/stm32f1xx_hal_uart.c ****       if (pdata8bits == NULL)
 1067              		.loc 1 1263 10
 1068 0096 FB69     		ldr	r3, [r7, #28]
 1069 0098 002B     		cmp	r3, #0
 1070 009a 0CD1     		bne	.L44
1264:Drivers/STM32F1xx_HAL_Driver/Src/stm32f1xx_hal_uart.c ****       {
1265:Drivers/STM32F1xx_HAL_Driver/Src/stm32f1xx_hal_uart.c ****         *pdata16bits = (uint16_t)(huart->Instance->DR & 0x01FF);
 1071              		.loc 1 1265 40
 1072 009c FB68     		ldr	r3, [r7, #12]
 1073 009e 1B68     		ldr	r3, [r3]
 1074              		.loc 1 1265 50
 1075 00a0 5B68     		ldr	r3, [r3, #4]
 1076              		.loc 1 1265 24
 1077 00a2 9BB2     		uxth	r3, r3
 1078 00a4 C3F30803 		ubfx	r3, r3, #0, #9
 1079 00a8 9AB2     		uxth	r2, r3
 1080              		.loc 1 1265 22
 1081 00aa BB69     		ldr	r3, [r7, #24]
 1082 00ac 1A80     		strh	r2, [r3]	@ movhi
1266:Drivers/STM32F1xx_HAL_Driver/Src/stm32f1xx_hal_uart.c ****         pdata16bits++;
 1083              		.loc 1 1266 20
 1084 00ae BB69     		ldr	r3, [r7, #24]
 1085 00b0 0233     		adds	r3, r3, #2
 1086 00b2 BB61     		str	r3, [r7, #24]
ARM GAS  /tmp/cc17XZfc.s 			page 42


 1087 00b4 1FE0     		b	.L45
 1088              	.L44:
1267:Drivers/STM32F1xx_HAL_Driver/Src/stm32f1xx_hal_uart.c ****       }
1268:Drivers/STM32F1xx_HAL_Driver/Src/stm32f1xx_hal_uart.c ****       else
1269:Drivers/STM32F1xx_HAL_Driver/Src/stm32f1xx_hal_uart.c ****       {
1270:Drivers/STM32F1xx_HAL_Driver/Src/stm32f1xx_hal_uart.c ****         if ((huart->Init.WordLength == UART_WORDLENGTH_9B) || ((huart->Init.WordLength == UART_WORD
 1089              		.loc 1 1270 25
 1090 00b6 FB68     		ldr	r3, [r7, #12]
 1091 00b8 9B68     		ldr	r3, [r3, #8]
 1092              		.loc 1 1270 12
 1093 00ba B3F5805F 		cmp	r3, #4096
 1094 00be 07D0     		beq	.L46
 1095              		.loc 1 1270 76 discriminator 1
 1096 00c0 FB68     		ldr	r3, [r7, #12]
 1097 00c2 9B68     		ldr	r3, [r3, #8]
 1098              		.loc 1 1270 60 discriminator 1
 1099 00c4 002B     		cmp	r3, #0
 1100 00c6 0AD1     		bne	.L47
 1101              		.loc 1 1270 126 discriminator 2
 1102 00c8 FB68     		ldr	r3, [r7, #12]
 1103 00ca 1B69     		ldr	r3, [r3, #16]
 1104              		.loc 1 1270 111 discriminator 2
 1105 00cc 002B     		cmp	r3, #0
 1106 00ce 06D1     		bne	.L47
 1107              	.L46:
1271:Drivers/STM32F1xx_HAL_Driver/Src/stm32f1xx_hal_uart.c ****         {
1272:Drivers/STM32F1xx_HAL_Driver/Src/stm32f1xx_hal_uart.c ****           *pdata8bits = (uint8_t)(huart->Instance->DR & (uint8_t)0x00FF);
 1108              		.loc 1 1272 40
 1109 00d0 FB68     		ldr	r3, [r7, #12]
 1110 00d2 1B68     		ldr	r3, [r3]
 1111              		.loc 1 1272 50
 1112 00d4 5B68     		ldr	r3, [r3, #4]
 1113              		.loc 1 1272 25
 1114 00d6 DAB2     		uxtb	r2, r3
 1115              		.loc 1 1272 23
 1116 00d8 FB69     		ldr	r3, [r7, #28]
 1117 00da 1A70     		strb	r2, [r3]
 1118 00dc 08E0     		b	.L48
 1119              	.L47:
1273:Drivers/STM32F1xx_HAL_Driver/Src/stm32f1xx_hal_uart.c ****         }
1274:Drivers/STM32F1xx_HAL_Driver/Src/stm32f1xx_hal_uart.c ****         else
1275:Drivers/STM32F1xx_HAL_Driver/Src/stm32f1xx_hal_uart.c ****         {
1276:Drivers/STM32F1xx_HAL_Driver/Src/stm32f1xx_hal_uart.c ****           *pdata8bits = (uint8_t)(huart->Instance->DR & (uint8_t)0x007F);
 1120              		.loc 1 1276 40
 1121 00de FB68     		ldr	r3, [r7, #12]
 1122 00e0 1B68     		ldr	r3, [r3]
 1123              		.loc 1 1276 50
 1124 00e2 5B68     		ldr	r3, [r3, #4]
 1125              		.loc 1 1276 25
 1126 00e4 DBB2     		uxtb	r3, r3
 1127 00e6 03F07F03 		and	r3, r3, #127
 1128 00ea DAB2     		uxtb	r2, r3
 1129              		.loc 1 1276 23
 1130 00ec FB69     		ldr	r3, [r7, #28]
 1131 00ee 1A70     		strb	r2, [r3]
 1132              	.L48:
1277:Drivers/STM32F1xx_HAL_Driver/Src/stm32f1xx_hal_uart.c ****         }
ARM GAS  /tmp/cc17XZfc.s 			page 43


1278:Drivers/STM32F1xx_HAL_Driver/Src/stm32f1xx_hal_uart.c ****         pdata8bits++;
 1133              		.loc 1 1278 19
 1134 00f0 FB69     		ldr	r3, [r7, #28]
 1135 00f2 0133     		adds	r3, r3, #1
 1136 00f4 FB61     		str	r3, [r7, #28]
 1137              	.L45:
1279:Drivers/STM32F1xx_HAL_Driver/Src/stm32f1xx_hal_uart.c ****       }
1280:Drivers/STM32F1xx_HAL_Driver/Src/stm32f1xx_hal_uart.c ****       huart->RxXferCount--;
 1138              		.loc 1 1280 12
 1139 00f6 FB68     		ldr	r3, [r7, #12]
 1140 00f8 DB8D     		ldrh	r3, [r3, #46]	@ movhi
 1141 00fa 9BB2     		uxth	r3, r3
 1142              		.loc 1 1280 25
 1143 00fc 013B     		subs	r3, r3, #1
 1144 00fe 9AB2     		uxth	r2, r3
 1145 0100 FB68     		ldr	r3, [r7, #12]
 1146 0102 DA85     		strh	r2, [r3, #46]	@ movhi
 1147              	.L42:
1257:Drivers/STM32F1xx_HAL_Driver/Src/stm32f1xx_hal_uart.c ****     {
 1148              		.loc 1 1257 17
 1149 0104 FB68     		ldr	r3, [r7, #12]
 1150 0106 DB8D     		ldrh	r3, [r3, #46]	@ movhi
 1151 0108 9BB2     		uxth	r3, r3
1257:Drivers/STM32F1xx_HAL_Driver/Src/stm32f1xx_hal_uart.c ****     {
 1152              		.loc 1 1257 11
 1153 010a 002B     		cmp	r3, #0
 1154 010c B6D1     		bne	.L49
1281:Drivers/STM32F1xx_HAL_Driver/Src/stm32f1xx_hal_uart.c ****     }
1282:Drivers/STM32F1xx_HAL_Driver/Src/stm32f1xx_hal_uart.c **** 
1283:Drivers/STM32F1xx_HAL_Driver/Src/stm32f1xx_hal_uart.c ****     /* At end of Rx process, restore huart->RxState to Ready */
1284:Drivers/STM32F1xx_HAL_Driver/Src/stm32f1xx_hal_uart.c ****     huart->RxState = HAL_UART_STATE_READY;
 1155              		.loc 1 1284 20
 1156 010e FB68     		ldr	r3, [r7, #12]
 1157 0110 2022     		movs	r2, #32
 1158 0112 83F84220 		strb	r2, [r3, #66]
1285:Drivers/STM32F1xx_HAL_Driver/Src/stm32f1xx_hal_uart.c **** 
1286:Drivers/STM32F1xx_HAL_Driver/Src/stm32f1xx_hal_uart.c ****     return HAL_OK;
 1159              		.loc 1 1286 12
 1160 0116 0023     		movs	r3, #0
 1161 0118 00E0     		b	.L39
 1162              	.L36:
1287:Drivers/STM32F1xx_HAL_Driver/Src/stm32f1xx_hal_uart.c ****   }
1288:Drivers/STM32F1xx_HAL_Driver/Src/stm32f1xx_hal_uart.c ****   else
1289:Drivers/STM32F1xx_HAL_Driver/Src/stm32f1xx_hal_uart.c ****   {
1290:Drivers/STM32F1xx_HAL_Driver/Src/stm32f1xx_hal_uart.c ****     return HAL_BUSY;
 1163              		.loc 1 1290 12
 1164 011a 0223     		movs	r3, #2
 1165              	.L39:
1291:Drivers/STM32F1xx_HAL_Driver/Src/stm32f1xx_hal_uart.c ****   }
1292:Drivers/STM32F1xx_HAL_Driver/Src/stm32f1xx_hal_uart.c **** }
 1166              		.loc 1 1292 1
 1167 011c 1846     		mov	r0, r3
 1168 011e 2037     		adds	r7, r7, #32
 1169              	.LCFI45:
 1170              		.cfi_def_cfa_offset 8
 1171 0120 BD46     		mov	sp, r7
 1172              	.LCFI46:
ARM GAS  /tmp/cc17XZfc.s 			page 44


 1173              		.cfi_def_cfa_register 13
 1174              		@ sp needed
 1175 0122 80BD     		pop	{r7, pc}
 1176              		.cfi_endproc
 1177              	.LFE73:
 1179              		.section	.text.HAL_UART_Transmit_IT,"ax",%progbits
 1180              		.align	1
 1181              		.global	HAL_UART_Transmit_IT
 1182              		.syntax unified
 1183              		.thumb
 1184              		.thumb_func
 1186              	HAL_UART_Transmit_IT:
 1187              	.LFB74:
1293:Drivers/STM32F1xx_HAL_Driver/Src/stm32f1xx_hal_uart.c **** 
1294:Drivers/STM32F1xx_HAL_Driver/Src/stm32f1xx_hal_uart.c **** /**
1295:Drivers/STM32F1xx_HAL_Driver/Src/stm32f1xx_hal_uart.c ****   * @brief  Sends an amount of data in non blocking mode.
1296:Drivers/STM32F1xx_HAL_Driver/Src/stm32f1xx_hal_uart.c ****   * @note   When UART parity is not enabled (PCE = 0), and Word Length is configured to 9 bits (M1-
1297:Drivers/STM32F1xx_HAL_Driver/Src/stm32f1xx_hal_uart.c ****   *         the sent data is handled as a set of u16. In this case, Size must indicate the number
1298:Drivers/STM32F1xx_HAL_Driver/Src/stm32f1xx_hal_uart.c ****   *         of u16 provided through pData.
1299:Drivers/STM32F1xx_HAL_Driver/Src/stm32f1xx_hal_uart.c ****   * @param  huart Pointer to a UART_HandleTypeDef structure that contains
1300:Drivers/STM32F1xx_HAL_Driver/Src/stm32f1xx_hal_uart.c ****   *               the configuration information for the specified UART module.
1301:Drivers/STM32F1xx_HAL_Driver/Src/stm32f1xx_hal_uart.c ****   * @param  pData Pointer to data buffer (u8 or u16 data elements).
1302:Drivers/STM32F1xx_HAL_Driver/Src/stm32f1xx_hal_uart.c ****   * @param  Size  Amount of data elements (u8 or u16) to be sent
1303:Drivers/STM32F1xx_HAL_Driver/Src/stm32f1xx_hal_uart.c ****   * @retval HAL status
1304:Drivers/STM32F1xx_HAL_Driver/Src/stm32f1xx_hal_uart.c ****   */
1305:Drivers/STM32F1xx_HAL_Driver/Src/stm32f1xx_hal_uart.c **** HAL_StatusTypeDef HAL_UART_Transmit_IT(UART_HandleTypeDef *huart, const uint8_t *pData, uint16_t Si
1306:Drivers/STM32F1xx_HAL_Driver/Src/stm32f1xx_hal_uart.c **** {
 1188              		.loc 1 1306 1
 1189              		.cfi_startproc
 1190              		@ args = 0, pretend = 0, frame = 16
 1191              		@ frame_needed = 1, uses_anonymous_args = 0
 1192              		@ link register save eliminated.
 1193 0000 80B4     		push	{r7}
 1194              	.LCFI47:
 1195              		.cfi_def_cfa_offset 4
 1196              		.cfi_offset 7, -4
 1197 0002 85B0     		sub	sp, sp, #20
 1198              	.LCFI48:
 1199              		.cfi_def_cfa_offset 24
 1200 0004 00AF     		add	r7, sp, #0
 1201              	.LCFI49:
 1202              		.cfi_def_cfa_register 7
 1203 0006 F860     		str	r0, [r7, #12]
 1204 0008 B960     		str	r1, [r7, #8]
 1205 000a 1346     		mov	r3, r2
 1206 000c FB80     		strh	r3, [r7, #6]	@ movhi
1307:Drivers/STM32F1xx_HAL_Driver/Src/stm32f1xx_hal_uart.c ****   /* Check that a Tx process is not already ongoing */
1308:Drivers/STM32F1xx_HAL_Driver/Src/stm32f1xx_hal_uart.c ****   if (huart->gState == HAL_UART_STATE_READY)
 1207              		.loc 1 1308 12
 1208 000e FB68     		ldr	r3, [r7, #12]
 1209 0010 93F84130 		ldrb	r3, [r3, #65]
 1210 0014 DBB2     		uxtb	r3, r3
 1211              		.loc 1 1308 6
 1212 0016 202B     		cmp	r3, #32
 1213 0018 21D1     		bne	.L51
1309:Drivers/STM32F1xx_HAL_Driver/Src/stm32f1xx_hal_uart.c ****   {
1310:Drivers/STM32F1xx_HAL_Driver/Src/stm32f1xx_hal_uart.c ****     if ((pData == NULL) || (Size == 0U))
ARM GAS  /tmp/cc17XZfc.s 			page 45


 1214              		.loc 1 1310 8
 1215 001a BB68     		ldr	r3, [r7, #8]
 1216 001c 002B     		cmp	r3, #0
 1217 001e 02D0     		beq	.L52
 1218              		.loc 1 1310 25 discriminator 1
 1219 0020 FB88     		ldrh	r3, [r7, #6]
 1220 0022 002B     		cmp	r3, #0
 1221 0024 01D1     		bne	.L53
 1222              	.L52:
1311:Drivers/STM32F1xx_HAL_Driver/Src/stm32f1xx_hal_uart.c ****     {
1312:Drivers/STM32F1xx_HAL_Driver/Src/stm32f1xx_hal_uart.c ****       return HAL_ERROR;
 1223              		.loc 1 1312 14
 1224 0026 0123     		movs	r3, #1
 1225 0028 1AE0     		b	.L54
 1226              	.L53:
1313:Drivers/STM32F1xx_HAL_Driver/Src/stm32f1xx_hal_uart.c ****     }
1314:Drivers/STM32F1xx_HAL_Driver/Src/stm32f1xx_hal_uart.c **** 
1315:Drivers/STM32F1xx_HAL_Driver/Src/stm32f1xx_hal_uart.c ****     huart->pTxBuffPtr = pData;
 1227              		.loc 1 1315 23
 1228 002a FB68     		ldr	r3, [r7, #12]
 1229 002c BA68     		ldr	r2, [r7, #8]
 1230 002e 1A62     		str	r2, [r3, #32]
1316:Drivers/STM32F1xx_HAL_Driver/Src/stm32f1xx_hal_uart.c ****     huart->TxXferSize = Size;
 1231              		.loc 1 1316 23
 1232 0030 FB68     		ldr	r3, [r7, #12]
 1233 0032 FA88     		ldrh	r2, [r7, #6]	@ movhi
 1234 0034 9A84     		strh	r2, [r3, #36]	@ movhi
1317:Drivers/STM32F1xx_HAL_Driver/Src/stm32f1xx_hal_uart.c ****     huart->TxXferCount = Size;
 1235              		.loc 1 1317 24
 1236 0036 FB68     		ldr	r3, [r7, #12]
 1237 0038 FA88     		ldrh	r2, [r7, #6]	@ movhi
 1238 003a DA84     		strh	r2, [r3, #38]	@ movhi
1318:Drivers/STM32F1xx_HAL_Driver/Src/stm32f1xx_hal_uart.c **** 
1319:Drivers/STM32F1xx_HAL_Driver/Src/stm32f1xx_hal_uart.c ****     huart->ErrorCode = HAL_UART_ERROR_NONE;
 1239              		.loc 1 1319 22
 1240 003c FB68     		ldr	r3, [r7, #12]
 1241 003e 0022     		movs	r2, #0
 1242 0040 5A64     		str	r2, [r3, #68]
1320:Drivers/STM32F1xx_HAL_Driver/Src/stm32f1xx_hal_uart.c ****     huart->gState = HAL_UART_STATE_BUSY_TX;
 1243              		.loc 1 1320 19
 1244 0042 FB68     		ldr	r3, [r7, #12]
 1245 0044 2122     		movs	r2, #33
 1246 0046 83F84120 		strb	r2, [r3, #65]
1321:Drivers/STM32F1xx_HAL_Driver/Src/stm32f1xx_hal_uart.c **** 
1322:Drivers/STM32F1xx_HAL_Driver/Src/stm32f1xx_hal_uart.c ****     /* Enable the UART Transmit data register empty Interrupt */
1323:Drivers/STM32F1xx_HAL_Driver/Src/stm32f1xx_hal_uart.c ****     __HAL_UART_ENABLE_IT(huart, UART_IT_TXE);
 1247              		.loc 1 1323 5
 1248 004a FB68     		ldr	r3, [r7, #12]
 1249 004c 1B68     		ldr	r3, [r3]
 1250 004e DA68     		ldr	r2, [r3, #12]
 1251 0050 FB68     		ldr	r3, [r7, #12]
 1252 0052 1B68     		ldr	r3, [r3]
 1253 0054 42F08002 		orr	r2, r2, #128
 1254 0058 DA60     		str	r2, [r3, #12]
1324:Drivers/STM32F1xx_HAL_Driver/Src/stm32f1xx_hal_uart.c **** 
1325:Drivers/STM32F1xx_HAL_Driver/Src/stm32f1xx_hal_uart.c ****     return HAL_OK;
 1255              		.loc 1 1325 12
ARM GAS  /tmp/cc17XZfc.s 			page 46


 1256 005a 0023     		movs	r3, #0
 1257 005c 00E0     		b	.L54
 1258              	.L51:
1326:Drivers/STM32F1xx_HAL_Driver/Src/stm32f1xx_hal_uart.c ****   }
1327:Drivers/STM32F1xx_HAL_Driver/Src/stm32f1xx_hal_uart.c ****   else
1328:Drivers/STM32F1xx_HAL_Driver/Src/stm32f1xx_hal_uart.c ****   {
1329:Drivers/STM32F1xx_HAL_Driver/Src/stm32f1xx_hal_uart.c ****     return HAL_BUSY;
 1259              		.loc 1 1329 12
 1260 005e 0223     		movs	r3, #2
 1261              	.L54:
1330:Drivers/STM32F1xx_HAL_Driver/Src/stm32f1xx_hal_uart.c ****   }
1331:Drivers/STM32F1xx_HAL_Driver/Src/stm32f1xx_hal_uart.c **** }
 1262              		.loc 1 1331 1
 1263 0060 1846     		mov	r0, r3
 1264 0062 1437     		adds	r7, r7, #20
 1265              	.LCFI50:
 1266              		.cfi_def_cfa_offset 4
 1267 0064 BD46     		mov	sp, r7
 1268              	.LCFI51:
 1269              		.cfi_def_cfa_register 13
 1270              		@ sp needed
 1271 0066 80BC     		pop	{r7}
 1272              	.LCFI52:
 1273              		.cfi_restore 7
 1274              		.cfi_def_cfa_offset 0
 1275 0068 7047     		bx	lr
 1276              		.cfi_endproc
 1277              	.LFE74:
 1279              		.section	.text.HAL_UART_Receive_IT,"ax",%progbits
 1280              		.align	1
 1281              		.global	HAL_UART_Receive_IT
 1282              		.syntax unified
 1283              		.thumb
 1284              		.thumb_func
 1286              	HAL_UART_Receive_IT:
 1287              	.LFB75:
1332:Drivers/STM32F1xx_HAL_Driver/Src/stm32f1xx_hal_uart.c **** 
1333:Drivers/STM32F1xx_HAL_Driver/Src/stm32f1xx_hal_uart.c **** /**
1334:Drivers/STM32F1xx_HAL_Driver/Src/stm32f1xx_hal_uart.c ****   * @brief  Receives an amount of data in non blocking mode.
1335:Drivers/STM32F1xx_HAL_Driver/Src/stm32f1xx_hal_uart.c ****   * @note   When UART parity is not enabled (PCE = 0), and Word Length is configured to 9 bits (M1-
1336:Drivers/STM32F1xx_HAL_Driver/Src/stm32f1xx_hal_uart.c ****   *         the received data is handled as a set of u16. In this case, Size must indicate the numb
1337:Drivers/STM32F1xx_HAL_Driver/Src/stm32f1xx_hal_uart.c ****   *         of u16 available through pData.
1338:Drivers/STM32F1xx_HAL_Driver/Src/stm32f1xx_hal_uart.c ****   * @param  huart Pointer to a UART_HandleTypeDef structure that contains
1339:Drivers/STM32F1xx_HAL_Driver/Src/stm32f1xx_hal_uart.c ****   *               the configuration information for the specified UART module.
1340:Drivers/STM32F1xx_HAL_Driver/Src/stm32f1xx_hal_uart.c ****   * @param  pData Pointer to data buffer (u8 or u16 data elements).
1341:Drivers/STM32F1xx_HAL_Driver/Src/stm32f1xx_hal_uart.c ****   * @param  Size  Amount of data elements (u8 or u16) to be received.
1342:Drivers/STM32F1xx_HAL_Driver/Src/stm32f1xx_hal_uart.c ****   * @retval HAL status
1343:Drivers/STM32F1xx_HAL_Driver/Src/stm32f1xx_hal_uart.c ****   */
1344:Drivers/STM32F1xx_HAL_Driver/Src/stm32f1xx_hal_uart.c **** HAL_StatusTypeDef HAL_UART_Receive_IT(UART_HandleTypeDef *huart, uint8_t *pData, uint16_t Size)
1345:Drivers/STM32F1xx_HAL_Driver/Src/stm32f1xx_hal_uart.c **** {
 1288              		.loc 1 1345 1
 1289              		.cfi_startproc
 1290              		@ args = 0, pretend = 0, frame = 16
 1291              		@ frame_needed = 1, uses_anonymous_args = 0
 1292 0000 80B5     		push	{r7, lr}
 1293              	.LCFI53:
 1294              		.cfi_def_cfa_offset 8
ARM GAS  /tmp/cc17XZfc.s 			page 47


 1295              		.cfi_offset 7, -8
 1296              		.cfi_offset 14, -4
 1297 0002 84B0     		sub	sp, sp, #16
 1298              	.LCFI54:
 1299              		.cfi_def_cfa_offset 24
 1300 0004 00AF     		add	r7, sp, #0
 1301              	.LCFI55:
 1302              		.cfi_def_cfa_register 7
 1303 0006 F860     		str	r0, [r7, #12]
 1304 0008 B960     		str	r1, [r7, #8]
 1305 000a 1346     		mov	r3, r2
 1306 000c FB80     		strh	r3, [r7, #6]	@ movhi
1346:Drivers/STM32F1xx_HAL_Driver/Src/stm32f1xx_hal_uart.c ****   /* Check that a Rx process is not already ongoing */
1347:Drivers/STM32F1xx_HAL_Driver/Src/stm32f1xx_hal_uart.c ****   if (huart->RxState == HAL_UART_STATE_READY)
 1307              		.loc 1 1347 12
 1308 000e FB68     		ldr	r3, [r7, #12]
 1309 0010 93F84230 		ldrb	r3, [r3, #66]
 1310 0014 DBB2     		uxtb	r3, r3
 1311              		.loc 1 1347 6
 1312 0016 202B     		cmp	r3, #32
 1313 0018 12D1     		bne	.L56
1348:Drivers/STM32F1xx_HAL_Driver/Src/stm32f1xx_hal_uart.c ****   {
1349:Drivers/STM32F1xx_HAL_Driver/Src/stm32f1xx_hal_uart.c ****     if ((pData == NULL) || (Size == 0U))
 1314              		.loc 1 1349 8
 1315 001a BB68     		ldr	r3, [r7, #8]
 1316 001c 002B     		cmp	r3, #0
 1317 001e 02D0     		beq	.L57
 1318              		.loc 1 1349 25 discriminator 1
 1319 0020 FB88     		ldrh	r3, [r7, #6]
 1320 0022 002B     		cmp	r3, #0
 1321 0024 01D1     		bne	.L58
 1322              	.L57:
1350:Drivers/STM32F1xx_HAL_Driver/Src/stm32f1xx_hal_uart.c ****     {
1351:Drivers/STM32F1xx_HAL_Driver/Src/stm32f1xx_hal_uart.c ****       return HAL_ERROR;
 1323              		.loc 1 1351 14
 1324 0026 0123     		movs	r3, #1
 1325 0028 0BE0     		b	.L59
 1326              	.L58:
1352:Drivers/STM32F1xx_HAL_Driver/Src/stm32f1xx_hal_uart.c ****     }
1353:Drivers/STM32F1xx_HAL_Driver/Src/stm32f1xx_hal_uart.c **** 
1354:Drivers/STM32F1xx_HAL_Driver/Src/stm32f1xx_hal_uart.c ****     /* Set Reception type to Standard reception */
1355:Drivers/STM32F1xx_HAL_Driver/Src/stm32f1xx_hal_uart.c ****     huart->ReceptionType = HAL_UART_RECEPTION_STANDARD;
 1327              		.loc 1 1355 26
 1328 002a FB68     		ldr	r3, [r7, #12]
 1329 002c 0022     		movs	r2, #0
 1330 002e 1A63     		str	r2, [r3, #48]
1356:Drivers/STM32F1xx_HAL_Driver/Src/stm32f1xx_hal_uart.c **** 
1357:Drivers/STM32F1xx_HAL_Driver/Src/stm32f1xx_hal_uart.c ****     return (UART_Start_Receive_IT(huart, pData, Size));
 1331              		.loc 1 1357 13
 1332 0030 FB88     		ldrh	r3, [r7, #6]
 1333 0032 1A46     		mov	r2, r3
 1334 0034 B968     		ldr	r1, [r7, #8]
 1335 0036 F868     		ldr	r0, [r7, #12]
 1336 0038 FFF7FEFF 		bl	UART_Start_Receive_IT
 1337 003c 0346     		mov	r3, r0
 1338 003e 00E0     		b	.L59
 1339              	.L56:
ARM GAS  /tmp/cc17XZfc.s 			page 48


1358:Drivers/STM32F1xx_HAL_Driver/Src/stm32f1xx_hal_uart.c ****   }
1359:Drivers/STM32F1xx_HAL_Driver/Src/stm32f1xx_hal_uart.c ****   else
1360:Drivers/STM32F1xx_HAL_Driver/Src/stm32f1xx_hal_uart.c ****   {
1361:Drivers/STM32F1xx_HAL_Driver/Src/stm32f1xx_hal_uart.c ****     return HAL_BUSY;
 1340              		.loc 1 1361 12
 1341 0040 0223     		movs	r3, #2
 1342              	.L59:
1362:Drivers/STM32F1xx_HAL_Driver/Src/stm32f1xx_hal_uart.c ****   }
1363:Drivers/STM32F1xx_HAL_Driver/Src/stm32f1xx_hal_uart.c **** }
 1343              		.loc 1 1363 1
 1344 0042 1846     		mov	r0, r3
 1345 0044 1037     		adds	r7, r7, #16
 1346              	.LCFI56:
 1347              		.cfi_def_cfa_offset 8
 1348 0046 BD46     		mov	sp, r7
 1349              	.LCFI57:
 1350              		.cfi_def_cfa_register 13
 1351              		@ sp needed
 1352 0048 80BD     		pop	{r7, pc}
 1353              		.cfi_endproc
 1354              	.LFE75:
 1356              		.section	.text.HAL_UART_Transmit_DMA,"ax",%progbits
 1357              		.align	1
 1358              		.global	HAL_UART_Transmit_DMA
 1359              		.syntax unified
 1360              		.thumb
 1361              		.thumb_func
 1363              	HAL_UART_Transmit_DMA:
 1364              	.LFB76:
1364:Drivers/STM32F1xx_HAL_Driver/Src/stm32f1xx_hal_uart.c **** 
1365:Drivers/STM32F1xx_HAL_Driver/Src/stm32f1xx_hal_uart.c **** /**
1366:Drivers/STM32F1xx_HAL_Driver/Src/stm32f1xx_hal_uart.c ****   * @brief  Sends an amount of data in DMA mode.
1367:Drivers/STM32F1xx_HAL_Driver/Src/stm32f1xx_hal_uart.c ****   * @note   When UART parity is not enabled (PCE = 0), and Word Length is configured to 9 bits (M1-
1368:Drivers/STM32F1xx_HAL_Driver/Src/stm32f1xx_hal_uart.c ****   *         the sent data is handled as a set of u16. In this case, Size must indicate the number
1369:Drivers/STM32F1xx_HAL_Driver/Src/stm32f1xx_hal_uart.c ****   *         of u16 provided through pData.
1370:Drivers/STM32F1xx_HAL_Driver/Src/stm32f1xx_hal_uart.c ****   * @param  huart  Pointer to a UART_HandleTypeDef structure that contains
1371:Drivers/STM32F1xx_HAL_Driver/Src/stm32f1xx_hal_uart.c ****   *                the configuration information for the specified UART module.
1372:Drivers/STM32F1xx_HAL_Driver/Src/stm32f1xx_hal_uart.c ****   * @param  pData Pointer to data buffer (u8 or u16 data elements).
1373:Drivers/STM32F1xx_HAL_Driver/Src/stm32f1xx_hal_uart.c ****   * @param  Size  Amount of data elements (u8 or u16) to be sent
1374:Drivers/STM32F1xx_HAL_Driver/Src/stm32f1xx_hal_uart.c ****   * @retval HAL status
1375:Drivers/STM32F1xx_HAL_Driver/Src/stm32f1xx_hal_uart.c ****   */
1376:Drivers/STM32F1xx_HAL_Driver/Src/stm32f1xx_hal_uart.c **** HAL_StatusTypeDef HAL_UART_Transmit_DMA(UART_HandleTypeDef *huart, const uint8_t *pData, uint16_t S
1377:Drivers/STM32F1xx_HAL_Driver/Src/stm32f1xx_hal_uart.c **** {
 1365              		.loc 1 1377 1
 1366              		.cfi_startproc
 1367              		@ args = 0, pretend = 0, frame = 48
 1368              		@ frame_needed = 1, uses_anonymous_args = 0
 1369 0000 80B5     		push	{r7, lr}
 1370              	.LCFI58:
 1371              		.cfi_def_cfa_offset 8
 1372              		.cfi_offset 7, -8
 1373              		.cfi_offset 14, -4
 1374 0002 8CB0     		sub	sp, sp, #48
 1375              	.LCFI59:
 1376              		.cfi_def_cfa_offset 56
 1377 0004 00AF     		add	r7, sp, #0
 1378              	.LCFI60:
ARM GAS  /tmp/cc17XZfc.s 			page 49


 1379              		.cfi_def_cfa_register 7
 1380 0006 F860     		str	r0, [r7, #12]
 1381 0008 B960     		str	r1, [r7, #8]
 1382 000a 1346     		mov	r3, r2
 1383 000c FB80     		strh	r3, [r7, #6]	@ movhi
1378:Drivers/STM32F1xx_HAL_Driver/Src/stm32f1xx_hal_uart.c ****   const uint32_t *tmp;
1379:Drivers/STM32F1xx_HAL_Driver/Src/stm32f1xx_hal_uart.c **** 
1380:Drivers/STM32F1xx_HAL_Driver/Src/stm32f1xx_hal_uart.c ****   /* Check that a Tx process is not already ongoing */
1381:Drivers/STM32F1xx_HAL_Driver/Src/stm32f1xx_hal_uart.c ****   if (huart->gState == HAL_UART_STATE_READY)
 1384              		.loc 1 1381 12
 1385 000e FB68     		ldr	r3, [r7, #12]
 1386 0010 93F84130 		ldrb	r3, [r3, #65]
 1387 0014 DBB2     		uxtb	r3, r3
 1388              		.loc 1 1381 6
 1389 0016 202B     		cmp	r3, #32
 1390 0018 56D1     		bne	.L61
1382:Drivers/STM32F1xx_HAL_Driver/Src/stm32f1xx_hal_uart.c ****   {
1383:Drivers/STM32F1xx_HAL_Driver/Src/stm32f1xx_hal_uart.c ****     if ((pData == NULL) || (Size == 0U))
 1391              		.loc 1 1383 16
 1392 001a BB68     		ldr	r3, [r7, #8]
 1393              		.loc 1 1383 8
 1394 001c 002B     		cmp	r3, #0
 1395 001e 02D0     		beq	.L62
 1396              		.loc 1 1383 25 discriminator 1
 1397 0020 FB88     		ldrh	r3, [r7, #6]
 1398 0022 002B     		cmp	r3, #0
 1399 0024 01D1     		bne	.L63
 1400              	.L62:
1384:Drivers/STM32F1xx_HAL_Driver/Src/stm32f1xx_hal_uart.c ****     {
1385:Drivers/STM32F1xx_HAL_Driver/Src/stm32f1xx_hal_uart.c ****       return HAL_ERROR;
 1401              		.loc 1 1385 14
 1402 0026 0123     		movs	r3, #1
 1403 0028 4FE0     		b	.L64
 1404              	.L63:
1386:Drivers/STM32F1xx_HAL_Driver/Src/stm32f1xx_hal_uart.c ****     }
1387:Drivers/STM32F1xx_HAL_Driver/Src/stm32f1xx_hal_uart.c **** 
1388:Drivers/STM32F1xx_HAL_Driver/Src/stm32f1xx_hal_uart.c ****     huart->pTxBuffPtr = pData;
 1405              		.loc 1 1388 23
 1406 002a BA68     		ldr	r2, [r7, #8]
 1407 002c FB68     		ldr	r3, [r7, #12]
 1408 002e 1A62     		str	r2, [r3, #32]
1389:Drivers/STM32F1xx_HAL_Driver/Src/stm32f1xx_hal_uart.c ****     huart->TxXferSize = Size;
 1409              		.loc 1 1389 23
 1410 0030 FB68     		ldr	r3, [r7, #12]
 1411 0032 FA88     		ldrh	r2, [r7, #6]	@ movhi
 1412 0034 9A84     		strh	r2, [r3, #36]	@ movhi
1390:Drivers/STM32F1xx_HAL_Driver/Src/stm32f1xx_hal_uart.c ****     huart->TxXferCount = Size;
 1413              		.loc 1 1390 24
 1414 0036 FB68     		ldr	r3, [r7, #12]
 1415 0038 FA88     		ldrh	r2, [r7, #6]	@ movhi
 1416 003a DA84     		strh	r2, [r3, #38]	@ movhi
1391:Drivers/STM32F1xx_HAL_Driver/Src/stm32f1xx_hal_uart.c **** 
1392:Drivers/STM32F1xx_HAL_Driver/Src/stm32f1xx_hal_uart.c ****     huart->ErrorCode = HAL_UART_ERROR_NONE;
 1417              		.loc 1 1392 22
 1418 003c FB68     		ldr	r3, [r7, #12]
 1419 003e 0022     		movs	r2, #0
 1420 0040 5A64     		str	r2, [r3, #68]
ARM GAS  /tmp/cc17XZfc.s 			page 50


1393:Drivers/STM32F1xx_HAL_Driver/Src/stm32f1xx_hal_uart.c ****     huart->gState = HAL_UART_STATE_BUSY_TX;
 1421              		.loc 1 1393 19
 1422 0042 FB68     		ldr	r3, [r7, #12]
 1423 0044 2122     		movs	r2, #33
 1424 0046 83F84120 		strb	r2, [r3, #65]
1394:Drivers/STM32F1xx_HAL_Driver/Src/stm32f1xx_hal_uart.c **** 
1395:Drivers/STM32F1xx_HAL_Driver/Src/stm32f1xx_hal_uart.c ****     /* Set the UART DMA transfer complete callback */
1396:Drivers/STM32F1xx_HAL_Driver/Src/stm32f1xx_hal_uart.c ****     huart->hdmatx->XferCpltCallback = UART_DMATransmitCplt;
 1425              		.loc 1 1396 10
 1426 004a FB68     		ldr	r3, [r7, #12]
 1427 004c 9B6B     		ldr	r3, [r3, #56]
 1428              		.loc 1 1396 37
 1429 004e 214A     		ldr	r2, .L68
 1430 0050 9A62     		str	r2, [r3, #40]
1397:Drivers/STM32F1xx_HAL_Driver/Src/stm32f1xx_hal_uart.c **** 
1398:Drivers/STM32F1xx_HAL_Driver/Src/stm32f1xx_hal_uart.c ****     /* Set the UART DMA Half transfer complete callback */
1399:Drivers/STM32F1xx_HAL_Driver/Src/stm32f1xx_hal_uart.c ****     huart->hdmatx->XferHalfCpltCallback = UART_DMATxHalfCplt;
 1431              		.loc 1 1399 10
 1432 0052 FB68     		ldr	r3, [r7, #12]
 1433 0054 9B6B     		ldr	r3, [r3, #56]
 1434              		.loc 1 1399 41
 1435 0056 204A     		ldr	r2, .L68+4
 1436 0058 DA62     		str	r2, [r3, #44]
1400:Drivers/STM32F1xx_HAL_Driver/Src/stm32f1xx_hal_uart.c **** 
1401:Drivers/STM32F1xx_HAL_Driver/Src/stm32f1xx_hal_uart.c ****     /* Set the DMA error callback */
1402:Drivers/STM32F1xx_HAL_Driver/Src/stm32f1xx_hal_uart.c ****     huart->hdmatx->XferErrorCallback = UART_DMAError;
 1437              		.loc 1 1402 10
 1438 005a FB68     		ldr	r3, [r7, #12]
 1439 005c 9B6B     		ldr	r3, [r3, #56]
 1440              		.loc 1 1402 38
 1441 005e 1F4A     		ldr	r2, .L68+8
 1442 0060 1A63     		str	r2, [r3, #48]
1403:Drivers/STM32F1xx_HAL_Driver/Src/stm32f1xx_hal_uart.c **** 
1404:Drivers/STM32F1xx_HAL_Driver/Src/stm32f1xx_hal_uart.c ****     /* Set the DMA abort callback */
1405:Drivers/STM32F1xx_HAL_Driver/Src/stm32f1xx_hal_uart.c ****     huart->hdmatx->XferAbortCallback = NULL;
 1443              		.loc 1 1405 10
 1444 0062 FB68     		ldr	r3, [r7, #12]
 1445 0064 9B6B     		ldr	r3, [r3, #56]
 1446              		.loc 1 1405 38
 1447 0066 0022     		movs	r2, #0
 1448 0068 5A63     		str	r2, [r3, #52]
1406:Drivers/STM32F1xx_HAL_Driver/Src/stm32f1xx_hal_uart.c **** 
1407:Drivers/STM32F1xx_HAL_Driver/Src/stm32f1xx_hal_uart.c ****     /* Enable the UART transmit DMA channel */
1408:Drivers/STM32F1xx_HAL_Driver/Src/stm32f1xx_hal_uart.c ****     tmp = (const uint32_t *)&pData;
 1449              		.loc 1 1408 9
 1450 006a 07F10803 		add	r3, r7, #8
 1451 006e FB62     		str	r3, [r7, #44]
1409:Drivers/STM32F1xx_HAL_Driver/Src/stm32f1xx_hal_uart.c ****     HAL_DMA_Start_IT(huart->hdmatx, *(const uint32_t *)tmp, (uint32_t)&huart->Instance->DR, Size);
 1452              		.loc 1 1409 5
 1453 0070 FB68     		ldr	r3, [r7, #12]
 1454 0072 986B     		ldr	r0, [r3, #56]
 1455 0074 FB6A     		ldr	r3, [r7, #44]
 1456 0076 1968     		ldr	r1, [r3]
 1457              		.loc 1 1409 77
 1458 0078 FB68     		ldr	r3, [r7, #12]
 1459 007a 1B68     		ldr	r3, [r3]
 1460              		.loc 1 1409 71
ARM GAS  /tmp/cc17XZfc.s 			page 51


 1461 007c 0433     		adds	r3, r3, #4
 1462              		.loc 1 1409 5
 1463 007e 1A46     		mov	r2, r3
 1464 0080 FB88     		ldrh	r3, [r7, #6]
 1465 0082 FFF7FEFF 		bl	HAL_DMA_Start_IT
1410:Drivers/STM32F1xx_HAL_Driver/Src/stm32f1xx_hal_uart.c **** 
1411:Drivers/STM32F1xx_HAL_Driver/Src/stm32f1xx_hal_uart.c ****     /* Clear the TC flag in the SR register by writing 0 to it */
1412:Drivers/STM32F1xx_HAL_Driver/Src/stm32f1xx_hal_uart.c ****     __HAL_UART_CLEAR_FLAG(huart, UART_FLAG_TC);
 1466              		.loc 1 1412 5
 1467 0086 FB68     		ldr	r3, [r7, #12]
 1468 0088 1B68     		ldr	r3, [r3]
 1469 008a 6FF04002 		mvn	r2, #64
 1470 008e 1A60     		str	r2, [r3]
 1471              	.L67:
 1472              	.LBB320:
1413:Drivers/STM32F1xx_HAL_Driver/Src/stm32f1xx_hal_uart.c **** 
1414:Drivers/STM32F1xx_HAL_Driver/Src/stm32f1xx_hal_uart.c ****     /* Enable the DMA transfer for transmit request by setting the DMAT bit
1415:Drivers/STM32F1xx_HAL_Driver/Src/stm32f1xx_hal_uart.c ****        in the UART CR3 register */
1416:Drivers/STM32F1xx_HAL_Driver/Src/stm32f1xx_hal_uart.c ****     ATOMIC_SET_BIT(huart->Instance->CR3, USART_CR3_DMAT);
 1473              		.loc 1 1416 5 discriminator 1
 1474 0090 FB68     		ldr	r3, [r7, #12]
 1475 0092 1B68     		ldr	r3, [r3]
 1476 0094 1433     		adds	r3, r3, #20
 1477 0096 BB61     		str	r3, [r7, #24]
 1478              	.LBB321:
 1479              	.LBB322:
 1480              		.file 2 "Drivers/CMSIS/Include/cmsis_gcc.h"
   1:Drivers/CMSIS/Include/cmsis_gcc.h **** /**************************************************************************//**
   2:Drivers/CMSIS/Include/cmsis_gcc.h ****  * @file     cmsis_gcc.h
   3:Drivers/CMSIS/Include/cmsis_gcc.h ****  * @brief    CMSIS compiler GCC header file
   4:Drivers/CMSIS/Include/cmsis_gcc.h ****  * @version  V5.0.4
   5:Drivers/CMSIS/Include/cmsis_gcc.h ****  * @date     09. April 2018
   6:Drivers/CMSIS/Include/cmsis_gcc.h ****  ******************************************************************************/
   7:Drivers/CMSIS/Include/cmsis_gcc.h **** /*
   8:Drivers/CMSIS/Include/cmsis_gcc.h ****  * Copyright (c) 2009-2018 Arm Limited. All rights reserved.
   9:Drivers/CMSIS/Include/cmsis_gcc.h ****  *
  10:Drivers/CMSIS/Include/cmsis_gcc.h ****  * SPDX-License-Identifier: Apache-2.0
  11:Drivers/CMSIS/Include/cmsis_gcc.h ****  *
  12:Drivers/CMSIS/Include/cmsis_gcc.h ****  * Licensed under the Apache License, Version 2.0 (the License); you may
  13:Drivers/CMSIS/Include/cmsis_gcc.h ****  * not use this file except in compliance with the License.
  14:Drivers/CMSIS/Include/cmsis_gcc.h ****  * You may obtain a copy of the License at
  15:Drivers/CMSIS/Include/cmsis_gcc.h ****  *
  16:Drivers/CMSIS/Include/cmsis_gcc.h ****  * www.apache.org/licenses/LICENSE-2.0
  17:Drivers/CMSIS/Include/cmsis_gcc.h ****  *
  18:Drivers/CMSIS/Include/cmsis_gcc.h ****  * Unless required by applicable law or agreed to in writing, software
  19:Drivers/CMSIS/Include/cmsis_gcc.h ****  * distributed under the License is distributed on an AS IS BASIS, WITHOUT
  20:Drivers/CMSIS/Include/cmsis_gcc.h ****  * WARRANTIES OR CONDITIONS OF ANY KIND, either express or implied.
  21:Drivers/CMSIS/Include/cmsis_gcc.h ****  * See the License for the specific language governing permissions and
  22:Drivers/CMSIS/Include/cmsis_gcc.h ****  * limitations under the License.
  23:Drivers/CMSIS/Include/cmsis_gcc.h ****  */
  24:Drivers/CMSIS/Include/cmsis_gcc.h **** 
  25:Drivers/CMSIS/Include/cmsis_gcc.h **** #ifndef __CMSIS_GCC_H
  26:Drivers/CMSIS/Include/cmsis_gcc.h **** #define __CMSIS_GCC_H
  27:Drivers/CMSIS/Include/cmsis_gcc.h **** 
  28:Drivers/CMSIS/Include/cmsis_gcc.h **** /* ignore some GCC warnings */
  29:Drivers/CMSIS/Include/cmsis_gcc.h **** #pragma GCC diagnostic push
  30:Drivers/CMSIS/Include/cmsis_gcc.h **** #pragma GCC diagnostic ignored "-Wsign-conversion"
ARM GAS  /tmp/cc17XZfc.s 			page 52


  31:Drivers/CMSIS/Include/cmsis_gcc.h **** #pragma GCC diagnostic ignored "-Wconversion"
  32:Drivers/CMSIS/Include/cmsis_gcc.h **** #pragma GCC diagnostic ignored "-Wunused-parameter"
  33:Drivers/CMSIS/Include/cmsis_gcc.h **** 
  34:Drivers/CMSIS/Include/cmsis_gcc.h **** /* Fallback for __has_builtin */
  35:Drivers/CMSIS/Include/cmsis_gcc.h **** #ifndef __has_builtin
  36:Drivers/CMSIS/Include/cmsis_gcc.h ****   #define __has_builtin(x) (0)
  37:Drivers/CMSIS/Include/cmsis_gcc.h **** #endif
  38:Drivers/CMSIS/Include/cmsis_gcc.h **** 
  39:Drivers/CMSIS/Include/cmsis_gcc.h **** /* CMSIS compiler specific defines */
  40:Drivers/CMSIS/Include/cmsis_gcc.h **** #ifndef   __ASM
  41:Drivers/CMSIS/Include/cmsis_gcc.h ****   #define __ASM                                  __asm
  42:Drivers/CMSIS/Include/cmsis_gcc.h **** #endif
  43:Drivers/CMSIS/Include/cmsis_gcc.h **** #ifndef   __INLINE
  44:Drivers/CMSIS/Include/cmsis_gcc.h ****   #define __INLINE                               inline
  45:Drivers/CMSIS/Include/cmsis_gcc.h **** #endif
  46:Drivers/CMSIS/Include/cmsis_gcc.h **** #ifndef   __STATIC_INLINE
  47:Drivers/CMSIS/Include/cmsis_gcc.h ****   #define __STATIC_INLINE                        static inline
  48:Drivers/CMSIS/Include/cmsis_gcc.h **** #endif
  49:Drivers/CMSIS/Include/cmsis_gcc.h **** #ifndef   __STATIC_FORCEINLINE                 
  50:Drivers/CMSIS/Include/cmsis_gcc.h ****   #define __STATIC_FORCEINLINE                   __attribute__((always_inline)) static inline
  51:Drivers/CMSIS/Include/cmsis_gcc.h **** #endif                                           
  52:Drivers/CMSIS/Include/cmsis_gcc.h **** #ifndef   __NO_RETURN
  53:Drivers/CMSIS/Include/cmsis_gcc.h ****   #define __NO_RETURN                            __attribute__((__noreturn__))
  54:Drivers/CMSIS/Include/cmsis_gcc.h **** #endif
  55:Drivers/CMSIS/Include/cmsis_gcc.h **** #ifndef   __USED
  56:Drivers/CMSIS/Include/cmsis_gcc.h ****   #define __USED                                 __attribute__((used))
  57:Drivers/CMSIS/Include/cmsis_gcc.h **** #endif
  58:Drivers/CMSIS/Include/cmsis_gcc.h **** #ifndef   __WEAK
  59:Drivers/CMSIS/Include/cmsis_gcc.h ****   #define __WEAK                                 __attribute__((weak))
  60:Drivers/CMSIS/Include/cmsis_gcc.h **** #endif
  61:Drivers/CMSIS/Include/cmsis_gcc.h **** #ifndef   __PACKED
  62:Drivers/CMSIS/Include/cmsis_gcc.h ****   #define __PACKED                               __attribute__((packed, aligned(1)))
  63:Drivers/CMSIS/Include/cmsis_gcc.h **** #endif
  64:Drivers/CMSIS/Include/cmsis_gcc.h **** #ifndef   __PACKED_STRUCT
  65:Drivers/CMSIS/Include/cmsis_gcc.h ****   #define __PACKED_STRUCT                        struct __attribute__((packed, aligned(1)))
  66:Drivers/CMSIS/Include/cmsis_gcc.h **** #endif
  67:Drivers/CMSIS/Include/cmsis_gcc.h **** #ifndef   __PACKED_UNION
  68:Drivers/CMSIS/Include/cmsis_gcc.h ****   #define __PACKED_UNION                         union __attribute__((packed, aligned(1)))
  69:Drivers/CMSIS/Include/cmsis_gcc.h **** #endif
  70:Drivers/CMSIS/Include/cmsis_gcc.h **** #ifndef   __UNALIGNED_UINT32        /* deprecated */
  71:Drivers/CMSIS/Include/cmsis_gcc.h ****   #pragma GCC diagnostic push
  72:Drivers/CMSIS/Include/cmsis_gcc.h ****   #pragma GCC diagnostic ignored "-Wpacked"
  73:Drivers/CMSIS/Include/cmsis_gcc.h ****   #pragma GCC diagnostic ignored "-Wattributes"
  74:Drivers/CMSIS/Include/cmsis_gcc.h ****   struct __attribute__((packed)) T_UINT32 { uint32_t v; };
  75:Drivers/CMSIS/Include/cmsis_gcc.h ****   #pragma GCC diagnostic pop
  76:Drivers/CMSIS/Include/cmsis_gcc.h ****   #define __UNALIGNED_UINT32(x)                  (((struct T_UINT32 *)(x))->v)
  77:Drivers/CMSIS/Include/cmsis_gcc.h **** #endif
  78:Drivers/CMSIS/Include/cmsis_gcc.h **** #ifndef   __UNALIGNED_UINT16_WRITE
  79:Drivers/CMSIS/Include/cmsis_gcc.h ****   #pragma GCC diagnostic push
  80:Drivers/CMSIS/Include/cmsis_gcc.h ****   #pragma GCC diagnostic ignored "-Wpacked"
  81:Drivers/CMSIS/Include/cmsis_gcc.h ****   #pragma GCC diagnostic ignored "-Wattributes"
  82:Drivers/CMSIS/Include/cmsis_gcc.h ****   __PACKED_STRUCT T_UINT16_WRITE { uint16_t v; };
  83:Drivers/CMSIS/Include/cmsis_gcc.h ****   #pragma GCC diagnostic pop
  84:Drivers/CMSIS/Include/cmsis_gcc.h ****   #define __UNALIGNED_UINT16_WRITE(addr, val)    (void)((((struct T_UINT16_WRITE *)(void *)(addr))-
  85:Drivers/CMSIS/Include/cmsis_gcc.h **** #endif
  86:Drivers/CMSIS/Include/cmsis_gcc.h **** #ifndef   __UNALIGNED_UINT16_READ
  87:Drivers/CMSIS/Include/cmsis_gcc.h ****   #pragma GCC diagnostic push
ARM GAS  /tmp/cc17XZfc.s 			page 53


  88:Drivers/CMSIS/Include/cmsis_gcc.h ****   #pragma GCC diagnostic ignored "-Wpacked"
  89:Drivers/CMSIS/Include/cmsis_gcc.h ****   #pragma GCC diagnostic ignored "-Wattributes"
  90:Drivers/CMSIS/Include/cmsis_gcc.h ****   __PACKED_STRUCT T_UINT16_READ { uint16_t v; };
  91:Drivers/CMSIS/Include/cmsis_gcc.h ****   #pragma GCC diagnostic pop
  92:Drivers/CMSIS/Include/cmsis_gcc.h ****   #define __UNALIGNED_UINT16_READ(addr)          (((const struct T_UINT16_READ *)(const void *)(add
  93:Drivers/CMSIS/Include/cmsis_gcc.h **** #endif
  94:Drivers/CMSIS/Include/cmsis_gcc.h **** #ifndef   __UNALIGNED_UINT32_WRITE
  95:Drivers/CMSIS/Include/cmsis_gcc.h ****   #pragma GCC diagnostic push
  96:Drivers/CMSIS/Include/cmsis_gcc.h ****   #pragma GCC diagnostic ignored "-Wpacked"
  97:Drivers/CMSIS/Include/cmsis_gcc.h ****   #pragma GCC diagnostic ignored "-Wattributes"
  98:Drivers/CMSIS/Include/cmsis_gcc.h ****   __PACKED_STRUCT T_UINT32_WRITE { uint32_t v; };
  99:Drivers/CMSIS/Include/cmsis_gcc.h ****   #pragma GCC diagnostic pop
 100:Drivers/CMSIS/Include/cmsis_gcc.h ****   #define __UNALIGNED_UINT32_WRITE(addr, val)    (void)((((struct T_UINT32_WRITE *)(void *)(addr))-
 101:Drivers/CMSIS/Include/cmsis_gcc.h **** #endif
 102:Drivers/CMSIS/Include/cmsis_gcc.h **** #ifndef   __UNALIGNED_UINT32_READ
 103:Drivers/CMSIS/Include/cmsis_gcc.h ****   #pragma GCC diagnostic push
 104:Drivers/CMSIS/Include/cmsis_gcc.h ****   #pragma GCC diagnostic ignored "-Wpacked"
 105:Drivers/CMSIS/Include/cmsis_gcc.h ****   #pragma GCC diagnostic ignored "-Wattributes"
 106:Drivers/CMSIS/Include/cmsis_gcc.h ****   __PACKED_STRUCT T_UINT32_READ { uint32_t v; };
 107:Drivers/CMSIS/Include/cmsis_gcc.h ****   #pragma GCC diagnostic pop
 108:Drivers/CMSIS/Include/cmsis_gcc.h ****   #define __UNALIGNED_UINT32_READ(addr)          (((const struct T_UINT32_READ *)(const void *)(add
 109:Drivers/CMSIS/Include/cmsis_gcc.h **** #endif
 110:Drivers/CMSIS/Include/cmsis_gcc.h **** #ifndef   __ALIGNED
 111:Drivers/CMSIS/Include/cmsis_gcc.h ****   #define __ALIGNED(x)                           __attribute__((aligned(x)))
 112:Drivers/CMSIS/Include/cmsis_gcc.h **** #endif
 113:Drivers/CMSIS/Include/cmsis_gcc.h **** #ifndef   __RESTRICT
 114:Drivers/CMSIS/Include/cmsis_gcc.h ****   #define __RESTRICT                             __restrict
 115:Drivers/CMSIS/Include/cmsis_gcc.h **** #endif
 116:Drivers/CMSIS/Include/cmsis_gcc.h **** 
 117:Drivers/CMSIS/Include/cmsis_gcc.h **** 
 118:Drivers/CMSIS/Include/cmsis_gcc.h **** /* ###########################  Core Function Access  ########################### */
 119:Drivers/CMSIS/Include/cmsis_gcc.h **** /** \ingroup  CMSIS_Core_FunctionInterface
 120:Drivers/CMSIS/Include/cmsis_gcc.h ****     \defgroup CMSIS_Core_RegAccFunctions CMSIS Core Register Access Functions
 121:Drivers/CMSIS/Include/cmsis_gcc.h ****   @{
 122:Drivers/CMSIS/Include/cmsis_gcc.h ****  */
 123:Drivers/CMSIS/Include/cmsis_gcc.h **** 
 124:Drivers/CMSIS/Include/cmsis_gcc.h **** /**
 125:Drivers/CMSIS/Include/cmsis_gcc.h ****   \brief   Enable IRQ Interrupts
 126:Drivers/CMSIS/Include/cmsis_gcc.h ****   \details Enables IRQ interrupts by clearing the I-bit in the CPSR.
 127:Drivers/CMSIS/Include/cmsis_gcc.h ****            Can only be executed in Privileged modes.
 128:Drivers/CMSIS/Include/cmsis_gcc.h ****  */
 129:Drivers/CMSIS/Include/cmsis_gcc.h **** __STATIC_FORCEINLINE void __enable_irq(void)
 130:Drivers/CMSIS/Include/cmsis_gcc.h **** {
 131:Drivers/CMSIS/Include/cmsis_gcc.h ****   __ASM volatile ("cpsie i" : : : "memory");
 132:Drivers/CMSIS/Include/cmsis_gcc.h **** }
 133:Drivers/CMSIS/Include/cmsis_gcc.h **** 
 134:Drivers/CMSIS/Include/cmsis_gcc.h **** 
 135:Drivers/CMSIS/Include/cmsis_gcc.h **** /**
 136:Drivers/CMSIS/Include/cmsis_gcc.h ****   \brief   Disable IRQ Interrupts
 137:Drivers/CMSIS/Include/cmsis_gcc.h ****   \details Disables IRQ interrupts by setting the I-bit in the CPSR.
 138:Drivers/CMSIS/Include/cmsis_gcc.h ****            Can only be executed in Privileged modes.
 139:Drivers/CMSIS/Include/cmsis_gcc.h ****  */
 140:Drivers/CMSIS/Include/cmsis_gcc.h **** __STATIC_FORCEINLINE void __disable_irq(void)
 141:Drivers/CMSIS/Include/cmsis_gcc.h **** {
 142:Drivers/CMSIS/Include/cmsis_gcc.h ****   __ASM volatile ("cpsid i" : : : "memory");
 143:Drivers/CMSIS/Include/cmsis_gcc.h **** }
 144:Drivers/CMSIS/Include/cmsis_gcc.h **** 
ARM GAS  /tmp/cc17XZfc.s 			page 54


 145:Drivers/CMSIS/Include/cmsis_gcc.h **** 
 146:Drivers/CMSIS/Include/cmsis_gcc.h **** /**
 147:Drivers/CMSIS/Include/cmsis_gcc.h ****   \brief   Get Control Register
 148:Drivers/CMSIS/Include/cmsis_gcc.h ****   \details Returns the content of the Control Register.
 149:Drivers/CMSIS/Include/cmsis_gcc.h ****   \return               Control Register value
 150:Drivers/CMSIS/Include/cmsis_gcc.h ****  */
 151:Drivers/CMSIS/Include/cmsis_gcc.h **** __STATIC_FORCEINLINE uint32_t __get_CONTROL(void)
 152:Drivers/CMSIS/Include/cmsis_gcc.h **** {
 153:Drivers/CMSIS/Include/cmsis_gcc.h ****   uint32_t result;
 154:Drivers/CMSIS/Include/cmsis_gcc.h **** 
 155:Drivers/CMSIS/Include/cmsis_gcc.h ****   __ASM volatile ("MRS %0, control" : "=r" (result) );
 156:Drivers/CMSIS/Include/cmsis_gcc.h ****   return(result);
 157:Drivers/CMSIS/Include/cmsis_gcc.h **** }
 158:Drivers/CMSIS/Include/cmsis_gcc.h **** 
 159:Drivers/CMSIS/Include/cmsis_gcc.h **** 
 160:Drivers/CMSIS/Include/cmsis_gcc.h **** #if (defined (__ARM_FEATURE_CMSE ) && (__ARM_FEATURE_CMSE == 3))
 161:Drivers/CMSIS/Include/cmsis_gcc.h **** /**
 162:Drivers/CMSIS/Include/cmsis_gcc.h ****   \brief   Get Control Register (non-secure)
 163:Drivers/CMSIS/Include/cmsis_gcc.h ****   \details Returns the content of the non-secure Control Register when in secure mode.
 164:Drivers/CMSIS/Include/cmsis_gcc.h ****   \return               non-secure Control Register value
 165:Drivers/CMSIS/Include/cmsis_gcc.h ****  */
 166:Drivers/CMSIS/Include/cmsis_gcc.h **** __STATIC_FORCEINLINE uint32_t __TZ_get_CONTROL_NS(void)
 167:Drivers/CMSIS/Include/cmsis_gcc.h **** {
 168:Drivers/CMSIS/Include/cmsis_gcc.h ****   uint32_t result;
 169:Drivers/CMSIS/Include/cmsis_gcc.h **** 
 170:Drivers/CMSIS/Include/cmsis_gcc.h ****   __ASM volatile ("MRS %0, control_ns" : "=r" (result) );
 171:Drivers/CMSIS/Include/cmsis_gcc.h ****   return(result);
 172:Drivers/CMSIS/Include/cmsis_gcc.h **** }
 173:Drivers/CMSIS/Include/cmsis_gcc.h **** #endif
 174:Drivers/CMSIS/Include/cmsis_gcc.h **** 
 175:Drivers/CMSIS/Include/cmsis_gcc.h **** 
 176:Drivers/CMSIS/Include/cmsis_gcc.h **** /**
 177:Drivers/CMSIS/Include/cmsis_gcc.h ****   \brief   Set Control Register
 178:Drivers/CMSIS/Include/cmsis_gcc.h ****   \details Writes the given value to the Control Register.
 179:Drivers/CMSIS/Include/cmsis_gcc.h ****   \param [in]    control  Control Register value to set
 180:Drivers/CMSIS/Include/cmsis_gcc.h ****  */
 181:Drivers/CMSIS/Include/cmsis_gcc.h **** __STATIC_FORCEINLINE void __set_CONTROL(uint32_t control)
 182:Drivers/CMSIS/Include/cmsis_gcc.h **** {
 183:Drivers/CMSIS/Include/cmsis_gcc.h ****   __ASM volatile ("MSR control, %0" : : "r" (control) : "memory");
 184:Drivers/CMSIS/Include/cmsis_gcc.h **** }
 185:Drivers/CMSIS/Include/cmsis_gcc.h **** 
 186:Drivers/CMSIS/Include/cmsis_gcc.h **** 
 187:Drivers/CMSIS/Include/cmsis_gcc.h **** #if (defined (__ARM_FEATURE_CMSE ) && (__ARM_FEATURE_CMSE == 3))
 188:Drivers/CMSIS/Include/cmsis_gcc.h **** /**
 189:Drivers/CMSIS/Include/cmsis_gcc.h ****   \brief   Set Control Register (non-secure)
 190:Drivers/CMSIS/Include/cmsis_gcc.h ****   \details Writes the given value to the non-secure Control Register when in secure state.
 191:Drivers/CMSIS/Include/cmsis_gcc.h ****   \param [in]    control  Control Register value to set
 192:Drivers/CMSIS/Include/cmsis_gcc.h ****  */
 193:Drivers/CMSIS/Include/cmsis_gcc.h **** __STATIC_FORCEINLINE void __TZ_set_CONTROL_NS(uint32_t control)
 194:Drivers/CMSIS/Include/cmsis_gcc.h **** {
 195:Drivers/CMSIS/Include/cmsis_gcc.h ****   __ASM volatile ("MSR control_ns, %0" : : "r" (control) : "memory");
 196:Drivers/CMSIS/Include/cmsis_gcc.h **** }
 197:Drivers/CMSIS/Include/cmsis_gcc.h **** #endif
 198:Drivers/CMSIS/Include/cmsis_gcc.h **** 
 199:Drivers/CMSIS/Include/cmsis_gcc.h **** 
 200:Drivers/CMSIS/Include/cmsis_gcc.h **** /**
 201:Drivers/CMSIS/Include/cmsis_gcc.h ****   \brief   Get IPSR Register
ARM GAS  /tmp/cc17XZfc.s 			page 55


 202:Drivers/CMSIS/Include/cmsis_gcc.h ****   \details Returns the content of the IPSR Register.
 203:Drivers/CMSIS/Include/cmsis_gcc.h ****   \return               IPSR Register value
 204:Drivers/CMSIS/Include/cmsis_gcc.h ****  */
 205:Drivers/CMSIS/Include/cmsis_gcc.h **** __STATIC_FORCEINLINE uint32_t __get_IPSR(void)
 206:Drivers/CMSIS/Include/cmsis_gcc.h **** {
 207:Drivers/CMSIS/Include/cmsis_gcc.h ****   uint32_t result;
 208:Drivers/CMSIS/Include/cmsis_gcc.h **** 
 209:Drivers/CMSIS/Include/cmsis_gcc.h ****   __ASM volatile ("MRS %0, ipsr" : "=r" (result) );
 210:Drivers/CMSIS/Include/cmsis_gcc.h ****   return(result);
 211:Drivers/CMSIS/Include/cmsis_gcc.h **** }
 212:Drivers/CMSIS/Include/cmsis_gcc.h **** 
 213:Drivers/CMSIS/Include/cmsis_gcc.h **** 
 214:Drivers/CMSIS/Include/cmsis_gcc.h **** /**
 215:Drivers/CMSIS/Include/cmsis_gcc.h ****   \brief   Get APSR Register
 216:Drivers/CMSIS/Include/cmsis_gcc.h ****   \details Returns the content of the APSR Register.
 217:Drivers/CMSIS/Include/cmsis_gcc.h ****   \return               APSR Register value
 218:Drivers/CMSIS/Include/cmsis_gcc.h ****  */
 219:Drivers/CMSIS/Include/cmsis_gcc.h **** __STATIC_FORCEINLINE uint32_t __get_APSR(void)
 220:Drivers/CMSIS/Include/cmsis_gcc.h **** {
 221:Drivers/CMSIS/Include/cmsis_gcc.h ****   uint32_t result;
 222:Drivers/CMSIS/Include/cmsis_gcc.h **** 
 223:Drivers/CMSIS/Include/cmsis_gcc.h ****   __ASM volatile ("MRS %0, apsr" : "=r" (result) );
 224:Drivers/CMSIS/Include/cmsis_gcc.h ****   return(result);
 225:Drivers/CMSIS/Include/cmsis_gcc.h **** }
 226:Drivers/CMSIS/Include/cmsis_gcc.h **** 
 227:Drivers/CMSIS/Include/cmsis_gcc.h **** 
 228:Drivers/CMSIS/Include/cmsis_gcc.h **** /**
 229:Drivers/CMSIS/Include/cmsis_gcc.h ****   \brief   Get xPSR Register
 230:Drivers/CMSIS/Include/cmsis_gcc.h ****   \details Returns the content of the xPSR Register.
 231:Drivers/CMSIS/Include/cmsis_gcc.h ****   \return               xPSR Register value
 232:Drivers/CMSIS/Include/cmsis_gcc.h ****  */
 233:Drivers/CMSIS/Include/cmsis_gcc.h **** __STATIC_FORCEINLINE uint32_t __get_xPSR(void)
 234:Drivers/CMSIS/Include/cmsis_gcc.h **** {
 235:Drivers/CMSIS/Include/cmsis_gcc.h ****   uint32_t result;
 236:Drivers/CMSIS/Include/cmsis_gcc.h **** 
 237:Drivers/CMSIS/Include/cmsis_gcc.h ****   __ASM volatile ("MRS %0, xpsr" : "=r" (result) );
 238:Drivers/CMSIS/Include/cmsis_gcc.h ****   return(result);
 239:Drivers/CMSIS/Include/cmsis_gcc.h **** }
 240:Drivers/CMSIS/Include/cmsis_gcc.h **** 
 241:Drivers/CMSIS/Include/cmsis_gcc.h **** 
 242:Drivers/CMSIS/Include/cmsis_gcc.h **** /**
 243:Drivers/CMSIS/Include/cmsis_gcc.h ****   \brief   Get Process Stack Pointer
 244:Drivers/CMSIS/Include/cmsis_gcc.h ****   \details Returns the current value of the Process Stack Pointer (PSP).
 245:Drivers/CMSIS/Include/cmsis_gcc.h ****   \return               PSP Register value
 246:Drivers/CMSIS/Include/cmsis_gcc.h ****  */
 247:Drivers/CMSIS/Include/cmsis_gcc.h **** __STATIC_FORCEINLINE uint32_t __get_PSP(void)
 248:Drivers/CMSIS/Include/cmsis_gcc.h **** {
 249:Drivers/CMSIS/Include/cmsis_gcc.h ****   uint32_t result;
 250:Drivers/CMSIS/Include/cmsis_gcc.h **** 
 251:Drivers/CMSIS/Include/cmsis_gcc.h ****   __ASM volatile ("MRS %0, psp"  : "=r" (result) );
 252:Drivers/CMSIS/Include/cmsis_gcc.h ****   return(result);
 253:Drivers/CMSIS/Include/cmsis_gcc.h **** }
 254:Drivers/CMSIS/Include/cmsis_gcc.h **** 
 255:Drivers/CMSIS/Include/cmsis_gcc.h **** 
 256:Drivers/CMSIS/Include/cmsis_gcc.h **** #if (defined (__ARM_FEATURE_CMSE ) && (__ARM_FEATURE_CMSE == 3))
 257:Drivers/CMSIS/Include/cmsis_gcc.h **** /**
 258:Drivers/CMSIS/Include/cmsis_gcc.h ****   \brief   Get Process Stack Pointer (non-secure)
ARM GAS  /tmp/cc17XZfc.s 			page 56


 259:Drivers/CMSIS/Include/cmsis_gcc.h ****   \details Returns the current value of the non-secure Process Stack Pointer (PSP) when in secure s
 260:Drivers/CMSIS/Include/cmsis_gcc.h ****   \return               PSP Register value
 261:Drivers/CMSIS/Include/cmsis_gcc.h ****  */
 262:Drivers/CMSIS/Include/cmsis_gcc.h **** __STATIC_FORCEINLINE uint32_t __TZ_get_PSP_NS(void)
 263:Drivers/CMSIS/Include/cmsis_gcc.h **** {
 264:Drivers/CMSIS/Include/cmsis_gcc.h ****   uint32_t result;
 265:Drivers/CMSIS/Include/cmsis_gcc.h **** 
 266:Drivers/CMSIS/Include/cmsis_gcc.h ****   __ASM volatile ("MRS %0, psp_ns"  : "=r" (result) );
 267:Drivers/CMSIS/Include/cmsis_gcc.h ****   return(result);
 268:Drivers/CMSIS/Include/cmsis_gcc.h **** }
 269:Drivers/CMSIS/Include/cmsis_gcc.h **** #endif
 270:Drivers/CMSIS/Include/cmsis_gcc.h **** 
 271:Drivers/CMSIS/Include/cmsis_gcc.h **** 
 272:Drivers/CMSIS/Include/cmsis_gcc.h **** /**
 273:Drivers/CMSIS/Include/cmsis_gcc.h ****   \brief   Set Process Stack Pointer
 274:Drivers/CMSIS/Include/cmsis_gcc.h ****   \details Assigns the given value to the Process Stack Pointer (PSP).
 275:Drivers/CMSIS/Include/cmsis_gcc.h ****   \param [in]    topOfProcStack  Process Stack Pointer value to set
 276:Drivers/CMSIS/Include/cmsis_gcc.h ****  */
 277:Drivers/CMSIS/Include/cmsis_gcc.h **** __STATIC_FORCEINLINE void __set_PSP(uint32_t topOfProcStack)
 278:Drivers/CMSIS/Include/cmsis_gcc.h **** {
 279:Drivers/CMSIS/Include/cmsis_gcc.h ****   __ASM volatile ("MSR psp, %0" : : "r" (topOfProcStack) : );
 280:Drivers/CMSIS/Include/cmsis_gcc.h **** }
 281:Drivers/CMSIS/Include/cmsis_gcc.h **** 
 282:Drivers/CMSIS/Include/cmsis_gcc.h **** 
 283:Drivers/CMSIS/Include/cmsis_gcc.h **** #if (defined (__ARM_FEATURE_CMSE ) && (__ARM_FEATURE_CMSE == 3))
 284:Drivers/CMSIS/Include/cmsis_gcc.h **** /**
 285:Drivers/CMSIS/Include/cmsis_gcc.h ****   \brief   Set Process Stack Pointer (non-secure)
 286:Drivers/CMSIS/Include/cmsis_gcc.h ****   \details Assigns the given value to the non-secure Process Stack Pointer (PSP) when in secure sta
 287:Drivers/CMSIS/Include/cmsis_gcc.h ****   \param [in]    topOfProcStack  Process Stack Pointer value to set
 288:Drivers/CMSIS/Include/cmsis_gcc.h ****  */
 289:Drivers/CMSIS/Include/cmsis_gcc.h **** __STATIC_FORCEINLINE void __TZ_set_PSP_NS(uint32_t topOfProcStack)
 290:Drivers/CMSIS/Include/cmsis_gcc.h **** {
 291:Drivers/CMSIS/Include/cmsis_gcc.h ****   __ASM volatile ("MSR psp_ns, %0" : : "r" (topOfProcStack) : );
 292:Drivers/CMSIS/Include/cmsis_gcc.h **** }
 293:Drivers/CMSIS/Include/cmsis_gcc.h **** #endif
 294:Drivers/CMSIS/Include/cmsis_gcc.h **** 
 295:Drivers/CMSIS/Include/cmsis_gcc.h **** 
 296:Drivers/CMSIS/Include/cmsis_gcc.h **** /**
 297:Drivers/CMSIS/Include/cmsis_gcc.h ****   \brief   Get Main Stack Pointer
 298:Drivers/CMSIS/Include/cmsis_gcc.h ****   \details Returns the current value of the Main Stack Pointer (MSP).
 299:Drivers/CMSIS/Include/cmsis_gcc.h ****   \return               MSP Register value
 300:Drivers/CMSIS/Include/cmsis_gcc.h ****  */
 301:Drivers/CMSIS/Include/cmsis_gcc.h **** __STATIC_FORCEINLINE uint32_t __get_MSP(void)
 302:Drivers/CMSIS/Include/cmsis_gcc.h **** {
 303:Drivers/CMSIS/Include/cmsis_gcc.h ****   uint32_t result;
 304:Drivers/CMSIS/Include/cmsis_gcc.h **** 
 305:Drivers/CMSIS/Include/cmsis_gcc.h ****   __ASM volatile ("MRS %0, msp" : "=r" (result) );
 306:Drivers/CMSIS/Include/cmsis_gcc.h ****   return(result);
 307:Drivers/CMSIS/Include/cmsis_gcc.h **** }
 308:Drivers/CMSIS/Include/cmsis_gcc.h **** 
 309:Drivers/CMSIS/Include/cmsis_gcc.h **** 
 310:Drivers/CMSIS/Include/cmsis_gcc.h **** #if (defined (__ARM_FEATURE_CMSE ) && (__ARM_FEATURE_CMSE == 3))
 311:Drivers/CMSIS/Include/cmsis_gcc.h **** /**
 312:Drivers/CMSIS/Include/cmsis_gcc.h ****   \brief   Get Main Stack Pointer (non-secure)
 313:Drivers/CMSIS/Include/cmsis_gcc.h ****   \details Returns the current value of the non-secure Main Stack Pointer (MSP) when in secure stat
 314:Drivers/CMSIS/Include/cmsis_gcc.h ****   \return               MSP Register value
 315:Drivers/CMSIS/Include/cmsis_gcc.h ****  */
ARM GAS  /tmp/cc17XZfc.s 			page 57


 316:Drivers/CMSIS/Include/cmsis_gcc.h **** __STATIC_FORCEINLINE uint32_t __TZ_get_MSP_NS(void)
 317:Drivers/CMSIS/Include/cmsis_gcc.h **** {
 318:Drivers/CMSIS/Include/cmsis_gcc.h ****   uint32_t result;
 319:Drivers/CMSIS/Include/cmsis_gcc.h **** 
 320:Drivers/CMSIS/Include/cmsis_gcc.h ****   __ASM volatile ("MRS %0, msp_ns" : "=r" (result) );
 321:Drivers/CMSIS/Include/cmsis_gcc.h ****   return(result);
 322:Drivers/CMSIS/Include/cmsis_gcc.h **** }
 323:Drivers/CMSIS/Include/cmsis_gcc.h **** #endif
 324:Drivers/CMSIS/Include/cmsis_gcc.h **** 
 325:Drivers/CMSIS/Include/cmsis_gcc.h **** 
 326:Drivers/CMSIS/Include/cmsis_gcc.h **** /**
 327:Drivers/CMSIS/Include/cmsis_gcc.h ****   \brief   Set Main Stack Pointer
 328:Drivers/CMSIS/Include/cmsis_gcc.h ****   \details Assigns the given value to the Main Stack Pointer (MSP).
 329:Drivers/CMSIS/Include/cmsis_gcc.h ****   \param [in]    topOfMainStack  Main Stack Pointer value to set
 330:Drivers/CMSIS/Include/cmsis_gcc.h ****  */
 331:Drivers/CMSIS/Include/cmsis_gcc.h **** __STATIC_FORCEINLINE void __set_MSP(uint32_t topOfMainStack)
 332:Drivers/CMSIS/Include/cmsis_gcc.h **** {
 333:Drivers/CMSIS/Include/cmsis_gcc.h ****   __ASM volatile ("MSR msp, %0" : : "r" (topOfMainStack) : );
 334:Drivers/CMSIS/Include/cmsis_gcc.h **** }
 335:Drivers/CMSIS/Include/cmsis_gcc.h **** 
 336:Drivers/CMSIS/Include/cmsis_gcc.h **** 
 337:Drivers/CMSIS/Include/cmsis_gcc.h **** #if (defined (__ARM_FEATURE_CMSE ) && (__ARM_FEATURE_CMSE == 3))
 338:Drivers/CMSIS/Include/cmsis_gcc.h **** /**
 339:Drivers/CMSIS/Include/cmsis_gcc.h ****   \brief   Set Main Stack Pointer (non-secure)
 340:Drivers/CMSIS/Include/cmsis_gcc.h ****   \details Assigns the given value to the non-secure Main Stack Pointer (MSP) when in secure state.
 341:Drivers/CMSIS/Include/cmsis_gcc.h ****   \param [in]    topOfMainStack  Main Stack Pointer value to set
 342:Drivers/CMSIS/Include/cmsis_gcc.h ****  */
 343:Drivers/CMSIS/Include/cmsis_gcc.h **** __STATIC_FORCEINLINE void __TZ_set_MSP_NS(uint32_t topOfMainStack)
 344:Drivers/CMSIS/Include/cmsis_gcc.h **** {
 345:Drivers/CMSIS/Include/cmsis_gcc.h ****   __ASM volatile ("MSR msp_ns, %0" : : "r" (topOfMainStack) : );
 346:Drivers/CMSIS/Include/cmsis_gcc.h **** }
 347:Drivers/CMSIS/Include/cmsis_gcc.h **** #endif
 348:Drivers/CMSIS/Include/cmsis_gcc.h **** 
 349:Drivers/CMSIS/Include/cmsis_gcc.h **** 
 350:Drivers/CMSIS/Include/cmsis_gcc.h **** #if (defined (__ARM_FEATURE_CMSE ) && (__ARM_FEATURE_CMSE == 3))
 351:Drivers/CMSIS/Include/cmsis_gcc.h **** /**
 352:Drivers/CMSIS/Include/cmsis_gcc.h ****   \brief   Get Stack Pointer (non-secure)
 353:Drivers/CMSIS/Include/cmsis_gcc.h ****   \details Returns the current value of the non-secure Stack Pointer (SP) when in secure state.
 354:Drivers/CMSIS/Include/cmsis_gcc.h ****   \return               SP Register value
 355:Drivers/CMSIS/Include/cmsis_gcc.h ****  */
 356:Drivers/CMSIS/Include/cmsis_gcc.h **** __STATIC_FORCEINLINE uint32_t __TZ_get_SP_NS(void)
 357:Drivers/CMSIS/Include/cmsis_gcc.h **** {
 358:Drivers/CMSIS/Include/cmsis_gcc.h ****   uint32_t result;
 359:Drivers/CMSIS/Include/cmsis_gcc.h **** 
 360:Drivers/CMSIS/Include/cmsis_gcc.h ****   __ASM volatile ("MRS %0, sp_ns" : "=r" (result) );
 361:Drivers/CMSIS/Include/cmsis_gcc.h ****   return(result);
 362:Drivers/CMSIS/Include/cmsis_gcc.h **** }
 363:Drivers/CMSIS/Include/cmsis_gcc.h **** 
 364:Drivers/CMSIS/Include/cmsis_gcc.h **** 
 365:Drivers/CMSIS/Include/cmsis_gcc.h **** /**
 366:Drivers/CMSIS/Include/cmsis_gcc.h ****   \brief   Set Stack Pointer (non-secure)
 367:Drivers/CMSIS/Include/cmsis_gcc.h ****   \details Assigns the given value to the non-secure Stack Pointer (SP) when in secure state.
 368:Drivers/CMSIS/Include/cmsis_gcc.h ****   \param [in]    topOfStack  Stack Pointer value to set
 369:Drivers/CMSIS/Include/cmsis_gcc.h ****  */
 370:Drivers/CMSIS/Include/cmsis_gcc.h **** __STATIC_FORCEINLINE void __TZ_set_SP_NS(uint32_t topOfStack)
 371:Drivers/CMSIS/Include/cmsis_gcc.h **** {
 372:Drivers/CMSIS/Include/cmsis_gcc.h ****   __ASM volatile ("MSR sp_ns, %0" : : "r" (topOfStack) : );
ARM GAS  /tmp/cc17XZfc.s 			page 58


 373:Drivers/CMSIS/Include/cmsis_gcc.h **** }
 374:Drivers/CMSIS/Include/cmsis_gcc.h **** #endif
 375:Drivers/CMSIS/Include/cmsis_gcc.h **** 
 376:Drivers/CMSIS/Include/cmsis_gcc.h **** 
 377:Drivers/CMSIS/Include/cmsis_gcc.h **** /**
 378:Drivers/CMSIS/Include/cmsis_gcc.h ****   \brief   Get Priority Mask
 379:Drivers/CMSIS/Include/cmsis_gcc.h ****   \details Returns the current state of the priority mask bit from the Priority Mask Register.
 380:Drivers/CMSIS/Include/cmsis_gcc.h ****   \return               Priority Mask value
 381:Drivers/CMSIS/Include/cmsis_gcc.h ****  */
 382:Drivers/CMSIS/Include/cmsis_gcc.h **** __STATIC_FORCEINLINE uint32_t __get_PRIMASK(void)
 383:Drivers/CMSIS/Include/cmsis_gcc.h **** {
 384:Drivers/CMSIS/Include/cmsis_gcc.h ****   uint32_t result;
 385:Drivers/CMSIS/Include/cmsis_gcc.h **** 
 386:Drivers/CMSIS/Include/cmsis_gcc.h ****   __ASM volatile ("MRS %0, primask" : "=r" (result) :: "memory");
 387:Drivers/CMSIS/Include/cmsis_gcc.h ****   return(result);
 388:Drivers/CMSIS/Include/cmsis_gcc.h **** }
 389:Drivers/CMSIS/Include/cmsis_gcc.h **** 
 390:Drivers/CMSIS/Include/cmsis_gcc.h **** 
 391:Drivers/CMSIS/Include/cmsis_gcc.h **** #if (defined (__ARM_FEATURE_CMSE ) && (__ARM_FEATURE_CMSE == 3))
 392:Drivers/CMSIS/Include/cmsis_gcc.h **** /**
 393:Drivers/CMSIS/Include/cmsis_gcc.h ****   \brief   Get Priority Mask (non-secure)
 394:Drivers/CMSIS/Include/cmsis_gcc.h ****   \details Returns the current state of the non-secure priority mask bit from the Priority Mask Reg
 395:Drivers/CMSIS/Include/cmsis_gcc.h ****   \return               Priority Mask value
 396:Drivers/CMSIS/Include/cmsis_gcc.h ****  */
 397:Drivers/CMSIS/Include/cmsis_gcc.h **** __STATIC_FORCEINLINE uint32_t __TZ_get_PRIMASK_NS(void)
 398:Drivers/CMSIS/Include/cmsis_gcc.h **** {
 399:Drivers/CMSIS/Include/cmsis_gcc.h ****   uint32_t result;
 400:Drivers/CMSIS/Include/cmsis_gcc.h **** 
 401:Drivers/CMSIS/Include/cmsis_gcc.h ****   __ASM volatile ("MRS %0, primask_ns" : "=r" (result) :: "memory");
 402:Drivers/CMSIS/Include/cmsis_gcc.h ****   return(result);
 403:Drivers/CMSIS/Include/cmsis_gcc.h **** }
 404:Drivers/CMSIS/Include/cmsis_gcc.h **** #endif
 405:Drivers/CMSIS/Include/cmsis_gcc.h **** 
 406:Drivers/CMSIS/Include/cmsis_gcc.h **** 
 407:Drivers/CMSIS/Include/cmsis_gcc.h **** /**
 408:Drivers/CMSIS/Include/cmsis_gcc.h ****   \brief   Set Priority Mask
 409:Drivers/CMSIS/Include/cmsis_gcc.h ****   \details Assigns the given value to the Priority Mask Register.
 410:Drivers/CMSIS/Include/cmsis_gcc.h ****   \param [in]    priMask  Priority Mask
 411:Drivers/CMSIS/Include/cmsis_gcc.h ****  */
 412:Drivers/CMSIS/Include/cmsis_gcc.h **** __STATIC_FORCEINLINE void __set_PRIMASK(uint32_t priMask)
 413:Drivers/CMSIS/Include/cmsis_gcc.h **** {
 414:Drivers/CMSIS/Include/cmsis_gcc.h ****   __ASM volatile ("MSR primask, %0" : : "r" (priMask) : "memory");
 415:Drivers/CMSIS/Include/cmsis_gcc.h **** }
 416:Drivers/CMSIS/Include/cmsis_gcc.h **** 
 417:Drivers/CMSIS/Include/cmsis_gcc.h **** 
 418:Drivers/CMSIS/Include/cmsis_gcc.h **** #if (defined (__ARM_FEATURE_CMSE ) && (__ARM_FEATURE_CMSE == 3))
 419:Drivers/CMSIS/Include/cmsis_gcc.h **** /**
 420:Drivers/CMSIS/Include/cmsis_gcc.h ****   \brief   Set Priority Mask (non-secure)
 421:Drivers/CMSIS/Include/cmsis_gcc.h ****   \details Assigns the given value to the non-secure Priority Mask Register when in secure state.
 422:Drivers/CMSIS/Include/cmsis_gcc.h ****   \param [in]    priMask  Priority Mask
 423:Drivers/CMSIS/Include/cmsis_gcc.h ****  */
 424:Drivers/CMSIS/Include/cmsis_gcc.h **** __STATIC_FORCEINLINE void __TZ_set_PRIMASK_NS(uint32_t priMask)
 425:Drivers/CMSIS/Include/cmsis_gcc.h **** {
 426:Drivers/CMSIS/Include/cmsis_gcc.h ****   __ASM volatile ("MSR primask_ns, %0" : : "r" (priMask) : "memory");
 427:Drivers/CMSIS/Include/cmsis_gcc.h **** }
 428:Drivers/CMSIS/Include/cmsis_gcc.h **** #endif
 429:Drivers/CMSIS/Include/cmsis_gcc.h **** 
ARM GAS  /tmp/cc17XZfc.s 			page 59


 430:Drivers/CMSIS/Include/cmsis_gcc.h **** 
 431:Drivers/CMSIS/Include/cmsis_gcc.h **** #if ((defined (__ARM_ARCH_7M__      ) && (__ARM_ARCH_7M__      == 1)) || \
 432:Drivers/CMSIS/Include/cmsis_gcc.h ****      (defined (__ARM_ARCH_7EM__     ) && (__ARM_ARCH_7EM__     == 1)) || \
 433:Drivers/CMSIS/Include/cmsis_gcc.h ****      (defined (__ARM_ARCH_8M_MAIN__ ) && (__ARM_ARCH_8M_MAIN__ == 1))    )
 434:Drivers/CMSIS/Include/cmsis_gcc.h **** /**
 435:Drivers/CMSIS/Include/cmsis_gcc.h ****   \brief   Enable FIQ
 436:Drivers/CMSIS/Include/cmsis_gcc.h ****   \details Enables FIQ interrupts by clearing the F-bit in the CPSR.
 437:Drivers/CMSIS/Include/cmsis_gcc.h ****            Can only be executed in Privileged modes.
 438:Drivers/CMSIS/Include/cmsis_gcc.h ****  */
 439:Drivers/CMSIS/Include/cmsis_gcc.h **** __STATIC_FORCEINLINE void __enable_fault_irq(void)
 440:Drivers/CMSIS/Include/cmsis_gcc.h **** {
 441:Drivers/CMSIS/Include/cmsis_gcc.h ****   __ASM volatile ("cpsie f" : : : "memory");
 442:Drivers/CMSIS/Include/cmsis_gcc.h **** }
 443:Drivers/CMSIS/Include/cmsis_gcc.h **** 
 444:Drivers/CMSIS/Include/cmsis_gcc.h **** 
 445:Drivers/CMSIS/Include/cmsis_gcc.h **** /**
 446:Drivers/CMSIS/Include/cmsis_gcc.h ****   \brief   Disable FIQ
 447:Drivers/CMSIS/Include/cmsis_gcc.h ****   \details Disables FIQ interrupts by setting the F-bit in the CPSR.
 448:Drivers/CMSIS/Include/cmsis_gcc.h ****            Can only be executed in Privileged modes.
 449:Drivers/CMSIS/Include/cmsis_gcc.h ****  */
 450:Drivers/CMSIS/Include/cmsis_gcc.h **** __STATIC_FORCEINLINE void __disable_fault_irq(void)
 451:Drivers/CMSIS/Include/cmsis_gcc.h **** {
 452:Drivers/CMSIS/Include/cmsis_gcc.h ****   __ASM volatile ("cpsid f" : : : "memory");
 453:Drivers/CMSIS/Include/cmsis_gcc.h **** }
 454:Drivers/CMSIS/Include/cmsis_gcc.h **** 
 455:Drivers/CMSIS/Include/cmsis_gcc.h **** 
 456:Drivers/CMSIS/Include/cmsis_gcc.h **** /**
 457:Drivers/CMSIS/Include/cmsis_gcc.h ****   \brief   Get Base Priority
 458:Drivers/CMSIS/Include/cmsis_gcc.h ****   \details Returns the current value of the Base Priority register.
 459:Drivers/CMSIS/Include/cmsis_gcc.h ****   \return               Base Priority register value
 460:Drivers/CMSIS/Include/cmsis_gcc.h ****  */
 461:Drivers/CMSIS/Include/cmsis_gcc.h **** __STATIC_FORCEINLINE uint32_t __get_BASEPRI(void)
 462:Drivers/CMSIS/Include/cmsis_gcc.h **** {
 463:Drivers/CMSIS/Include/cmsis_gcc.h ****   uint32_t result;
 464:Drivers/CMSIS/Include/cmsis_gcc.h **** 
 465:Drivers/CMSIS/Include/cmsis_gcc.h ****   __ASM volatile ("MRS %0, basepri" : "=r" (result) );
 466:Drivers/CMSIS/Include/cmsis_gcc.h ****   return(result);
 467:Drivers/CMSIS/Include/cmsis_gcc.h **** }
 468:Drivers/CMSIS/Include/cmsis_gcc.h **** 
 469:Drivers/CMSIS/Include/cmsis_gcc.h **** 
 470:Drivers/CMSIS/Include/cmsis_gcc.h **** #if (defined (__ARM_FEATURE_CMSE ) && (__ARM_FEATURE_CMSE == 3))
 471:Drivers/CMSIS/Include/cmsis_gcc.h **** /**
 472:Drivers/CMSIS/Include/cmsis_gcc.h ****   \brief   Get Base Priority (non-secure)
 473:Drivers/CMSIS/Include/cmsis_gcc.h ****   \details Returns the current value of the non-secure Base Priority register when in secure state.
 474:Drivers/CMSIS/Include/cmsis_gcc.h ****   \return               Base Priority register value
 475:Drivers/CMSIS/Include/cmsis_gcc.h ****  */
 476:Drivers/CMSIS/Include/cmsis_gcc.h **** __STATIC_FORCEINLINE uint32_t __TZ_get_BASEPRI_NS(void)
 477:Drivers/CMSIS/Include/cmsis_gcc.h **** {
 478:Drivers/CMSIS/Include/cmsis_gcc.h ****   uint32_t result;
 479:Drivers/CMSIS/Include/cmsis_gcc.h **** 
 480:Drivers/CMSIS/Include/cmsis_gcc.h ****   __ASM volatile ("MRS %0, basepri_ns" : "=r" (result) );
 481:Drivers/CMSIS/Include/cmsis_gcc.h ****   return(result);
 482:Drivers/CMSIS/Include/cmsis_gcc.h **** }
 483:Drivers/CMSIS/Include/cmsis_gcc.h **** #endif
 484:Drivers/CMSIS/Include/cmsis_gcc.h **** 
 485:Drivers/CMSIS/Include/cmsis_gcc.h **** 
 486:Drivers/CMSIS/Include/cmsis_gcc.h **** /**
ARM GAS  /tmp/cc17XZfc.s 			page 60


 487:Drivers/CMSIS/Include/cmsis_gcc.h ****   \brief   Set Base Priority
 488:Drivers/CMSIS/Include/cmsis_gcc.h ****   \details Assigns the given value to the Base Priority register.
 489:Drivers/CMSIS/Include/cmsis_gcc.h ****   \param [in]    basePri  Base Priority value to set
 490:Drivers/CMSIS/Include/cmsis_gcc.h ****  */
 491:Drivers/CMSIS/Include/cmsis_gcc.h **** __STATIC_FORCEINLINE void __set_BASEPRI(uint32_t basePri)
 492:Drivers/CMSIS/Include/cmsis_gcc.h **** {
 493:Drivers/CMSIS/Include/cmsis_gcc.h ****   __ASM volatile ("MSR basepri, %0" : : "r" (basePri) : "memory");
 494:Drivers/CMSIS/Include/cmsis_gcc.h **** }
 495:Drivers/CMSIS/Include/cmsis_gcc.h **** 
 496:Drivers/CMSIS/Include/cmsis_gcc.h **** 
 497:Drivers/CMSIS/Include/cmsis_gcc.h **** #if (defined (__ARM_FEATURE_CMSE ) && (__ARM_FEATURE_CMSE == 3))
 498:Drivers/CMSIS/Include/cmsis_gcc.h **** /**
 499:Drivers/CMSIS/Include/cmsis_gcc.h ****   \brief   Set Base Priority (non-secure)
 500:Drivers/CMSIS/Include/cmsis_gcc.h ****   \details Assigns the given value to the non-secure Base Priority register when in secure state.
 501:Drivers/CMSIS/Include/cmsis_gcc.h ****   \param [in]    basePri  Base Priority value to set
 502:Drivers/CMSIS/Include/cmsis_gcc.h ****  */
 503:Drivers/CMSIS/Include/cmsis_gcc.h **** __STATIC_FORCEINLINE void __TZ_set_BASEPRI_NS(uint32_t basePri)
 504:Drivers/CMSIS/Include/cmsis_gcc.h **** {
 505:Drivers/CMSIS/Include/cmsis_gcc.h ****   __ASM volatile ("MSR basepri_ns, %0" : : "r" (basePri) : "memory");
 506:Drivers/CMSIS/Include/cmsis_gcc.h **** }
 507:Drivers/CMSIS/Include/cmsis_gcc.h **** #endif
 508:Drivers/CMSIS/Include/cmsis_gcc.h **** 
 509:Drivers/CMSIS/Include/cmsis_gcc.h **** 
 510:Drivers/CMSIS/Include/cmsis_gcc.h **** /**
 511:Drivers/CMSIS/Include/cmsis_gcc.h ****   \brief   Set Base Priority with condition
 512:Drivers/CMSIS/Include/cmsis_gcc.h ****   \details Assigns the given value to the Base Priority register only if BASEPRI masking is disable
 513:Drivers/CMSIS/Include/cmsis_gcc.h ****            or the new value increases the BASEPRI priority level.
 514:Drivers/CMSIS/Include/cmsis_gcc.h ****   \param [in]    basePri  Base Priority value to set
 515:Drivers/CMSIS/Include/cmsis_gcc.h ****  */
 516:Drivers/CMSIS/Include/cmsis_gcc.h **** __STATIC_FORCEINLINE void __set_BASEPRI_MAX(uint32_t basePri)
 517:Drivers/CMSIS/Include/cmsis_gcc.h **** {
 518:Drivers/CMSIS/Include/cmsis_gcc.h ****   __ASM volatile ("MSR basepri_max, %0" : : "r" (basePri) : "memory");
 519:Drivers/CMSIS/Include/cmsis_gcc.h **** }
 520:Drivers/CMSIS/Include/cmsis_gcc.h **** 
 521:Drivers/CMSIS/Include/cmsis_gcc.h **** 
 522:Drivers/CMSIS/Include/cmsis_gcc.h **** /**
 523:Drivers/CMSIS/Include/cmsis_gcc.h ****   \brief   Get Fault Mask
 524:Drivers/CMSIS/Include/cmsis_gcc.h ****   \details Returns the current value of the Fault Mask register.
 525:Drivers/CMSIS/Include/cmsis_gcc.h ****   \return               Fault Mask register value
 526:Drivers/CMSIS/Include/cmsis_gcc.h ****  */
 527:Drivers/CMSIS/Include/cmsis_gcc.h **** __STATIC_FORCEINLINE uint32_t __get_FAULTMASK(void)
 528:Drivers/CMSIS/Include/cmsis_gcc.h **** {
 529:Drivers/CMSIS/Include/cmsis_gcc.h ****   uint32_t result;
 530:Drivers/CMSIS/Include/cmsis_gcc.h **** 
 531:Drivers/CMSIS/Include/cmsis_gcc.h ****   __ASM volatile ("MRS %0, faultmask" : "=r" (result) );
 532:Drivers/CMSIS/Include/cmsis_gcc.h ****   return(result);
 533:Drivers/CMSIS/Include/cmsis_gcc.h **** }
 534:Drivers/CMSIS/Include/cmsis_gcc.h **** 
 535:Drivers/CMSIS/Include/cmsis_gcc.h **** 
 536:Drivers/CMSIS/Include/cmsis_gcc.h **** #if (defined (__ARM_FEATURE_CMSE ) && (__ARM_FEATURE_CMSE == 3))
 537:Drivers/CMSIS/Include/cmsis_gcc.h **** /**
 538:Drivers/CMSIS/Include/cmsis_gcc.h ****   \brief   Get Fault Mask (non-secure)
 539:Drivers/CMSIS/Include/cmsis_gcc.h ****   \details Returns the current value of the non-secure Fault Mask register when in secure state.
 540:Drivers/CMSIS/Include/cmsis_gcc.h ****   \return               Fault Mask register value
 541:Drivers/CMSIS/Include/cmsis_gcc.h ****  */
 542:Drivers/CMSIS/Include/cmsis_gcc.h **** __STATIC_FORCEINLINE uint32_t __TZ_get_FAULTMASK_NS(void)
 543:Drivers/CMSIS/Include/cmsis_gcc.h **** {
ARM GAS  /tmp/cc17XZfc.s 			page 61


 544:Drivers/CMSIS/Include/cmsis_gcc.h ****   uint32_t result;
 545:Drivers/CMSIS/Include/cmsis_gcc.h **** 
 546:Drivers/CMSIS/Include/cmsis_gcc.h ****   __ASM volatile ("MRS %0, faultmask_ns" : "=r" (result) );
 547:Drivers/CMSIS/Include/cmsis_gcc.h ****   return(result);
 548:Drivers/CMSIS/Include/cmsis_gcc.h **** }
 549:Drivers/CMSIS/Include/cmsis_gcc.h **** #endif
 550:Drivers/CMSIS/Include/cmsis_gcc.h **** 
 551:Drivers/CMSIS/Include/cmsis_gcc.h **** 
 552:Drivers/CMSIS/Include/cmsis_gcc.h **** /**
 553:Drivers/CMSIS/Include/cmsis_gcc.h ****   \brief   Set Fault Mask
 554:Drivers/CMSIS/Include/cmsis_gcc.h ****   \details Assigns the given value to the Fault Mask register.
 555:Drivers/CMSIS/Include/cmsis_gcc.h ****   \param [in]    faultMask  Fault Mask value to set
 556:Drivers/CMSIS/Include/cmsis_gcc.h ****  */
 557:Drivers/CMSIS/Include/cmsis_gcc.h **** __STATIC_FORCEINLINE void __set_FAULTMASK(uint32_t faultMask)
 558:Drivers/CMSIS/Include/cmsis_gcc.h **** {
 559:Drivers/CMSIS/Include/cmsis_gcc.h ****   __ASM volatile ("MSR faultmask, %0" : : "r" (faultMask) : "memory");
 560:Drivers/CMSIS/Include/cmsis_gcc.h **** }
 561:Drivers/CMSIS/Include/cmsis_gcc.h **** 
 562:Drivers/CMSIS/Include/cmsis_gcc.h **** 
 563:Drivers/CMSIS/Include/cmsis_gcc.h **** #if (defined (__ARM_FEATURE_CMSE ) && (__ARM_FEATURE_CMSE == 3))
 564:Drivers/CMSIS/Include/cmsis_gcc.h **** /**
 565:Drivers/CMSIS/Include/cmsis_gcc.h ****   \brief   Set Fault Mask (non-secure)
 566:Drivers/CMSIS/Include/cmsis_gcc.h ****   \details Assigns the given value to the non-secure Fault Mask register when in secure state.
 567:Drivers/CMSIS/Include/cmsis_gcc.h ****   \param [in]    faultMask  Fault Mask value to set
 568:Drivers/CMSIS/Include/cmsis_gcc.h ****  */
 569:Drivers/CMSIS/Include/cmsis_gcc.h **** __STATIC_FORCEINLINE void __TZ_set_FAULTMASK_NS(uint32_t faultMask)
 570:Drivers/CMSIS/Include/cmsis_gcc.h **** {
 571:Drivers/CMSIS/Include/cmsis_gcc.h ****   __ASM volatile ("MSR faultmask_ns, %0" : : "r" (faultMask) : "memory");
 572:Drivers/CMSIS/Include/cmsis_gcc.h **** }
 573:Drivers/CMSIS/Include/cmsis_gcc.h **** #endif
 574:Drivers/CMSIS/Include/cmsis_gcc.h **** 
 575:Drivers/CMSIS/Include/cmsis_gcc.h **** #endif /* ((defined (__ARM_ARCH_7M__      ) && (__ARM_ARCH_7M__      == 1)) || \
 576:Drivers/CMSIS/Include/cmsis_gcc.h ****            (defined (__ARM_ARCH_7EM__     ) && (__ARM_ARCH_7EM__     == 1)) || \
 577:Drivers/CMSIS/Include/cmsis_gcc.h ****            (defined (__ARM_ARCH_8M_MAIN__ ) && (__ARM_ARCH_8M_MAIN__ == 1))    ) */
 578:Drivers/CMSIS/Include/cmsis_gcc.h **** 
 579:Drivers/CMSIS/Include/cmsis_gcc.h **** 
 580:Drivers/CMSIS/Include/cmsis_gcc.h **** #if ((defined (__ARM_ARCH_8M_MAIN__ ) && (__ARM_ARCH_8M_MAIN__ == 1)) || \
 581:Drivers/CMSIS/Include/cmsis_gcc.h ****      (defined (__ARM_ARCH_8M_BASE__ ) && (__ARM_ARCH_8M_BASE__ == 1))    )
 582:Drivers/CMSIS/Include/cmsis_gcc.h **** 
 583:Drivers/CMSIS/Include/cmsis_gcc.h **** /**
 584:Drivers/CMSIS/Include/cmsis_gcc.h ****   \brief   Get Process Stack Pointer Limit
 585:Drivers/CMSIS/Include/cmsis_gcc.h ****   Devices without ARMv8-M Main Extensions (i.e. Cortex-M23) lack the non-secure
 586:Drivers/CMSIS/Include/cmsis_gcc.h ****   Stack Pointer Limit register hence zero is returned always in non-secure
 587:Drivers/CMSIS/Include/cmsis_gcc.h ****   mode.
 588:Drivers/CMSIS/Include/cmsis_gcc.h ****   
 589:Drivers/CMSIS/Include/cmsis_gcc.h ****   \details Returns the current value of the Process Stack Pointer Limit (PSPLIM).
 590:Drivers/CMSIS/Include/cmsis_gcc.h ****   \return               PSPLIM Register value
 591:Drivers/CMSIS/Include/cmsis_gcc.h ****  */
 592:Drivers/CMSIS/Include/cmsis_gcc.h **** __STATIC_FORCEINLINE uint32_t __get_PSPLIM(void)
 593:Drivers/CMSIS/Include/cmsis_gcc.h **** {
 594:Drivers/CMSIS/Include/cmsis_gcc.h **** #if (!(defined (__ARM_ARCH_8M_MAIN__ ) && (__ARM_ARCH_8M_MAIN__ == 1)) && \
 595:Drivers/CMSIS/Include/cmsis_gcc.h ****     (!defined (__ARM_FEATURE_CMSE) || (__ARM_FEATURE_CMSE < 3)))
 596:Drivers/CMSIS/Include/cmsis_gcc.h ****     // without main extensions, the non-secure PSPLIM is RAZ/WI
 597:Drivers/CMSIS/Include/cmsis_gcc.h ****   return 0U;
 598:Drivers/CMSIS/Include/cmsis_gcc.h **** #else
 599:Drivers/CMSIS/Include/cmsis_gcc.h ****   uint32_t result;
 600:Drivers/CMSIS/Include/cmsis_gcc.h ****   __ASM volatile ("MRS %0, psplim"  : "=r" (result) );
ARM GAS  /tmp/cc17XZfc.s 			page 62


 601:Drivers/CMSIS/Include/cmsis_gcc.h ****   return result;
 602:Drivers/CMSIS/Include/cmsis_gcc.h **** #endif
 603:Drivers/CMSIS/Include/cmsis_gcc.h **** }
 604:Drivers/CMSIS/Include/cmsis_gcc.h **** 
 605:Drivers/CMSIS/Include/cmsis_gcc.h **** #if (defined (__ARM_FEATURE_CMSE) && (__ARM_FEATURE_CMSE == 3))
 606:Drivers/CMSIS/Include/cmsis_gcc.h **** /**
 607:Drivers/CMSIS/Include/cmsis_gcc.h ****   \brief   Get Process Stack Pointer Limit (non-secure)
 608:Drivers/CMSIS/Include/cmsis_gcc.h ****   Devices without ARMv8-M Main Extensions (i.e. Cortex-M23) lack the non-secure
 609:Drivers/CMSIS/Include/cmsis_gcc.h ****   Stack Pointer Limit register hence zero is returned always.
 610:Drivers/CMSIS/Include/cmsis_gcc.h **** 
 611:Drivers/CMSIS/Include/cmsis_gcc.h ****   \details Returns the current value of the non-secure Process Stack Pointer Limit (PSPLIM) when in
 612:Drivers/CMSIS/Include/cmsis_gcc.h ****   \return               PSPLIM Register value
 613:Drivers/CMSIS/Include/cmsis_gcc.h ****  */
 614:Drivers/CMSIS/Include/cmsis_gcc.h **** __STATIC_FORCEINLINE uint32_t __TZ_get_PSPLIM_NS(void)
 615:Drivers/CMSIS/Include/cmsis_gcc.h **** {
 616:Drivers/CMSIS/Include/cmsis_gcc.h **** #if (!(defined (__ARM_ARCH_8M_MAIN__ ) && (__ARM_ARCH_8M_MAIN__ == 1)))
 617:Drivers/CMSIS/Include/cmsis_gcc.h ****   // without main extensions, the non-secure PSPLIM is RAZ/WI
 618:Drivers/CMSIS/Include/cmsis_gcc.h ****   return 0U;
 619:Drivers/CMSIS/Include/cmsis_gcc.h **** #else
 620:Drivers/CMSIS/Include/cmsis_gcc.h ****   uint32_t result;
 621:Drivers/CMSIS/Include/cmsis_gcc.h ****   __ASM volatile ("MRS %0, psplim_ns"  : "=r" (result) );
 622:Drivers/CMSIS/Include/cmsis_gcc.h ****   return result;
 623:Drivers/CMSIS/Include/cmsis_gcc.h **** #endif
 624:Drivers/CMSIS/Include/cmsis_gcc.h **** }
 625:Drivers/CMSIS/Include/cmsis_gcc.h **** #endif
 626:Drivers/CMSIS/Include/cmsis_gcc.h **** 
 627:Drivers/CMSIS/Include/cmsis_gcc.h **** 
 628:Drivers/CMSIS/Include/cmsis_gcc.h **** /**
 629:Drivers/CMSIS/Include/cmsis_gcc.h ****   \brief   Set Process Stack Pointer Limit
 630:Drivers/CMSIS/Include/cmsis_gcc.h ****   Devices without ARMv8-M Main Extensions (i.e. Cortex-M23) lack the non-secure
 631:Drivers/CMSIS/Include/cmsis_gcc.h ****   Stack Pointer Limit register hence the write is silently ignored in non-secure
 632:Drivers/CMSIS/Include/cmsis_gcc.h ****   mode.
 633:Drivers/CMSIS/Include/cmsis_gcc.h ****   
 634:Drivers/CMSIS/Include/cmsis_gcc.h ****   \details Assigns the given value to the Process Stack Pointer Limit (PSPLIM).
 635:Drivers/CMSIS/Include/cmsis_gcc.h ****   \param [in]    ProcStackPtrLimit  Process Stack Pointer Limit value to set
 636:Drivers/CMSIS/Include/cmsis_gcc.h ****  */
 637:Drivers/CMSIS/Include/cmsis_gcc.h **** __STATIC_FORCEINLINE void __set_PSPLIM(uint32_t ProcStackPtrLimit)
 638:Drivers/CMSIS/Include/cmsis_gcc.h **** {
 639:Drivers/CMSIS/Include/cmsis_gcc.h **** #if (!(defined (__ARM_ARCH_8M_MAIN__ ) && (__ARM_ARCH_8M_MAIN__ == 1)) && \
 640:Drivers/CMSIS/Include/cmsis_gcc.h ****     (!defined (__ARM_FEATURE_CMSE) || (__ARM_FEATURE_CMSE < 3)))
 641:Drivers/CMSIS/Include/cmsis_gcc.h ****   // without main extensions, the non-secure PSPLIM is RAZ/WI
 642:Drivers/CMSIS/Include/cmsis_gcc.h ****   (void)ProcStackPtrLimit;
 643:Drivers/CMSIS/Include/cmsis_gcc.h **** #else
 644:Drivers/CMSIS/Include/cmsis_gcc.h ****   __ASM volatile ("MSR psplim, %0" : : "r" (ProcStackPtrLimit));
 645:Drivers/CMSIS/Include/cmsis_gcc.h **** #endif
 646:Drivers/CMSIS/Include/cmsis_gcc.h **** }
 647:Drivers/CMSIS/Include/cmsis_gcc.h **** 
 648:Drivers/CMSIS/Include/cmsis_gcc.h **** 
 649:Drivers/CMSIS/Include/cmsis_gcc.h **** #if (defined (__ARM_FEATURE_CMSE  ) && (__ARM_FEATURE_CMSE   == 3))
 650:Drivers/CMSIS/Include/cmsis_gcc.h **** /**
 651:Drivers/CMSIS/Include/cmsis_gcc.h ****   \brief   Set Process Stack Pointer (non-secure)
 652:Drivers/CMSIS/Include/cmsis_gcc.h ****   Devices without ARMv8-M Main Extensions (i.e. Cortex-M23) lack the non-secure
 653:Drivers/CMSIS/Include/cmsis_gcc.h ****   Stack Pointer Limit register hence the write is silently ignored.
 654:Drivers/CMSIS/Include/cmsis_gcc.h **** 
 655:Drivers/CMSIS/Include/cmsis_gcc.h ****   \details Assigns the given value to the non-secure Process Stack Pointer Limit (PSPLIM) when in s
 656:Drivers/CMSIS/Include/cmsis_gcc.h ****   \param [in]    ProcStackPtrLimit  Process Stack Pointer Limit value to set
 657:Drivers/CMSIS/Include/cmsis_gcc.h ****  */
ARM GAS  /tmp/cc17XZfc.s 			page 63


 658:Drivers/CMSIS/Include/cmsis_gcc.h **** __STATIC_FORCEINLINE void __TZ_set_PSPLIM_NS(uint32_t ProcStackPtrLimit)
 659:Drivers/CMSIS/Include/cmsis_gcc.h **** {
 660:Drivers/CMSIS/Include/cmsis_gcc.h **** #if (!(defined (__ARM_ARCH_8M_MAIN__ ) && (__ARM_ARCH_8M_MAIN__ == 1)))
 661:Drivers/CMSIS/Include/cmsis_gcc.h ****   // without main extensions, the non-secure PSPLIM is RAZ/WI
 662:Drivers/CMSIS/Include/cmsis_gcc.h ****   (void)ProcStackPtrLimit;
 663:Drivers/CMSIS/Include/cmsis_gcc.h **** #else
 664:Drivers/CMSIS/Include/cmsis_gcc.h ****   __ASM volatile ("MSR psplim_ns, %0\n" : : "r" (ProcStackPtrLimit));
 665:Drivers/CMSIS/Include/cmsis_gcc.h **** #endif
 666:Drivers/CMSIS/Include/cmsis_gcc.h **** }
 667:Drivers/CMSIS/Include/cmsis_gcc.h **** #endif
 668:Drivers/CMSIS/Include/cmsis_gcc.h **** 
 669:Drivers/CMSIS/Include/cmsis_gcc.h **** 
 670:Drivers/CMSIS/Include/cmsis_gcc.h **** /**
 671:Drivers/CMSIS/Include/cmsis_gcc.h ****   \brief   Get Main Stack Pointer Limit
 672:Drivers/CMSIS/Include/cmsis_gcc.h ****   Devices without ARMv8-M Main Extensions (i.e. Cortex-M23) lack the non-secure
 673:Drivers/CMSIS/Include/cmsis_gcc.h ****   Stack Pointer Limit register hence zero is returned always in non-secure
 674:Drivers/CMSIS/Include/cmsis_gcc.h ****   mode.
 675:Drivers/CMSIS/Include/cmsis_gcc.h **** 
 676:Drivers/CMSIS/Include/cmsis_gcc.h ****   \details Returns the current value of the Main Stack Pointer Limit (MSPLIM).
 677:Drivers/CMSIS/Include/cmsis_gcc.h ****   \return               MSPLIM Register value
 678:Drivers/CMSIS/Include/cmsis_gcc.h ****  */
 679:Drivers/CMSIS/Include/cmsis_gcc.h **** __STATIC_FORCEINLINE uint32_t __get_MSPLIM(void)
 680:Drivers/CMSIS/Include/cmsis_gcc.h **** {
 681:Drivers/CMSIS/Include/cmsis_gcc.h **** #if (!(defined (__ARM_ARCH_8M_MAIN__ ) && (__ARM_ARCH_8M_MAIN__ == 1)) && \
 682:Drivers/CMSIS/Include/cmsis_gcc.h ****     (!defined (__ARM_FEATURE_CMSE) || (__ARM_FEATURE_CMSE < 3)))
 683:Drivers/CMSIS/Include/cmsis_gcc.h ****   // without main extensions, the non-secure MSPLIM is RAZ/WI
 684:Drivers/CMSIS/Include/cmsis_gcc.h ****   return 0U;
 685:Drivers/CMSIS/Include/cmsis_gcc.h **** #else
 686:Drivers/CMSIS/Include/cmsis_gcc.h ****   uint32_t result;
 687:Drivers/CMSIS/Include/cmsis_gcc.h ****   __ASM volatile ("MRS %0, msplim" : "=r" (result) );
 688:Drivers/CMSIS/Include/cmsis_gcc.h ****   return result;
 689:Drivers/CMSIS/Include/cmsis_gcc.h **** #endif
 690:Drivers/CMSIS/Include/cmsis_gcc.h **** }
 691:Drivers/CMSIS/Include/cmsis_gcc.h **** 
